(dp1
S'output'
p2
S"<type 'exceptions.SyntaxError'> EOL while scanning string literal (site/ghephang/default/taixe.html, line 90)"
p3
sS'layer'
p4
S'D:\\9026-py2\\applications\\cms\\views\\site/ghephang/default/taixe.html'
p5
sS'code'
p6
S'response.write(\'<!doctype html>\\r\\n<html lang="en">\\r\\n\\r\\n\', escape=False)\nstatic_default=\'site/ghephang/template/default\'\nresponse.write(\'\\r\\n\', escape=False)\nstatic_view=\'site/ghephang/default\'\nresponse.write(\'\\r\\n\', escape=False)\nresponse.write(\'\\r\\n    \', escape=False)\nis_page = "page"\nresponse.write(\'\\r\\n    \', escape=False)\nclass_top = ""\nresponse.write(\'\\r\\n\', escape=False)\nresponse.write(\'\\r\\n\\r\\n<head>\\r\\n    <!-- Google Tag Manager -->\\r\\n    <script>(function (w, d, s, l, i) { w[l] = w[l] || []; w[l].push({ \\\'gtm.start\\\': new Date().getTime(), event: \\\'gtm.js\\\' }); var f = d.getElementsByTagName(s)[0], j = d.createElement(s), dl = l != \\\'dataLayer\\\' ? \\\'&l=\\\' + l : \\\'\\\'; j.async = true; j.src = \\\'https://www.googletagmanager.com/gtm.js?id=\\\' + i + dl; f.parentNode.insertBefore(j, f); })(window, document, \\\'script\\\', \\\'dataLayer\\\', \\\'GTM-WW5LW767\\\');</script>\\r\\n    <!-- End Google Tag Manager -->\\r\\n    <!-- Required meta tags -->\\r\\n    <meta charset="utf-8">\\r\\n    <meta name="viewport" content="width=device-width, initial-scale=1, shrink-to-fit=no">\\r\\n    \', escape=False)\nresponse.write(cms.metadc())\nresponse.write(\'\\r\\n    <!-- Bootstrap Min CSS -->\\r\\n    <link rel="stylesheet" href="\', escape=False)\nresponse.write(URL(\'static\',\'%s/css\')%(static_default))\nresponse.write(\'/bootstrap.min.css">\\r\\n    <!-- Owl Theme Default Min CSS -->\\r\\n    <link rel="stylesheet" href="\', escape=False)\nresponse.write(URL(\'static\',\'%s/css\')%(static_default))\nresponse.write(\'/owl.theme.default.min.css">\\r\\n    <!-- Owl Carousel Min CSS -->\\r\\n    <link rel="stylesheet" href="\', escape=False)\nresponse.write(URL(\'static\',\'%s/css\')%(static_default))\nresponse.write(\'/owl.carousel.min.css">\\r\\n    <!-- Owl Magnific Min CSS -->\\r\\n    <link rel="stylesheet" href="\', escape=False)\nresponse.write(URL(\'static\',\'%s/css\')%(static_default))\nresponse.write(\'/magnific-popup.min.css">\\r\\n    <!-- Animate Min CSS -->\\r\\n    <link rel="stylesheet" href="\', escape=False)\nresponse.write(URL(\'static\',\'%s/css\')%(static_default))\nresponse.write(\'/animate.min.css">\\r\\n    <!-- Boxicons Min CSS -->\\r\\n    <link rel="stylesheet" href="\', escape=False)\nresponse.write(URL(\'static\',\'%s/css\')%(static_default))\nresponse.write(\'/boxicons.min.css">\\r\\n    <!-- Flaticon CSS -->\\r\\n    <link rel="stylesheet" href="\', escape=False)\nresponse.write(URL(\'static\',\'%s/css\')%(static_default))\nresponse.write(\'/flaticon.css">\\r\\n    <!-- Meanmenu Min CSS -->\\r\\n    <link rel="stylesheet" href="\', escape=False)\nresponse.write(URL(\'static\',\'%s/css\')%(static_default))\nresponse.write(\'/meanmenu.min.css">\\r\\n    <!-- Nice Select Min CSS -->\\r\\n    <!-- <link rel="stylesheet" href="\', escape=False)\nresponse.write(URL(\'static\',\'%s/css\')%(static_default))\nresponse.write(\'/nice-select.min.css"> -->\\r\\n    <!-- Odometer Min CSS-->\\r\\n    <link rel="stylesheet" href="\', escape=False)\nresponse.write(URL(\'static\',\'%s/css\')%(static_default))\nresponse.write(\'/odometer.min.css">\\r\\n    <!-- Style CSS -->\\r\\n    <link rel="stylesheet" href="\', escape=False)\nresponse.write(URL(\'static\',\'%s/css\')%(static_default))\nresponse.write(\'/style.css">\\r\\n    <!-- Dark CSS -->\\r\\n    <link rel="stylesheet" href="\', escape=False)\nresponse.write(URL(\'static\',\'%s/css\')%(static_default))\nresponse.write(\'/dark.css">\\r\\n    <!-- Responsive CSS -->\\r\\n    <link rel="stylesheet" href="\', escape=False)\nresponse.write(URL(\'static\',\'%s/css\')%(static_default))\nresponse.write(\'/responsive.css">\\r\\n    <script src="https://cdn.emailjs.com/dist/email.min.js"></script>\\r\\n    \', escape=False)\nresponse.write(\'\\r\\n    \', escape=False)\nresponse.write(\'\\r\\n    \', escape=False)\nresponse.write(\'\\r\\n<script type="text/javascript"><!--\\r\\n    // These variables are used by the web2py_ajax_init function in web2py_ajax.js (which is loaded below).\\r\\n    var w2p_ajax_confirm_message = "\', escape=False)\nresponse.write(T(\'Are you sure you want to delete this object?\'))\nresponse.write(\'";\\r\\n    var w2p_ajax_disable_with_message = "\', escape=False)\nresponse.write(T(\'Working...\'))\nresponse.write(\'";\\r\\n    var w2p_ajax_date_format = "\', escape=False)\nresponse.write(T(\'%d/%m/%Y\'))\nresponse.write(\'";\\r\\n    var w2p_ajax_datetime_format = "\', escape=False)\nresponse.write(T(\'%d/%m/%Y %H:%M:%S\'))\nresponse.write(\'";\\r\\n    var ajax_error_500 = \\\'\', escape=False)\nresponse.write(T.M(\'An error occured, please [[reload %s]] the page\') % URL(args=request.args, vars=request.get_vars))\nresponse.write("\'\\r\\n    //--></script>\\r\\n", escape=False)\nresponse.files.insert(0,URL(\'static\',\'js/jquery.js\'))\nresponse.files.insert(1,URL(\'static\',\'css/calendar.css\'))\nresponse.files.insert(2,URL(\'static\',\'js/calendar.js\'))\nresponse.files.insert(3,URL(\'static\',\'js/web2py.js\'))\nresponse.files.insert(3,URL(\'static\',\'js/jquery.browser.min.js\'))\nresponse.include_meta()\nresponse.include_files()\nresponse.write(\'\\r\\n\', escape=False)\nresponse.write(\'\\r\\n    <!-- Favicon -->\\r\\n    <!-- Title -->\\r\\n    <style>\\r\\n        body {\\r\\n            font-family: \\\'Cabin\\\', sans-serif;\\r\\n            margin: 0;\\r\\n            padding: 0;\\r\\n            box-sizing: border-box;\\r\\n            background-color: #f5f5f5;\\r\\n        }\\r\\n\\r\\n        .navbar-nav .nav-link.active {\\r\\n\\r\\n            color: #fa4612 !important;\\r\\n        }\\r\\n\\r\\n        .app-form {\\r\\n            display: flex;\\r\\n            justify-content: center;\\r\\n            align-items: center;\\r\\n            flex-direction: row;\\r\\n            /* Hi\\xe1\\xbb\\x83n th\\xe1\\xbb\\x8b ngang m\\xe1\\xba\\xb7c \\xc4\\x91\\xe1\\xbb\\x8bnh */\\r\\n        }\\r\\n\\r\\n        .app-form-1 {\\r\\n            flex-shrink: 0;\\r\\n            margin: 20px;\\r\\n            padding: 15px 0;\\r\\n            background-color: rgba(241, 243, 244, 0.8);\\r\\n            display: flex;\\r\\n            flex-direction: column;\\r\\n            justify-content: center;\\r\\n            align-items: center;\\r\\n            box-sizing: border-box;\\r\\n            width: 400px;\\r\\n            /* Gi\\xc3\\xa1 tr\\xe1\\xbb\\x8b m\\xe1\\xba\\xb7c \\xc4\\x91\\xe1\\xbb\\x8bnh */\\r\\n            border-radius: 30px;\\r\\n        }\\r\\n\\r\\n        .app-form-mobile {\\r\\n            display: flex;\\r\\n            justify-content: center;\\r\\n            align-items: center;\\r\\n            flex-shrink: 0;\\r\\n            margin: 20px;\\r\\n            background-color: rgba(241, 243, 244, 0.8);\\r\\n            box-sizing: border-box;\\r\\n            max-width: 500px;\\r\\n            /* Gi\\xc3\\xa1 tr\\xe1\\xbb\\x8b m\\xe1\\xba\\xb7c \\xc4\\x91\\xe1\\xbb\\x8bnh */\\r\\n            border-radius: 30px;\\r\\n        }\\r\\n\\r\\n        /* C\\xc3\\xa1c k\\xc3\\xadch th\\xc6\\xb0\\xe1\\xbb\\x9bc kh\\xc3\\xa1c nhau */\\r\\n        @media (min-width: 601px) {\\r\\n            .app-form-1 {\\r\\n                width: 600px;\\r\\n                /* Khi m\\xc3\\xa0n h\\xc3\\xacnh r\\xe1\\xbb\\x99ng h\\xc6\\xa1n 600px */\\r\\n            }\\r\\n        }\\r\\n\\r\\n        @media (max-width: 1245px) {\\r\\n            .app-form-1 {\\r\\n                width: 500px;\\r\\n                /* Khi m\\xc3\\xa0n h\\xc3\\xacnh nh\\xe1\\xbb\\x8f h\\xc6\\xa1n 1245px */\\r\\n            }\\r\\n        }\\r\\n\\r\\n        @media (max-width: 960px) {\\r\\n            .app-form-1 {\\r\\n                width: 400px;\\r\\n                /* Khi m\\xc3\\xa0n h\\xc3\\xacnh nh\\xe1\\xbb\\x8f h\\xc6\\xa1n 960px */\\r\\n            }\\r\\n        }\\r\\n\\r\\n        @media (max-width: 843px) {\\r\\n            .app-form-1 {\\r\\n                width: 350px;\\r\\n                /* Khi m\\xc3\\xa0n h\\xc3\\xacnh nh\\xe1\\xbb\\x8f h\\xc6\\xa1n 843px */\\r\\n            }\\r\\n        }\\r\\n\\r\\n        .icon-button-app {\\r\\n            display: flex;\\r\\n            /* Hi\\xe1\\xbb\\x83n th\\xe1\\xbb\\x8b c\\xc3\\xa1c li\\xc3\\xaan k\\xe1\\xba\\xbft t\\xe1\\xba\\xa3i \\xe1\\xbb\\xa9ng d\\xe1\\xbb\\xa5ng */\\r\\n            gap: 10px;\\r\\n            /* Kho\\xe1\\xba\\xa3ng c\\xc3\\xa1ch gi\\xe1\\xbb\\xafa c\\xc3\\xa1c li\\xc3\\xaan k\\xe1\\xba\\xbft */\\r\\n            align-items: center;\\r\\n            /* C\\xc4\\x83n gi\\xe1\\xbb\\xafa c\\xc3\\xa1c li\\xc3\\xaan k\\xe1\\xba\\xbft d\\xe1\\xbb\\x8dc theo tr\\xe1\\xbb\\xa5c ch\\xc3\\xadnh */\\r\\n        }\\r\\n\\r\\n        .app-download-btn {\\r\\n            display: none;\\r\\n            /* \\xe1\\xba\\xa8n n\\xc3\\xbat t\\xe1\\xba\\xa3i \\xe1\\xbb\\xa9ng d\\xe1\\xbb\\xa5ng theo m\\xe1\\xba\\xb7c \\xc4\\x91\\xe1\\xbb\\x8bnh */\\r\\n        }\\r\\n\\r\\n        .app {\\r\\n            display: none;\\r\\n        }\\r\\n\\r\\n        /* Khi m\\xc3\\xa0n h\\xc3\\xacnh nh\\xe1\\xbb\\x8f h\\xc6\\xa1n 768px */\\r\\n        @media (max-width: 768px) {\\r\\n            .app-form {\\r\\n                display: none;\\r\\n                flex-direction: column;\\r\\n                /* Hi\\xe1\\xbb\\x83n th\\xe1\\xbb\\x8b c\\xc3\\xa1c ph\\xe1\\xba\\xa7n t\\xe1\\xbb\\xad theo chi\\xe1\\xbb\\x81u d\\xe1\\xbb\\x8dc */\\r\\n            }\\r\\n\\r\\n            .app {\\r\\n                display: block;\\r\\n            }\\r\\n\\r\\n            .app-form-1 {\\r\\n                width: 100%;\\r\\n                max-width: none;\\r\\n            }\\r\\n\\r\\n            .icon-button-app1 {\\r\\n                display: none;\\r\\n                /* \\xe1\\xba\\xa8n c\\xc3\\xa1c li\\xc3\\xaan k\\xe1\\xba\\xbft t\\xe1\\xba\\xa3i \\xe1\\xbb\\xa9ng d\\xe1\\xbb\\xa5ng tr\\xc3\\xaan m\\xc3\\xa0n h\\xc3\\xacnh nh\\xe1\\xbb\\x8f */\\r\\n            }\\r\\n\\r\\n            .app-download-btn {\\r\\n                display: block;\\r\\n                /* Hi\\xe1\\xbb\\x83n th\\xe1\\xbb\\x8b n\\xc3\\xbat t\\xe1\\xba\\xa3i \\xe1\\xbb\\xa9ng d\\xe1\\xbb\\xa5ng tr\\xc3\\xaan m\\xc3\\xa0n h\\xc3\\xacnh nh\\xe1\\xbb\\x8f */\\r\\n                background-color: #f8f8f8;\\r\\n                border: none;\\r\\n                padding: 10px 20px;\\r\\n                margin: 10px auto;\\r\\n                font-size: 16px;\\r\\n                color: #333;\\r\\n                cursor: pointer;\\r\\n                border-radius: 5px;\\r\\n                text-align: center;\\r\\n                text-transform: uppercase;\\r\\n            }\\r\\n\\r\\n            .app-download-btn:hover {\\r\\n                background-color: #e8e8e8;\\r\\n            }\\r\\n        }\\r\\n\\r\\n        /* Khi m\\xc3\\xa0n h\\xc3\\xacnh l\\xe1\\xbb\\x9bn h\\xc6\\xa1n 768px */\\r\\n        @media (min-width: 769px) {\\r\\n            .app-download-btn {\\r\\n                display: none;\\r\\n                /* \\xe1\\xba\\xa8n n\\xc3\\xbat t\\xe1\\xba\\xa3i \\xe1\\xbb\\xa9ng d\\xe1\\xbb\\xa5ng */\\r\\n            }\\r\\n\\r\\n\\r\\n        }\\r\\n\\r\\n        .text-1 {\\r\\n            text-align: center;\\r\\n            display: block;\\r\\n            font-size: 30px;\\r\\n            color: #3C3C3B;\\r\\n        }\\r\\n\\r\\n        .text-2 {\\r\\n            text-align: center;\\r\\n            display: block;\\r\\n            font-size: 20px;\\r\\n            color: #3C3C3B;\\r\\n        }\\r\\n\\r\\n\\r\\n        .icon-button {\\r\\n            display: flex;\\r\\n            justify-content: center;\\r\\n            align-items: center;\\r\\n            margin: 15px;\\r\\n            max-width: 100%;\\r\\n            gap: 10px;\\r\\n        }\\r\\n\\r\\n        .images-logo {\\r\\n            width: 150px;\\r\\n            display: block;\\r\\n            margin: 10px auto;\\r\\n            overflow: hidden;\\r\\n            border-radius: 11px;\\r\\n        }\\r\\n\\r\\n        .images-logo img {\\r\\n            max-width: 150px;\\r\\n            height: auto;\\r\\n        }\\r\\n\\r\\n        .images-logo-1 img {\\r\\n            display: block;\\r\\n            margin: 10px auto;\\r\\n            overflow: hidden;\\r\\n            border-radius: 32px;\\r\\n            max-width: 150px;\\r\\n            height: auto;\\r\\n        }\\r\\n\\r\\n        .icon-button-app {\\r\\n            width: 150px;\\r\\n            margin: 0 5px;\\r\\n            display: flex;\\r\\n            gap: 10px;\\r\\n            align-items: center;\\r\\n        }\\r\\n\\r\\n        .search-wrap .container {\\r\\n            margin-top: 50px;\\r\\n            padding: 60px 40px;\\r\\n            transform: translatey(0);\\r\\n            background: white;\\r\\n        }\\r\\n\\r\\n        .form:not(.open) iframe {\\r\\n            display: none;\\r\\n        }\\r\\n\\r\\n        #overlay {\\r\\n            position: fixed;\\r\\n            display: none;\\r\\n            width: 100%;\\r\\n            height: 100%;\\r\\n            top: 0;\\r\\n            left: 0;\\r\\n            right: 0;\\r\\n            bottom: 0;\\r\\n            background-color: rgba(0, 0, 0, 0.5);\\r\\n            z-index: 2;\\r\\n            cursor: pointer;\\r\\n        }\\r\\n\\r\\n        .floating-action-menu {\\r\\n            bottom: 10px;\\r\\n            right: 10px;\\r\\n            z-index: 999;\\r\\n        }\\r\\n\\r\\n        .text-right {\\r\\n            text-align: right !important;\\r\\n        }\\r\\n\\r\\n        .floating-action-menu>.action-menu {\\r\\n            visibility: hidden;\\r\\n            -webkit-transform: translateY(65px);\\r\\n            transform: translateY(65px);\\r\\n            opacity: 0;\\r\\n            max-height: 0;\\r\\n            overflow: hidden;\\r\\n            -webkit-transition: all 300ms linear;\\r\\n            transition: all 300ms linear;\\r\\n        }\\r\\n\\r\\n        .floating-action {\\r\\n            background-color: #fff;\\r\\n            border-radius: 28px;\\r\\n            margin-top: 5px;\\r\\n            width: -webkit-fit-content;\\r\\n            width: -moz-fit-content;\\r\\n            width: fit-content;\\r\\n            float: right;\\r\\n            clear: both;\\r\\n        }\\r\\n\\r\\n        .floating-action:hover {\\r\\n            background-color: #fff4f3;\\r\\n        }\\r\\n\\r\\n        .floating-action-menu.active>.action-menu {\\r\\n            visibility: visible;\\r\\n            -webkit-transform: translate(0);\\r\\n            transform: translate(0);\\r\\n            opacity: 1;\\r\\n            padding-bottom: 5px;\\r\\n            max-height: 1000px;\\r\\n        }\\r\\n\\r\\n        .floating-action .badge {\\r\\n            font-weight: 400;\\r\\n            font-size: 15px;\\r\\n            line-height: 18px;\\r\\n            color: #1a1a1a;\\r\\n        }\\r\\n\\r\\n        .badge {\\r\\n            display: inline-block;\\r\\n            padding: 0.25em 0.4em;\\r\\n            font-size: 75%;\\r\\n            font-weight: 500;\\r\\n            line-height: 1;\\r\\n            text-align: center;\\r\\n            white-space: nowrap;\\r\\n            vertical-align: baseline;\\r\\n            border-radius: 0.25rem;\\r\\n        }\\r\\n\\r\\n        a.floating-action:hover .badge {\\r\\n            color: #fa4612;\\r\\n        }\\r\\n\\r\\n        .floating-action-menu.active>.action-menu .btn-floating,\\r\\n        .floating-action-menu.active>.action-menu .badge {\\r\\n            -webkit-transform: scale(1);\\r\\n            transform: scale(1);\\r\\n        }\\r\\n\\r\\n        .floating-action-menu>.action-menu .btn-floating,\\r\\n        .floating-action-menu>.action-menu .badge {\\r\\n            -webkit-transform: scale(0.4);\\r\\n            transform: scale(0.4);\\r\\n            -webkit-transition: all 300ms ease-in-out;\\r\\n            transition: all 300ms ease-in-out;\\r\\n        }\\r\\n    </style>\\r\\n    <meta name="zalo-platform-site-verification" content="EFQQUBBhINfPxUCbXUDg65AIxZo-x3LaD3O" />\\r\\n</head>\\r\\n\\r\\n<body>\\r\\n    <!-- Google Tag Manager (noscript) -->\\r\\n    <noscript>\\r\\n        <iframe src="https://www.googletagmanager.com/ns.html?id=GTM-WW5LW767" height="0" width="0"\\r\\n            style="display:none;visibility:hidden">\\r\\n        </iframe>\\r\\n    </noscript>\\r\\n    <!-- End Google Tag Manager (noscript) -->\\r\\n    <!-- Start Preloader Area -->\\r\\n    <div class="preloader">\\r\\n        <div class="lds-ripple">\\r\\n            <div></div>\\r\\n            <div></div>\\r\\n        </div>\\r\\n    </div>\\r\\n    <!-- End Preloader Area -->\\r\\n    \', escape=False)\nresponse.write(\' \', escape=False)\nresponse.write(\'\\r\\n    \', escape=False)\nresponse.write(\'<header class="header-area-four \', escape=False)\nresponse.write(class_top)\nresponse.write(\'">\\r\\n    <!-- Start Top Header Area -->\\r\\n    <div class="header-style-four">\\r\\n        <div class="container">\\r\\n            <div class="row align-items-center">\\r\\n                <div class="col-lg-4 col-md-5">\\r\\n                    <div class="header-left-content">\\r\\n                        <ul>\\r\\n                            <li>\\r\\n                                <a href="tel:1900888678">\\r\\n                                    <i class="bx bx-phone-call"></i>\\r\\n                                    1900.888.678\\r\\n                                </a>\\r\\n                            </li>\\r\\n                            <li>\\r\\n                                <a href="mailto:info@ghephang.com">\\r\\n                                    <i class="bx bx-envelope"></i>\\r\\n                                    [info@ghephang.com]\\r\\n                                </a>\\r\\n                            </li>\\r\\n                        </ul>\\r\\n                    </div>\\r\\n                </div>\\r\\n                <div class="col-lg-8 col-md-7">\\r\\n                    <div class="header-right-content">\\r\\n                        <ul class="additional-link">\\r\\n                            <li>\\r\\n                                <a href="/uu-dai">\\xc6\\xafu \\xc4\\x91\\xc3\\xa3i</a>\\r\\n                            </li>\\r\\n                            <li>\\r\\n                                <a href="/tuyen-dung">Tuy\\xe1\\xbb\\x83n d\\xe1\\xbb\\xa5ng</a>\\r\\n                            </li>\\r\\n                            <li>\\r\\n                                <a href="/faq">C\\xc3\\xa2u h\\xe1\\xbb\\x8fi th\\xc6\\xb0\\xe1\\xbb\\x9dng g\\xe1\\xba\\xb7p</a>\\r\\n                            </li>\\r\\n                        </ul>\\r\\n                        <ul class="social-links">\\r\\n                             \', escape=False)\nresponse.write(\'<li>\\r\\n    <a href="#">\\r\\n        <i class=\\\'bx bxl-twitter\\\'></i>\\r\\n    </a>\\r\\n</li>\\r\\n<li>\\r\\n    <a href="#">\\r\\n        <i class=\\\'bx bxl-facebook\\\'></i>\\r\\n    </a>\\r\\n</li>\\r\\n<li>\\r\\n    <a href="#">\\r\\n        <i class=\\\'bx bxl-instagram\\\'></i>\\r\\n    </a>\\r\\n</li>\\r\\n<li>\\r\\n    <a href="#">\\r\\n        <i class=\\\'bx bxl-linkedin\\\'></i>\\r\\n    </a>\\r\\n</li>\\r\\n\', escape=False)\nresponse.write(\'\\r\\n                        </ul>\\r\\n                    </div>\\r\\n                </div>\\r\\n            </div>\\r\\n        </div>\\r\\n    </div>\\r\\n    <!-- End Top Header Area -->\\r\\n\\r\\n    <!-- Start Prevoz Navbar Area -->\\r\\n    <div class="prevoz-nav-style prevoz-nav-style-four">\\r\\n        <div class="navbar-area">\\r\\n            <!-- Menu For Mobile Device -->\\r\\n            <div class="mobile-nav">\\r\\n                <a href="/trang-chu" class="logo">\\r\\n                    <img src="\', escape=False)\nresponse.write(URL(\'static\',\'%s/img\')%(static_default))\nresponse.write(\'/logo.png" alt="Logo">\\r\\n                </a>\\r\\n            </div>\\r\\n            <!-- Menu For Desktop Device -->\\r\\n            <div class="main-nav">\\r\\n                <nav class="navbar navbar-expand-md navbar-light">\\r\\n                    <div class="container">\\r\\n                        <a class="navbar-brand" href="/trang-chu">\\r\\n                            <img src="\', escape=False)\nresponse.write(URL(\'static\',\'%s/img\')%(static_default))\nresponse.write(\'/logo.png" alt="Logo">\\r\\n                        </a>\\r\\n                        <div class="collapse navbar-collapse mean-menu" id="navbarSupportedContent">\\r\\n                            \', escape=False)\nresponse.write(\'<ul class="navbar-nav mr-auto">\\r\\n    <li class="nav-item">\\r\\n        <a href="/khach-hang" class="nav-link">Kh\\xc3\\xa1ch h\\xc3\\xa0ng</a>\\r\\n    </li>\\r\\n    <li class="nav-item">\\r\\n        <a href="/buu-cuc" class="nav-link">B\\xc6\\xb0u c\\xe1\\xbb\\xa5c</a>\\r\\n    </li>\\r\\n    <li class="nav-item">\\r\\n        <a href="/tai-xe" class="nav-link">T\\xc3\\xa0i x\\xe1\\xba\\xbf</a>\\r\\n    </li>\\r\\n    <li class="nav-item dropdown">\\r\\n        <a href="/tra-van-don" class="nav-link dropdown-toggle">\\r\\n            Ti\\xe1\\xbb\\x87n \\xc3\\xadch\\r\\n            <i class=\\\'bx bx-chevron-down\\\'></i>\\r\\n        </a>\\r\\n        <ul class="dropdown-menu">\\r\\n            <li class="nav-item">\\r\\n                <a href="/tra-van-don" class="nav-link">Tra c\\xe1\\xbb\\xa9u v\\xe1\\xba\\xadn \\xc4\\x91\\xc6\\xa1n</a>\\r\\n            </li>\\r\\n            <li class="nav-item">\\r\\n                <a href="/tim-buu-cuc" class="nav-link">T\\xc3\\xacm b\\xc6\\xb0u c\\xe1\\xbb\\xa5c</a>\\r\\n            </li>\\r\\n        </ul>\\r\\n    </li>\\r\\n    <li class="nav-item dropdown">\\r\\n        <a href="/gioi-thieu" class="nav-link dropdown-toggle">\\r\\n            V\\xe1\\xbb\\x81 ch\\xc3\\xbang t\\xc3\\xb4i\\r\\n            <i class=\\\'bx bx-chevron-down\\\'></i>\\r\\n        </a>\\r\\n        <ul class="dropdown-menu">\\r\\n            <li class="nav-item">\\r\\n                <a href="/gioi-thieu" class="nav-link">V\\xe1\\xbb\\x81 ch\\xc3\\xbang t\\xc3\\xb4i</a>\\r\\n            </li>\\r\\n            <li class="nav-item">\\r\\n                <a href="/faq" class="nav-link">C\\xc3\\xa2u h\\xe1\\xbb\\x8fi th\\xc6\\xb0\\xe1\\xbb\\x9dng g\\xe1\\xba\\xb7p</a>\\r\\n            </li>\\r\\n            <li class="nav-item">\\r\\n                <a href="/tin-tuc-su-kien" class="nav-link">Tin t\\xe1\\xbb\\xa9c s\\xe1\\xbb\\xb1 ki\\xe1\\xbb\\x87n</a>\\r\\n            </li>\\r\\n            <li class="nav-item">\\r\\n                <a href="/lien-he" class="nav-link">Li\\xc3\\xaan h\\xe1\\xbb\\x87</a>\\r\\n            </li>\\r\\n        </ul>\\r\\n    </li>\\r\\n</ul>\\r\\n<script>\\r\\n    document.addEventListener(\\\'DOMContentLoaded\\\', function() {\\r\\n    let currentPath = window.location.pathname;\\r\\n\\r\\n    // Ki\\xe1\\xbb\\x83m tra m\\xe1\\xbb\\xa5c ch\\xc3\\xadnh v\\xc3\\xa0 th\\xc3\\xaam \\\'active\\\' cho m\\xe1\\xbb\\xa5c ph\\xc3\\xb9 h\\xe1\\xbb\\xa3p\\r\\n    document.querySelectorAll(\\\'.navbar-nav .nav-item > .nav-link\\\').forEach(link => {\\r\\n        if (link.getAttribute(\\\'href\\\') === currentPath) {\\r\\n            link.classList.add(\\\'active\\\');\\r\\n        }\\r\\n    });\\r\\n\\r\\n    // Ki\\xe1\\xbb\\x83m tra c\\xc3\\xa1c m\\xe1\\xbb\\xa5c con v\\xc3\\xa0 th\\xc3\\xaam \\\'active\\\' cho m\\xe1\\xbb\\xa5c ph\\xc3\\xb9 h\\xe1\\xbb\\xa3p\\r\\n    document.querySelectorAll(\\\'.navbar-nav .dropdown-menu .nav-link\\\').forEach(link => {\\r\\n        if (link.getAttribute(\\\'href\\\') === currentPath) {\\r\\n            link.classList.add(\\\'active\\\');\\r\\n            // Th\\xc3\\xaam \\\'active\\\' cho m\\xe1\\xbb\\xa5c cha\\r\\n            link.closest(\\\'.dropdown\\\').querySelector(\\\'.nav-link\\\').classList.add(\\\'active\\\');\\r\\n        }\\r\\n    });\\r\\n});\\r\\n</script>\\r\\n\', escape=False)\nresponse.write(\'\\r\\n                            <!-- Start Other Option -->\\r\\n                            <div class="others-option">\\r\\n                                <div class="search-wrap">\\r\\n                                    <a href="/tra-van-don">\\r\\n                                    <!--<a href=".search">-->\\r\\n                                        <i class=\\\'bx bx-search\\\'></i>\\r\\n                                    </a>\\r\\n                                </div>\\r\\n                                <!-- <button type="button" class="sidebar-menu" data-bs-toggle="modal"\\r\\n                                    data-bs-target="#myModal2">\\r\\n                                    <i class="flaticon-menu"></i>\\r\\n                                </button> -->\\r\\n                                <!-- <a class="default-btn" href="/tao-don"> -->\\r\\n                                    <!-- T\\xe1\\xba\\xa1o \\xc4\\x91\\xc6\\xa1n -->\\r\\n                                <!-- </a> -->\\r\\n<!-- \\r\\n                                <div class="dark-switch">\\r\\n                                    <div class="switch-box">\\r\\n                                        <label id="switch" class="switch">\\r\\n                                            <input type="checkbox" onchange="toggleTheme()" id="slider">\\r\\n                                            <span class="slider round"></span>\\r\\n                                        </label>\\r\\n                                    </div>\\r\\n                                </div> -->\\r\\n                            </div>\\r\\n                            <!-- End Other Option -->\\r\\n                        </div>\\r\\n                    </div>\\r\\n                </nav>\\r\\n            </div>\\r\\n        </div>\\r\\n    </div>\\r\\n    <!-- End Prevoz Navbar Area -->\\r\\n</header>\', escape=False)\nresponse.write(\'\\r\\n    <!-- Start Header Area -->\\r\\n    \', escape=False)\nresponse.write(\'<!-- Start Sidebar Modal -->\\r\\n<div class="sidebar-modal">\\r\\n    <div class="modal right fade" id="myModal2" tabindex="-1" role="dialog" aria-labelledby="myModalLabel2">\\r\\n        <div class="modal-dialog" role="document">\\r\\n            <div class="modal-content">\\r\\n                <div class="modal-header">\\r\\n                    <button type="button" class="close" data-bs-dismiss="modal" aria-label="Close">\\r\\n                        <span aria-hidden="true">\\r\\n                            <i class="bx bx-x"></i>\\r\\n                        </span>\\r\\n                    </button>\\r\\n                    </button>\\r\\n                    <h2 class="modal-title" id="myModalLabel2">\\r\\n                        <a href="/trang-chu">\\r\\n                            <img src="\', escape=False)\nresponse.write(URL(\'static\',\'%s/img\')%(static_default))\nresponse.write(\'/logo.png" alt="Logo">\\r\\n                        </a>\\r\\n                    </h2>\\r\\n                </div>\\r\\n                <div class="modal-body">\\r\\n                    <div class="sidebar-modal-widget">\\r\\n                        <h3 class="title">Th\\xc3\\xb4ng tin v\\xe1\\xbb\\x81 ch\\xc3\\xbang t\\xc3\\xb4i</h3>\\r\\n                        <p><b>Ghephang.com</b> v\\xe1\\xbb\\x9bi mong mu\\xe1\\xbb\\x91n \\xc4\\x91\\xc6\\xa1n gi\\xe1\\xba\\xa3n h\\xc3\\xb3a vi\\xe1\\xbb\\x87c giao h\\xc3\\xa0ng, gi\\xc3\\xbap c\\xc3\\xa1c ch\\xe1\\xbb\\xa7 c\\xe1\\xbb\\xada h\\xc3\\xa0ng, c\\xc3\\xa1c nh\\xc3\\xa0 h\\xc3\\xa0ng \\xc4\\x91\\xe1\\xba\\xbfn c\\xc3\\xa1c c\\xc3\\xb4ng ty t\\xe1\\xba\\xa1i Vi\\xe1\\xbb\\x87t Nam\\r\\n                        c\\xc3\\xb3 th\\xe1\\xbb\\x83 t\\xe1\\xba\\xadn h\\xc6\\xb0\\xe1\\xbb\\x9fng m\\xe1\\xbb\\x99t d\\xe1\\xbb\\x8bch v\\xe1\\xbb\\xa5 cao c\\xe1\\xba\\xa5p ti\\xe1\\xbb\\x87n l\\xe1\\xbb\\xa3i nh\\xc6\\xb0ng v\\xe1\\xbb\\x9bi gi\\xe1\\xba\\xa3 c\\xe1\\xba\\xa3 h\\xe1\\xbb\\xa3p l\\xc3\\xbd.</p>\\r\\n                    </div>\\r\\n                    <div class="sidebar-modal-widget">\\r\\n                        <h3 class="title">Li\\xc3\\xaan k\\xe1\\xba\\xbft b\\xe1\\xbb\\x95 sung</h3>\\r\\n                        <ul>\\r\\n                            <li>\\r\\n                                <a href="#">\\xc4\\x90\\xc4\\x83ng nh\\xe1\\xba\\xadp</a>\\r\\n                            </li>\\r\\n                            <li>\\r\\n                                <a href="#">\\xc4\\x90\\xc4\\x83ng k\\xc3\\xbd ngay</a>\\r\\n                            </li>\\r\\n                            <li>\\r\\n                                <a href="/faq">FAQ</a>\\r\\n                            </li>\\r\\n                            <li>\\r\\n                                <a href="#">\\xc4\\x90\\xc4\\x83ng xu\\xe1\\xba\\xa5t</a>\\r\\n                            </li>\\r\\n                        </ul>\\r\\n                    </div>\\r\\n                    <div class="sidebar-modal-widget">\\r\\n                        <h3 class="title">Contact Info</h3>\\r\\n                        <ul class="contact-info">\\r\\n                            <li>\\r\\n                                <i class="bx bx-location-plus"></i>\\r\\n                                \\xc4\\x90\\xe1\\xbb\\x8ba ch\\xe1\\xbb\\x89\\r\\n                                <span>New York - 1060, Str. First 78 Great Western Road</span>\\r\\n                            </li>\\r\\n                            <li>\\r\\n                                <i class="bx bx-envelope"></i>\\r\\n                                Email\\r\\n                                <a\\r\\n                                    href="mailto:info@ghephang.com"><span\\r\\n                                        class="__cf_email__">[info@ghephang.com]</span></a>\\r\\n                                <a\\r\\n                                    href="mailto:info@ghephang.com"><span\\r\\n                                        class="__cf_email__" >[info@ghephang.com]</span></a>\\r\\n                            </li>\\r\\n                            <li>\\r\\n                                <i class="bx bxs-phone-call"></i>\\r\\n                                Phone\\r\\n                                <a href="tel:0356 656 777">0356 656 777</a>\\r\\n                                <a href="tel:0356 656 777">0356 656 777</a>\\r\\n                            </li>\\r\\n                        </ul>\\r\\n                    </div>\\r\\n                    <div class="sidebar-modal-widget">\\r\\n                        <h3 class="title">K\\xe1\\xba\\xbft n\\xe1\\xbb\\x91i v\\xe1\\xbb\\x9bi ch\\xc3\\xbang t\\xc3\\xb4i</h3>\\r\\n                        <ul class="social-list">\\r\\n                            \', escape=False)\nresponse.write(\'<li>\\r\\n    <a href="#">\\r\\n        <i class=\\\'bx bxl-twitter\\\'></i>\\r\\n    </a>\\r\\n</li>\\r\\n<li>\\r\\n    <a href="#">\\r\\n        <i class=\\\'bx bxl-facebook\\\'></i>\\r\\n    </a>\\r\\n</li>\\r\\n<li>\\r\\n    <a href="#">\\r\\n        <i class=\\\'bx bxl-instagram\\\'></i>\\r\\n    </a>\\r\\n</li>\\r\\n<li>\\r\\n    <a href="#">\\r\\n        <i class=\\\'bx bxl-linkedin\\\'></i>\\r\\n    </a>\\r\\n</li>\\r\\n\', escape=False)\nresponse.write(\'\\r\\n                        </ul>\\r\\n                    </div>\\r\\n                </div>\\r\\n            </div>\\r\\n        </div>\\r\\n    </div>\\r\\n</div>\\r\\n<!-- End Sidebar Modal -->\', escape=False)\nresponse.write(\'\\r\\n\\r\\n    <!-- Start Search Box Modal -->\\r\\n    \', escape=False)\nresponse.write(\'<!-- Start Search Box Modal -->\\r\\n<div class="search-wrap hiden-load"  style="display: none;">\\r\\n    <div class="search">\\r\\n        <button type="button" class="close">\\xc3\\x97</button>\\r\\n        <form>\\r\\n            <input type="search" value="" class="form-control" placeholder="Type Here..." />\\r\\n            <button type="submit" class="default-btn">\\r\\n                Search\\r\\n            </button>\\r\\n        </form>\\r\\n    </div>\\r\\n</div>\\r\\n<!-- End Search Box Modal -->\\r\\n\\r\\n\\r\\n\', escape=False)\nresponse.write(\'\\r\\n    <!-- End Search Box Modal -->\\r\\n\\r\\n    <div>\\r\\n        \', escape=False)\nresponse.write(\'\\r\\n\', escape=False)\npage_title =\'T\xc3\xa0i x\xe1\xba\xbf\'\nresponse.write(\'\\r\\n\', escape=False)\ndata = {\n\'dis\': \'\xc4\x90\xe1\xbb\x91i t\xc3\xa1c giao h\xc3\xa0ng \xc4\x91\xc3\xa1ng tin c\xe1\xba\xady c\xe1\xbb\xa7a b\xe1\xba\xa1n\',\n\'title\': \'Tr\xe1\xbb\x9f th\xc3\xa0nh \xc4\x91\xe1\xbb\x91i t\xc3\xa1c t\xc3\xa0i x\xe1\xba\xbf c\xe1\xbb\xa7a GhepHang.\',\n\'content\': P(\'Th\xc3\xaam thu nh\xe1\xba\xadp, ch\xe1\xbb\xa7 \xc4\x91\xe1\xbb\x99ng c\xc3\xb4ng vi\xe1\xbb\x87c, linh ho\xe1\xba\xa1t th\xe1\xbb\x9di gian khi tr\xe1\xbb\x9f th\xc3\xa0nh \xc4\x91\xe1\xbb\x91i t\xc3\xa1c t\xc3\xa0i x\xe1\xba\xbf Ghephang. H\xc3\xa3y \xc4\x91i\xe1\xbb\x81n\nth\xc3\xb4ng tin c\xe1\xbb\xa7a b\xe1\xba\xa1n \xc4\x91\xe1\xbb\x83 \xc4\x91\xc4\x83ng k\xc3\xad ngay nh\xc3\xa9!\')+\nP(\'H\xc3\xa3y bi\xe1\xba\xbfn chi\xe1\xba\xbfc xe c\xe1\xbb\xa7a b\xe1\xba\xa1n tr\xe1\xbb\x9f th\xc3\xa0nh c\xc3\xb4ng c\xe1\xbb\xa5 ki\xe1\xba\xbfm ti\xe1\xbb\x81n hi\xe1\xbb\x87u qu\xe1\xba\xa3. V\xe1\xbb\x9bi s\xe1\xbb\xb1 ph\xc3\xa1t tri\xe1\xbb\x83n nhanh ch\xc3\xb3ng v\xe1\xbb\x81 s\xe1\xbb\x91 l\xc6\xb0\xe1\xbb\xa3ng ng\xc6\xb0\xe1\xbb\x9di mua\ns\xe1\xba\xafm tr\xe1\xbb\xb1c tuy\xe1\xba\xbfn tr\xc3\xaan to\xc3\xa0n th\xc3\xa0nh ph\xe1\xbb\x91, nhu c\xe1\xba\xa7u giao nh\xe1\xba\xadn h\xc3\xa0ng ho\xc3\xa1 c\xc5\xa9ng v\xc3\xac v\xe1\xba\xady m\xc3\xa0 t\xc4\x83ng cao h\xc6\xa1n bao gi\xe1\xbb\x9d h\xe1\xba\xbft. Ghephang gi\xc3\xbap\nb\xe1\xba\xa1n c\xc3\xb3 \xc4\x91\xc6\xb0\xe1\xbb\xa3c thu nh\xe1\xba\xadp t\xe1\xbb\x91t khi giao nh\xe1\xba\xadn h\xc3\xa0ng ho\xc3\xa1 cho ch\xc3\xbang t\xc3\xb4i.\'),\n\'img\': \'about-img-six.png\',\n\'video\': \'https://www.youtube.com/watch?v=kWltTADSvdk\',\n\'benefit\': [\n{\n\'title\': \'T\xc4\x83ng th\xc3\xaam thu nh\xe1\xba\xadp\',\n\'content\': \'T\xc4\x83ng th\xc3\xaam thu nh\xe1\xba\xadp m\xe1\xbb\x97i th\xc3\xa1ng t\xe1\xbb\xab nh\xe1\xbb\xafng \xc4\x91\xc6\xa1n giao h\xc3\xa0ng. Nh\xe1\xba\xadn ti\xe1\xbb\x81n ngay sau m\xe1\xbb\x97i \xc4\x91\xc6\xa1n ho\xc3\xa0n th\xc3\xa0nh.\',\n\'img\': I(_class=\'bx bxs-dollar-circle\')\n},\n{\n\'title\': \'Ch\xe1\xbb\xa7 \xc4\x91\xe1\xbb\x99ng c\xc3\xb4ng vi\xe1\xbb\x87c\',\n\'content\': \'T\xe1\xbb\xb1 do l\xe1\xbb\xb1a ch\xe1\xbb\x8dn bao nhi\xc3\xaau \xc4\x91\xc6\xa1n h\xc3\xa0ng t\xc3\xb9y th\xc3\xadch b\xe1\xba\xb1ng c\xc3\xa1ch l\xc3\xa0m vi\xe1\xbb\x87c trong th\xe1\xbb\x9di gian r\xe1\xba\xa3nh.\',\n\'img\': I(_class=\'bx bxs-briefcase-alt-2\')\n},\n{\n\'title\': \'Linh \xc4\x91\xe1\xbb\x99ng th\xe1\xbb\x9di gian\',\n\'content\': \'Linh \xc4\x91\xe1\xbb\x99ng l\xe1\xbb\xb1a ch\xe1\xbb\x8dn th\xe1\xbb\x9di gian b\xe1\xba\xa1n mu\xe1\xbb\x91n l\xc3\xa0m vi\xe1\xbb\x87c v\xc3\xa0 \xc4\x91\xc6\xa1n h\xc3\xa0ng m\xc3\xa0 b\xe1\xba\xa1n mu\xe1\xbb\x91n giao.\',\n\'img\': I(_class=\'bx bxs-calendar\')\n}\n]\n}\nresponse.write(\'\\r\\n\\r\\n\', escape=False)\nresponse.write(\'<!-- Start Page Title Area -->\\r\\n<div class="page-title-area item-bg-1 jarallax" data-jarallax=\\\'{"speed": 0.3}\\\'>\\r\\n    <div class="container">\\r\\n        <div class="page-title-content">\\r\\n            <div class="row align-items-center">\\r\\n                <div class="col-lg-6 col-sm-6">\\r\\n                    <h2>\', escape=False)\nresponse.write(page_title)\nresponse.write(\'</h2>\\r\\n                </div>\\r\\n                <div class="col-lg-6 col-sm-6">\\r\\n                    <ul>\\r\\n                        <li>\\r\\n                            <a href="/">\\r\\n                                Trang ch\\xe1\\xbb\\xa7\\r\\n                            </a>\\r\\n                        </li>\\r\\n                        <li>\', escape=False)\nresponse.write(page_title)\nresponse.write(\'</li>\\r\\n                    </ul>\\r\\n                </div>\\r\\n            </div>\\r\\n        </div>\\r\\n    </div>\\r\\n</div>\\r\\n<!-- End Page Title Area -->\', escape=False)\nresponse.write(\'\\r\\n\\r\\n\\r\\n<section class="about-area about-area-two about-area-four about-area-six bg-f7f7f7 ptb-100">\\r\\n    <div class="container">\\r\\n        <div class="row align-items-center">\\r\\n            <div class="col-lg-6">\\r\\n                <div class="about-content">\\r\\n                    <span>\', escape=False)\nresponse.write(data[\'dis\'])\nresponse.write(\'</span>\\r\\n                    <h2>\', escape=False)\nresponse.write(data[\'title\'])\nresponse.write(\'</h2>\\r\\n                    <p>\', escape=False)\nresponse.write(data[\'content\'])\nresponse.write(\'</p>\\r\\n                    <a class="default-btn" href=".form">\\r\\n                        \\xc4\\x90\\xc4\\x82NG K\\xc3\\x9d L\\xc3\\x80M \\xc4\\x90\\xe1\\xbb\\x90I T\\xc3\\x81C T\\xc3\\x80I X\\xe1\\xba\\xbe\\r\\n                    </a>\\r\\n\\r\\n                </div>\\r\\n            </div>\\r\\n\\r\\n\\r\\n\\r\\n\\r\\n            <div class="col-lg-6">\\r\\n                <div class="about-img-six" style="position: relative;">\\r\\n\\r\\n                    <div class="about-img-six">\\r\\n                        <img src="\', escape=False)\nresponse.write(URL(\'static\',\'%s/img\')%(static_default))\nresponse.write(\'/\', escape=False)\nresponse.write(data[\'img\'])\nresponse.write(\'" alt="image">\\r\\n                        <a class="white video-btn popup-youtube" href="\', escape=False)\nresponse.write(data[\'video\'])\nresponse.write(\'" style=" position: absolute;\\r\\n    top: 50%;\\r\\n    left: 45%;\\r\\n    transform: translate(-50%, -50%);\\r\\n    ">\\r\\n                            <i class=\\\'bx bx-play\\\'></i>\\r\\n                        </a>\\r\\n                    </div>\\r\\n                </div>\\r\\n            </div>\\r\\n        </div>\\r\\n    </div>\\r\\n    <div class="lines">\\r\\n        <div class="line-two"></div>\\r\\n        <div class="line-two"></div>\\r\\n        <div class="line-two"></div>\\r\\n    </div>\\r\\n</section>\\r\\n<!-- End About Area -->\\r\\n\\r\\n<!-- Stat Choose Area -->\\r\\n<section class="choose-area pt-100 pb-70">\\r\\n    <div class="container">\\r\\n        <div class="section-title">\\r\\n            <h2>T\\xe1\\xba\\xa1i sao n\\xc3\\xaan l\\xe1\\xbb\\xb1a ch\\xe1\\xbb\\x8dn ch\\xc3\\xbang t\\xc3\\xb4i?</h2>\\r\\n            <p>Chuy\\xe1\\xbb\\x83n ph\\xc3\\xa1t nhanh l\\xc3\\xa0 m\\xe1\\xbb\\x99t d\\xe1\\xbb\\x8bch v\\xe1\\xbb\\xa5 s\\xc3\\xa1ng t\\xe1\\xba\\xa1o l\\xc3\\xa0 gi\\xe1\\xba\\xa3i ph\\xc3\\xa1p h\\xe1\\xba\\xadu c\\xe1\\xba\\xa7n hi\\xe1\\xbb\\x87u qu\\xe1\\xba\\xa3 cho vi\\xe1\\xbb\\x87c v\\xe1\\xba\\xadn chuy\\xe1\\xbb\\x83n h\\xc3\\xa0ng h\\xc3\\xb3a nh\\xe1\\xbb\\x8f.\\r\\n                D\\xe1\\xbb\\x8bch v\\xe1\\xbb\\xa5 n\\xc3\\xa0y r\\xe1\\xba\\xa5t h\\xe1\\xbb\\xafu \\xc3\\xadch cho c\\xc3\\xa1c c\\xc3\\xb4ng ty kh\\xc3\\xa1c nhau...</p>\\r\\n        </div>\\r\\n\\r\\n        <div class="row">\\r\\n            \', escape=False)\nfor item in data[\'benefit\'] :\n    response.write(\'\\r\\n            <div class="col-lg-4 col-sm-6">\\r\\n                <div class="single-choose text-center">\\r\\n                    <div class="choose-head">\\r\\n                        \', escape=False)\n    response.write(item[\'img\'])\n    response.write(\'\\r\\n                        <h3>\', escape=False)\n    response.write(item[\'title\'])\n    response.write(\'</h3>\\r\\n                    </div>\\r\\n                    <div class="choose-content">\\r\\n                        <p class="ellipsis-hidden-3">\', escape=False)\n    response.write(item[\'content\'])\n    response.write(\'</p>\\r\\n\\r\\n                    </div>\\r\\n                </div>\\r\\n            </div>\\r\\n            \', escape=False)\n    pass\nresponse.write(\'\\r\\n        </div>\\r\\n    </div>\\r\\n</section>\\r\\n\\r\\n\\r\\n<!-- Start Counter Area -->\\r\\n<section class="counter-area counter-area-two pt-100 pb-70 jarallax" data-jarallax=\\\'{"speed": 0.3}\\\'\\r\\n    style="margin-bottom: 100px;">\\r\\n    <div class="container">\\r\\n        <div class="row">\\r\\n            <div class="col-lg-3 col-md-6 col-sm-6">\\r\\n                <div class="single-counter">\\r\\n                    <i class="flaticon-box"></i>\\r\\n                    <h2>\\r\\n                        <span class="odometer" data-count="8845">00</span> <span class="traget"></span>\\r\\n                    </h2>\\r\\n                    <p>\\xc4\\x90\\xc6\\xa1n h\\xc3\\xa0ng \\xc4\\x91\\xc3\\xa3 giao</p>\\r\\n                </div>\\r\\n            </div>\\r\\n            <div class="col-lg-3 col-md-6 col-sm-6">\\r\\n                <div class="single-counter">\\r\\n                    <i class="flaticon-planet-earth"></i>\\r\\n                    <h2>\\r\\n                        <span class="odometer" data-count="15">00</span> <span class="traget"></span>\\r\\n                    </h2>\\r\\n                    <p>\\xc4\\x90i\\xe1\\xbb\\x83m nh\\xe1\\xba\\xadn h\\xc3\\xa0ng</p>\\r\\n                </div>\\r\\n            </div>\\r\\n            <div class="col-lg-3 col-md-6 col-sm-6">\\r\\n                <div class="single-counter">\\r\\n                    <i class="flaticon-support"></i>\\r\\n                    <h2>\\r\\n                        <span class="odometer" data-count="12337">00</span> <span class="traget"></span>\\r\\n                    </h2>\\r\\n                    <p>\\xc4\\x90\\xe1\\xbb\\x91i t\\xc3\\xa1c doanh ngi\\xe1\\xbb\\x87p</p>\\r\\n                </div>\\r\\n            </div>\\r\\n            <div class="col-lg-3 col-md-6 col-sm-6">\\r\\n                <div class="single-counter">\\r\\n                    <i class="flaticon-product-realise"></i>\\r\\n                    <h2>\\r\\n                        <span class="odometer" data-count="5316">00</span> <span class="traget"></span>\\r\\n                    </h2>\\r\\n                    <p>\\xc4\\x90\\xe1\\xbb\\x91i t\\xc3\\xa1c t\\xc3\\xa0i x\\xe1\\xba\\xbf</p>\\r\\n                </div>\\r\\n            </div>\\r\\n        </div>\\r\\n    </div>\\r\\n</section>\\r\\n<!-- End Counter Area -->\\r\\n\\r\\n<!-- Start What We Offer Area -->\\r\\n<section class="what-offer-area-two what-offer-area-four pt-100">\\r\\n    <div class="container">\\r\\n        <div class="row align-items-center">\\r\\n            <div class="col-lg-6">\\r\\n                <div class="row">\\r\\n                    <div class="col-lg-6 col-sm-6" style="padding-top:30px">\\r\\n                        <div class="single-offer" style="height:223px">\\r\\n                            <i class="icon flaticon-server"></i>\\r\\n                            <h3>Thu nh\\xe1\\xba\\xadp h\\xe1\\xba\\xa5p d\\xe1\\xba\\xabn</h3>\\r\\n                            <p>B\\xe1\\xba\\xa1n s\\xe1\\xba\\xbd nh\\xe1\\xba\\xadn ti\\xe1\\xbb\\x81n sau m\\xe1\\xbb\\x97i chuy\\xe1\\xba\\xbfn \\xc4\\x91i c\\xc3\\xb9ng v\\xe1\\xbb\\x9bi c\\xc3\\xa1c ch\\xc6\\xb0\\xc6\\xa1ng tr\\xc3\\xacnh th\\xc6\\xb0\\xe1\\xbb\\x9fng h\\xe1\\xba\\xa5p d\\xe1\\xba\\xabn kh\\xc3\\xa1c.</p>\\r\\n                        </div>\\r\\n                    </div>\\r\\n                    <div class="col-lg-6 col-sm-6">\\r\\n                        <div class="single-offer" style="height:223px">\\r\\n                            <i class="icon flaticon-air-freight"></i>\\r\\n                            <h3>T\\xe1\\xbb\\xb1 do qu\\xe1\\xba\\xa3n l\\xc3\\xbd th\\xe1\\xbb\\x9di gian</h3>\\r\\n                            <p>B\\xe1\\xba\\xa1n s\\xe1\\xba\\xbd c\\xc3\\xb3 quy\\xe1\\xbb\\x81n t\\xe1\\xbb\\xb1 do nh\\xe1\\xba\\xadn c\\xc3\\xa1c \\xc4\\x91\\xc6\\xa1n h\\xc3\\xa0ng \\xc4\\x91\\xe1\\xbb\\x83 ki\\xe1\\xba\\xbfm th\\xc3\\xaam thu nh\\xe1\\xba\\xadp m\\xe1\\xbb\\x97i khi b\\xe1\\xba\\xa1n mu\\xe1\\xbb\\x91n.</p>\\r\\n                        </div>\\r\\n                    </div>\\r\\n                    <div class="col-lg-6 col-sm-6" style="padding-top:30px">\\r\\n                        <div class="single-offer" style="height:320px">\\r\\n                            <i class="icon flaticon-plastic-bottle"></i>\\r\\n                            <h3>\\xc4\\x90\\xc4\\x83ng k\\xc3\\xbd nhanh ch\\xc3\\xb3ng v\\xc3\\xa0 d\\xe1\\xbb\\x85 d\\xc3\\xa0ng</h3>\\r\\n                            <p>Ch\\xe1\\xbb\\x89 c\\xe1\\xba\\xa7n \\xc4\\x91i\\xe1\\xbb\\x81n th\\xc3\\xb4ng tin c\\xe1\\xbb\\xa7a b\\xe1\\xba\\xa1n, ch\\xc3\\xbang t\\xc3\\xb4i s\\xe1\\xba\\xbd li\\xc3\\xaan h\\xe1\\xbb\\x87 ngay \\xc4\\x91\\xe1\\xbb\\x83 h\\xe1\\xbb\\x97 tr\\xe1\\xbb\\xa3 b\\xe1\\xba\\xa1n trong qu\\xc3\\xa1 tr\\xc3\\xacnh\\r\\n                                \\xc4\\x91\\xc4\\x83ng k\\xc3\\xbd.\\r\\n                                H\\xc3\\xa3y \\xc4\\x91\\xe1\\xbb\\x83 Ghephang tr\\xe1\\xbb\\x9f th\\xc3\\xa0nh \\xc4\\x91\\xe1\\xbb\\x91i t\\xc3\\xa1c \\xc4\\x91\\xc3\\xa1ng tin c\\xe1\\xba\\xady c\\xe1\\xbb\\xa7a b\\xe1\\xba\\xa1n v\\xc3\\xa0 gi\\xc3\\xbap b\\xe1\\xba\\xa1n t\\xe1\\xba\\xadn d\\xe1\\xbb\\xa5ng t\\xe1\\xbb\\x91i \\xc4\\x91a ti\\xe1\\xbb\\x81m\\r\\n                                n\\xc4\\x83ng thu nh\\xe1\\xba\\xadp c\\xe1\\xbb\\xa7a m\\xc3\\xacnh.</p>\\r\\n                        </div>\\r\\n                    </div>\\r\\n                    <div class="col-lg-6 col-sm-6">\\r\\n                        <div class="single-offer" style="height:320px">\\r\\n                            <i class="icon flaticon-street"></i>\\r\\n                            <h3>\\xc6\\xafu \\xc4\\x91\\xc3\\xa3i & \\xc4\\x91\\xe1\\xba\\xb7c quy\\xe1\\xbb\\x81n</h3>\\r\\n                            <p>Nh\\xe1\\xba\\xadn th\\xc3\\xaam qu\\xc3\\xa0 t\\xe1\\xba\\xb7ng c\\xc3\\xb9ng \\xc6\\xb0u \\xc4\\x91\\xc3\\xa3i h\\xe1\\xba\\xa5p d\\xe1\\xba\\xabn cho c\\xc3\\xa1c th\\xc3\\xa0nh vi\\xc3\\xaan GhepHang, bao g\\xe1\\xbb\\x93m g\\xc3\\xb3i b\\xe1\\xba\\xa3o hi\\xe1\\xbb\\x83m,\\r\\n                                g\\xc3\\xb3i c\\xe1\\xbb\\xa9u h\\xe1\\xbb\\x99 xe m\\xc3\\xa1y, th\\xe1\\xba\\xbb c\\xc3\\xa0o\\r\\n                                \\xc4\\x91i\\xe1\\xbb\\x87n tho\\xe1\\xba\\xa1i,...</p>\\r\\n                        </div>\\r\\n                    </div>\\r\\n                </div>\\r\\n            </div>\\r\\n            <div class="col-lg-6">\\r\\n                <div class="what-offer-content">\\r\\n                    <span>Quy\\xe1\\xbb\\x81n l\\xe1\\xbb\\xa3i \\xc4\\x91\\xe1\\xbb\\x91i t\\xc3\\xa1c t\\xc3\\xa0i x\\xe1\\xba\\xbf</span>\\r\\n                    <h2>TR\\xe1\\xbb\\x9e TH\\xc3\\x80NH \\xc4\\x90\\xe1\\xbb\\x90I T\\xc3\\x81C T\\xc3\\x80I X\\xe1\\xba\\xbe C\\xe1\\xbb\\xa6A GHEPHANG</h2>\\r\\n                    <p>Nh\\xe1\\xba\\xadn th\\xc3\\xaam qu\\xc3\\xa0 t\\xe1\\xba\\xb7ng c\\xc3\\xb9ng \\xc6\\xb0u \\xc4\\x91\\xc3\\xa3i h\\xe1\\xba\\xa5p d\\xe1\\xba\\xabn cho c\\xc3\\xa1c th\\xc3\\xa0nh vi\\xc3\\xaan GhepHang, bao g\\xe1\\xbb\\x93m g\\xc3\\xb3i b\\xe1\\xba\\xa3o hi\\xe1\\xbb\\x83m, g\\xc3\\xb3i c\\xe1\\xbb\\xa9u\\r\\n                        h\\xe1\\xbb\\x99 xe m\\xc3\\xa1y, th\\xe1\\xba\\xbb c\\xc3\\xa0o\\r\\n                        \\xc4\\x91i\\xe1\\xbb\\x87n tho\\xe1\\xba\\xa1i,...</p>\\r\\n                    <a class="default-btn" href="#">\\r\\n                        T\\xe1\\xba\\xa5t c\\xe1\\xba\\xa3 d\\xe1\\xbb\\x8bch v\\xe1\\xbb\\xa5\\r\\n                    </a>\\r\\n                </div>\\r\\n            </div>\\r\\n\\r\\n        </div>\\r\\n    </div>\\r\\n</section>\\r\\n<!-- End What We Offer Area -->\\r\\n\\r\\n<div class="pt-70"></div>\\r\\n\\r\\n<!-- start Service Area -->\\r\\n<section class="service-area service-area-two pb-100">\\r\\n    <div class="container">\\r\\n        <div class="section-title">\\r\\n            <span>\\xc4\\x90\\xe1\\xbb\\x93ng h\\xc3\\xa0nh c\\xc3\\xb9ng ch\\xc3\\xbang t\\xc3\\xb4i </span>\\r\\n            <h2>\\xc4\\x90i\\xe1\\xbb\\x81u ki\\xe1\\xbb\\x87n \\xc4\\x91\\xe1\\xbb\\x83 tr\\xe1\\xbb\\x9f th\\xc3\\xa0nh t\\xc3\\xa0i x\\xe1\\xba\\xbf giao h\\xc3\\xa0ng GhepHang</h2>\\r\\n        </div>\\r\\n        <div class="row">\\r\\n            <div class="col-lg-4 col-sm-6">\\r\\n                <div class="single-service">\\r\\n                    <div class="service-content-wrap">\\r\\n                        <i class="icon flaticon-home"></i>\\r\\n                        <h3 class="ellipsis-hidden-2">C\\xc3\\xb3 ph\\xc6\\xb0\\xc6\\xa1ng ti\\xe1\\xbb\\x87n di chuy\\xe1\\xbb\\x83n</h3>\\r\\n                        <p class="ellipsis-hidden-3">S\\xe1\\xbb\\x9f h\\xe1\\xbb\\xafu (ho\\xe1\\xba\\xb7c thu\\xc3\\xaa) xe m\\xc3\\xa1y, xe b\\xc3\\xa1n t\\xe1\\xba\\xa3i / xe van / xe t\\xe1\\xba\\xa3i d\\xc6\\xb0\\xe1\\xbb\\x9bi 2.5\\r\\n                            t\\xe1\\xba\\xa5n (kh\\xc3\\xb4ng c\\xe1\\xba\\xa7n ch\\xc3\\xadnh ch\\xe1\\xbb\\xa7).</p>\\r\\n                    </div>\\r\\n                    <div class="service-heading">\\r\\n                        <a class="circle-read-more" href="service-details.html">\\r\\n                            <h3>C\\xc3\\xb3 ph\\xc6\\xb0\\xc6\\xa1ng ti\\xe1\\xbb\\x87n di chuy\\xe1\\xbb\\x83n</h3>\\r\\n                            <i class="flaticon-right-1"></i>\\r\\n                        </a>\\r\\n                    </div>\\r\\n                </div>\\r\\n            </div>\\r\\n            <div class="col-lg-4 col-sm-6">\\r\\n                <div class="single-service">\\r\\n                    <div class="service-content-wrap">\\r\\n                        <i class="icon flaticon-package"></i>\\r\\n                        <h3 class="ellipsis-hidden-2">C\\xc3\\xb3 \\xc4\\x91i\\xe1\\xbb\\x87n tho\\xe1\\xba\\xa1i th\\xc3\\xb4ng minh</h3>\\r\\n                        <p class="ellipsis-hidden-3">S\\xe1\\xbb\\x9f h\\xe1\\xbb\\xafu \\xc4\\x91i\\xe1\\xbb\\x87n tho\\xe1\\xba\\xa1i th\\xc3\\xb4ng minh IOS ho\\xe1\\xba\\xb7c Android</p>\\r\\n                    </div>\\r\\n                    <div class="service-heading">\\r\\n                        <a class="circle-read-more" href="service-details.html">\\r\\n                            <h3>C\\xc3\\xb3 \\xc4\\x91i\\xe1\\xbb\\x87n tho\\xe1\\xba\\xa1i th\\xc3\\xb4ng minh</h3>\\r\\n                            <i class="flaticon-right-1"></i>\\r\\n                        </a>\\r\\n                    </div>\\r\\n                </div>\\r\\n            </div>\\r\\n            <div class="col-lg-4 col-sm-6 offset-sm-3 offset-lg-0">\\r\\n                <div class="single-service">\\r\\n                    <div class="service-content-wrap">\\r\\n                        <i class="icon flaticon-server"></i>\\r\\n                        <h3 class="ellipsis-hidden-2">C\\xc3\\xb3 gi\\xe1\\xba\\xa5y ph\\xc3\\xa9p c\\xc6\\xb0 tr\\xc3\\xba v\\xc3\\xa0 ch\\xe1\\xbb\\xa9ng nh\\xe1\\xba\\xadn qu\\xe1\\xbb\\x91c t\\xe1\\xbb\\x8bch</h3>\\r\\n                        <p class="ellipsis-hidden-3">L\\xc3\\xa0 c\\xc3\\xb4ng d\\xc3\\xa2n Vi\\xe1\\xbb\\x87t Nam c\\xc3\\xb3 \\xc4\\x91\\xe1\\xbb\\x99 tu\\xe1\\xbb\\x95i t\\xe1\\xbb\\xab 18 tr\\xe1\\xbb\\x9f l\\xc3\\xaan</p>\\r\\n                    </div>\\r\\n                    <div class="service-heading">\\r\\n                        <a class="circle-read-more" href="service-details.html">\\r\\n                            <h3>C\\xc3\\xb3 gi\\xe1\\xba\\xa5y ph\\xc3\\xa9p c\\xc6\\xb0 tr\\xc3\\xba v\\xc3\\xa0 ch\\xe1\\xbb\\xa9ng nh\\xe1\\xba\\xadn qu\\xe1\\xbb\\x91c t\\xe1\\xbb\\x8bch</h3>\\r\\n                            <i class="flaticon-right-1"></i>\\r\\n                        </a>\\r\\n                    </div>\\r\\n                </div>\\r\\n            </div>\\r\\n            <div class="col-12">\\r\\n                <div class="service-all text-center">\\r\\n                    <p>S\\xe1\\xba\\xb5n s\\xc3\\xa0ng gia nh\\xe1\\xba\\xadp \\xc4\\x91\\xe1\\xbb\\x99i ng\\xc5\\xa9 t\\xc3\\xa0i x\\xe1\\xba\\xbf GhepHang?\\r\\n                    </p>\\r\\n                </div>\\r\\n            </div>\\r\\n        </div>\\r\\n    </div>\\r\\n</section>\\r\\n<!-- End Service Area -->\\r\\n\\r\\n\\r\\n\\r\\n\', escape=False)\nresponse.write(\'<!-- Start FAQ Area -->\\r\\n<section class="faq-area ptb-100">\\r\\n    <div class="container">\\r\\n        <div class="section-title">\\r\\n            <span class="pumpkin-color">FAQ</span>\\r\\n            <h2>C\\xc3\\x82U H\\xe1\\xbb\\x8eI TH\\xc6\\xaf\\xe1\\xbb\\x9cNG G\\xe1\\xba\\xb6P</h2>\\r\\n            <p>B\\xe1\\xba\\xa1n c\\xc3\\xb3 th\\xe1\\xbb\\x83 t\\xc3\\xacm hi\\xe1\\xbb\\x83u th\\xc3\\xb4ng tin v\\xe1\\xbb\\x81 ch\\xc3\\xbang t\\xc3\\xb4i</p>\\r\\n        </div>\\r\\n        <div class="row">\\r\\n            <div class="col-lg-6">\\r\\n                <div class="questions-bg-area">\\r\\n                    <div class="row">\\r\\n                        <div class="col-lg-12">\\r\\n                            <div class="faq-accordion">\\r\\n                                <ul class="accordion">\\r\\n                                    <li class="accordion-item">\\r\\n                                        <a class="accordion-title active" href="javascript:void(0)">\\r\\n                                            <span>1</span>\\r\\n                                            GhepHang c\\xc3\\xb3 d\\xe1\\xbb\\x8bch v\\xe1\\xbb\\xa5 giao h\\xc3\\xa0ng cho doanh nghi\\xe1\\xbb\\x87p kh\\xc3\\xb4ng??\\r\\n                                        </a>\\r\\n                                        <p class="accordion-content show">B\\xe1\\xba\\xa1n h\\xc3\\xa3y y\\xc3\\xaan t\\xc3\\xa2m v\\xc3\\xac ch\\xc3\\xbang t\\xc3\\xb4i \\xc4\\x91ang \\xc4\\x91ang ph\\xe1\\xbb\\xa5c v\\xe1\\xbb\\xa5 cho h\\xc6\\xa1n 10,000 doanh nghi\\xe1\\xbb\\x87p v\\xc3\\xa0 h\\xe1\\xbb\\x99 kinh doanh c\\xc3\\xa1 th\\xe1\\xbb\\x83 h\\xc3\\xa0ng ng\\xc3\\xa0y trong nh\\xe1\\xbb\\xafng\\r\\n                                        chuy\\xe1\\xba\\xbfn giao h\\xc3\\xa0ng si\\xc3\\xaau t\\xe1\\xbb\\x91c \\xc4\\x91\\xe1\\xba\\xbfn kh\\xc3\\xa1ch h\\xc3\\xa0ng c\\xe1\\xbb\\xa7a h\\xe1\\xbb\\x8d.\\r\\n                                        Ch\\xc3\\xbang t\\xc3\\xb4i cung c\\xe1\\xba\\xa5p d\\xe1\\xbb\\x8bch v\\xe1\\xbb\\xa5 giao h\\xc3\\xa0ng cho t\\xe1\\xba\\xa5t c\\xe1\\xba\\xa3 doanh nghi\\xe1\\xbb\\x87p thu\\xe1\\xbb\\x99c m\\xe1\\xbb\\x8di quy m\\xc3\\xb4 \\xe1\\xbb\\x9f Vi\\xe1\\xbb\\x87t Nam v\\xe1\\xbb\\x9bi ch\\xe1\\xba\\xa5t l\\xc6\\xb0\\xe1\\xbb\\xa3ng giao h\\xc3\\xa0ng nhanh\\r\\n                                        ch\\xc3\\xb3ng v\\xc3\\xa0 gi\\xc3\\xa1 c\\xe1\\xba\\xa3 c\\xe1\\xba\\xa1nh tranh. GhepHang \\xc4\\x91\\xc3\\xa1p \\xe1\\xbb\\xa9ng tuy\\xe1\\xbb\\x87t \\xc4\\x91\\xe1\\xbb\\x91i nhu c\\xe1\\xba\\xa7u c\\xe1\\xbb\\xa7a b\\xe1\\xba\\xa1n \\xe1\\xbb\\x9f c\\xe1\\xba\\xa3 m\\xc3\\xb9a cao \\xc4\\x91i\\xe1\\xbb\\x83m hay th\\xc6\\xb0\\xe1\\xbb\\x9dng nh\\xe1\\xba\\xadt, d\\xc3\\xb9 doanh\\r\\n                                        nghi\\xe1\\xbb\\x87p c\\xe1\\xbb\\xa7a b\\xe1\\xba\\xa1n s\\xe1\\xbb\\xad d\\xe1\\xbb\\xa5ng giao h\\xc3\\xa0ng ch\\xe1\\xbb\\x89 v\\xe1\\xbb\\x9bi s\\xe1\\xbb\\x91 l\\xc6\\xb0\\xe1\\xbb\\xa3ng \\xc4\\x91\\xc6\\xa1n h\\xc3\\xa0ng \\xc3\\xadt m\\xe1\\xbb\\x97i tu\\xe1\\xba\\xa7n hay s\\xe1\\xbb\\x91 l\\xc6\\xb0\\xe1\\xbb\\xa3ng \\xc4\\x91\\xc6\\xa1n h\\xc3\\xa0ng l\\xe1\\xbb\\x9bn m\\xe1\\xbb\\x97i ng\\xc3\\xa0y, ch\\xc3\\xbang t\\xc3\\xb4i \\xc4\\x91\\xe1\\xbb\\x81u\\r\\n                                        c\\xc3\\xb3 th\\xe1\\xbb\\x83 t\\xe1\\xbb\\x91i \\xc6\\xb0u d\\xe1\\xbb\\x8bch v\\xe1\\xbb\\xa5 theo y\\xc3\\xaau c\\xe1\\xba\\xa7u c\\xe1\\xbb\\xa7a doanh nghi\\xe1\\xbb\\x87p.<br>\\r\\n                                        T\\xc3\\xacm hi\\xe1\\xbb\\x83u th\\xc3\\xaam b\\xe1\\xba\\xb1ng c\\xc3\\xa1ch li\\xc3\\xaan h\\xe1\\xbb\\x87 t\\xe1\\xba\\xa1i \\xc4\\x91\\xc3\\xa2y, t\\xc6\\xb0 v\\xe1\\xba\\xa5n vi\\xc3\\xaan c\\xe1\\xbb\\xa7a ch\\xc3\\xbang t\\xc3\\xb4i s\\xe1\\xba\\xbd li\\xc3\\xaan h\\xe1\\xbb\\x87 s\\xe1\\xbb\\x9bm nh\\xe1\\xba\\xa5t v\\xe1\\xbb\\x9bi b\\xe1\\xba\\xa1n \\xc4\\x91\\xe1\\xbb\\x83 \\xc4\\x91\\xc6\\xb0\\xe1\\xbb\\xa3c h\\xe1\\xbb\\x97 tr\\xe1\\xbb\\xa3.</p>\\r\\n                                    </li>\\r\\n                                    <li class="accordion-item">\\r\\n                                        <a class="accordion-title" href="javascript:void(0)">\\r\\n                                            <span>2</span>\\r\\n                                            C\\xc6\\xb0\\xe1\\xbb\\x9bc ph\\xc3\\xad giao h\\xc3\\xa0ng GhepHang \\xc4\\x91\\xc6\\xb0\\xe1\\xbb\\xa3c t\\xc3\\xadnh nh\\xc6\\xb0 th\\xe1\\xba\\xbf n\\xc3\\xa0o?\\r\\n                                        </a>\\r\\n                                        <p class="accordion-content">Ph\\xc3\\xad d\\xe1\\xbb\\x8bch v\\xe1\\xbb\\xa5 \\xc4\\x91\\xc6\\xb0\\xe1\\xbb\\xa3c d\\xe1\\xbb\\xb1a tr\\xc3\\xaan nhi\\xe1\\xbb\\x81u y\\xe1\\xba\\xbfu t\\xe1\\xbb\\x91 nh\\xc6\\xb0 t\\xc3\\xacnh h\\xc3\\xacnh giao th\\xc3\\xb4ng, k\\xc3\\xadch th\\xc6\\xb0\\xe1\\xbb\\x9bc h\\xc3\\xa0ng h\\xc3\\xb3a, kh\\xe1\\xba\\xa3 n\\xc4\\x83ng nh\\xe1\\xba\\xadn \\xc4\\x91\\xc6\\xa1n c\\xe1\\xbb\\xa7a \\xc4\\x91\\xe1\\xbb\\x91i t\\xc3\\xa1c t\\xc3\\xa0i\\r\\n                                        x\\xe1\\xba\\xbf, ph\\xc3\\xad c\\xe1\\xba\\xa7u \\xc4\\x91\\xc6\\xb0\\xe1\\xbb\\x9dng, c\\xc3\\xa1c ph\\xe1\\xbb\\xa5 ph\\xc3\\xad,... V\\xc3\\xac v\\xe1\\xba\\xady t\\xe1\\xbb\\x95ng gi\\xc3\\xa1 d\\xe1\\xbb\\x8bch v\\xe1\\xbb\\xa5 c\\xc3\\xb3 th\\xe1\\xbb\\x83 thay \\xc4\\x91\\xe1\\xbb\\x95i. Gi\\xc3\\xa1 hi\\xe1\\xbb\\x83n th\\xe1\\xbb\\x8b t\\xe1\\xba\\xa1i th\\xe1\\xbb\\x9di \\xc4\\x91i\\xe1\\xbb\\x83m \\xc4\\x91\\xe1\\xba\\xb7t \\xc4\\x91\\xc6\\xa1n c\\xc3\\xb3 th\\xe1\\xbb\\x83\\r\\n                                        kh\\xc3\\xb4ng gi\\xe1\\xbb\\xaf nguy\\xc3\\xaan n\\xe1\\xba\\xbfu c\\xc3\\xb3 thay \\xc4\\x91\\xe1\\xbb\\x95i v\\xe1\\xbb\\x81 chi ti\\xe1\\xba\\xbft \\xc4\\x91\\xc6\\xa1n h\\xc3\\xa0ng.\\r\\n                                        <br />\\r\\n                                        M\\xe1\\xbb\\x9f \\xe1\\xbb\\xa9ng d\\xe1\\xbb\\xa5ng GhepHang v\\xc3\\xa0 ch\\xe1\\xbb\\x89 c\\xe1\\xba\\xa7n ch\\xe1\\xbb\\x8dn lo\\xe1\\xba\\xa1i xe, \\xc4\\x91i\\xe1\\xbb\\x83m nh\\xe1\\xba\\xadn v\\xc3\\xa0 tr\\xe1\\xba\\xa3 h\\xc3\\xa0ng. B\\xe1\\xba\\xa1n s\\xe1\\xba\\xbd ngay l\\xe1\\xba\\xadp t\\xe1\\xbb\\xa9c \\xc4\\x91\\xc6\\xb0\\xe1\\xbb\\xa3c cung c\\xe1\\xba\\xa5p chi ti\\xe1\\xba\\xbft v\\xe1\\xbb\\x81 gi\\xc3\\xa1\\r\\n                                        tr\\xc6\\xb0\\xe1\\xbb\\x9bc khi quy\\xe1\\xba\\xbft \\xc4\\x91\\xe1\\xbb\\x8bnh \\xc4\\x91\\xe1\\xba\\xb7t \\xc4\\x91\\xc6\\xa1n.</p>\\r\\n                                    </li>\\r\\n                                    <li class="accordion-item">\\r\\n                                        <a class="accordion-title" href="javascript:void(0)">\\r\\n                                            <span>3</span>\\r\\n                                            GhepHang c\\xc3\\xb3 th\\xe1\\xbb\\x83 v\\xe1\\xba\\xadn chuy\\xe1\\xbb\\x83n nh\\xe1\\xbb\\xafng h\\xc3\\xa0ng h\\xc3\\xb3a c\\xe1\\xbb\\x93ng k\\xe1\\xbb\\x81nh v\\xe1\\xbb\\x9bi s\\xe1\\xbb\\x91 l\\xc6\\xb0\\xe1\\xbb\\xa3ng l\\xe1\\xbb\\x9bn hay kh\\xc3\\xb4ng?\\r\\n                                        </a>\\r\\n                                        <p class="accordion-content">B\\xe1\\xba\\xa1n h\\xc3\\xa3y ho\\xc3\\xa0n to\\xc3\\xa0n y\\xc3\\xaan t\\xc3\\xa2m, th\\xe1\\xba\\xbf m\\xe1\\xba\\xa1nh c\\xe1\\xbb\\xa7a ch\\xc3\\xbang t\\xc3\\xb4i c\\xc3\\xb2n l\\xc3\\xa0 chuy\\xc3\\xaan v\\xe1\\xba\\xadn chuy\\xe1\\xbb\\x83n c\\xc3\\xa1c lo\\xe1\\xba\\xa1i h\\xc3\\xa0ng l\\xe1\\xbb\\x9bn, c\\xe1\\xbb\\x93ng k\\xe1\\xbb\\x81nh m\\xc3\\xa0 b\\xe1\\xba\\xa1n kh\\xc3\\xb4ng th\\xe1\\xbb\\x83\\r\\n                                        v\\xe1\\xba\\xadn chuy\\xe1\\xbb\\x83n v\\xe1\\xbb\\xaba tr\\xc3\\xaan c\\xc3\\xa1c ph\\xc6\\xb0\\xc6\\xa1ng ti\\xe1\\xbb\\x87n nh\\xc6\\xb0 xe m\\xc3\\xa1y ho\\xe1\\xba\\xb7c xe \\xc3\\xb4 t\\xc3\\xb4. Ngo\\xc3\\xa0i ph\\xc6\\xb0\\xc6\\xa1ng ti\\xe1\\xbb\\x87n v\\xe1\\xba\\xadn chuy\\xe1\\xbb\\x83n b\\xe1\\xba\\xb1ng xe m\\xc3\\xa1y, ch\\xc3\\xbang t\\xc3\\xb4i c\\xc3\\xb2n c\\xc3\\xb3\\r\\n                                        th\\xc3\\xaam ph\\xc6\\xb0\\xc6\\xa1ng ti\\xe1\\xbb\\x87n v\\xe1\\xba\\xadn chuy\\xe1\\xbb\\x83n: xe b\\xc3\\xa1n t\\xe1\\xba\\xa3i/ xe van/ xe t\\xe1\\xba\\xa3i chuy\\xc3\\xaan d\\xe1\\xbb\\xa5ng v\\xe1\\xbb\\x9bi tr\\xe1\\xbb\\x8dng t\\xe1\\xba\\xa3i t\\xe1\\xbb\\xab 500kg \\xc4\\x91\\xe1\\xba\\xbfn 2 t\\xe1\\xba\\xa5n, \\xc4\\x91\\xc3\\xa1p \\xe1\\xbb\\xa9ng t\\xe1\\xbb\\x91t m\\xe1\\xbb\\x8di\\r\\n                                        nhu c\\xe1\\xba\\xa7u khi b\\xe1\\xba\\xa1n c\\xe1\\xba\\xa7n.</p>\\r\\n                                    </li>\\r\\n                                    <li class="accordion-item">\\r\\n                                        <a class="accordion-title" href="javascript:void(0)">\\r\\n                                            <span>4</span>\\r\\n                                            Tr\\xe1\\xbb\\x9f th\\xc3\\xa0nh \\xc4\\x91\\xe1\\xbb\\x91i t\\xc3\\xa1c t\\xc3\\xa0i x\\xe1\\xba\\xbf c\\xe1\\xbb\\xa7a GhepHang c\\xc3\\xb3 l\\xe1\\xbb\\xa3i \\xc3\\xadch g\\xc3\\xac?\\r\\n                                        </a>\\r\\n                                        <p class="accordion-content">GhepHang l\\xc3\\xa0 \\xe1\\xbb\\xa9ng d\\xe1\\xbb\\xa5ng giao h\\xc3\\xa0ng theo y\\xc3\\xaau c\\xe1\\xba\\xa7u, gi\\xc3\\xbap k\\xe1\\xba\\xbft n\\xe1\\xbb\\x91i v\\xe1\\xbb\\x9bi t\\xc3\\xa0i x\\xe1\\xba\\xbf v\\xe1\\xbb\\x9bi kh\\xc3\\xa1ch h\\xc3\\xa0ng c\\xc3\\xb3 nhu c\\xe1\\xba\\xa7u. B\\xe1\\xba\\xa1n c\\xc3\\xb3 th\\xe1\\xbb\\x83 xem v\\xc3\\xa0 ch\\xe1\\xbb\\x8dn\\r\\n                                        \\xc4\\x91\\xc6\\xa1n \\xc4\\x91\\xe1\\xba\\xb7t h\\xc3\\xa0ng m\\xc3\\xa0 m\\xc3\\xacnh mu\\xe1\\xbb\\x91n giao. B\\xe1\\xba\\xa1n c\\xc5\\xa9ng c\\xc3\\xb3 th\\xe1\\xbb\\x83 nh\\xe1\\xba\\xadn nhi\\xe1\\xbb\\x81u ho\\xe1\\xba\\xb7c \\xc3\\xadt \\xc4\\x91\\xc6\\xa1n h\\xc3\\xa0ng t\\xc3\\xb9y \\xc3\\xbd v\\xc3\\xa0o b\\xe1\\xba\\xa5t k\\xe1\\xbb\\xb3 th\\xe1\\xbb\\x9di \\xc4\\x91i\\xe1\\xbb\\x83m n\\xc3\\xa0o trong ng\\xc3\\xa0y!\\r\\n                                        <br />T\\xc4\\x83ng th\\xc3\\xaam thu nh\\xe1\\xba\\xadp m\\xe1\\xbb\\x97i th\\xc3\\xa1ng t\\xe1\\xbb\\xab nh\\xe1\\xbb\\xafng \\xc4\\x91\\xc6\\xa1n giao h\\xc3\\xa0ng. Nh\\xe1\\xba\\xadn ti\\xe1\\xbb\\x81n ngay sau m\\xe1\\xbb\\x97i \\xc4\\x91\\xc6\\xa1n ho\\xc3\\xa0n th\\xc3\\xa0nh. <br />T\\xe1\\xbb\\xb1 do l\\xe1\\xbb\\xb1a ch\\xe1\\xbb\\x8dn bao nhi\\xc3\\xaau \\xc4\\x91\\xc6\\xa1n h\\xc3\\xa0ng t\\xc3\\xb9y th\\xc3\\xadch b\\xe1\\xba\\xb1ng c\\xc3\\xa1ch l\\xc3\\xa0m vi\\xe1\\xbb\\x87c trong th\\xe1\\xbb\\x9di gian r\\xe1\\xba\\xa3nh\\r\\n                                    </p>\\r\\n                                    </li>\\r\\n                                </ul>\\r\\n                            </div>\\r\\n                        </div>\\r\\n                        <div class="row" style="margin-top: 20px;">\\r\\n                            <div class="col-lg-12 col-md-12">\\r\\n                                <a type="submit" href="/faq" class="default-btn btn-two active">\\r\\n                                    <span class="label">\\xc4\\x90\\xe1\\xba\\xb7t c\\xc3\\xa2u h\\xe1\\xbb\\x8fi</span>\\r\\n                                    <i class=\\\'bx bx-plus\\\'></i>\\r\\n                                </a>\\r\\n                                <div id="msgSubmit" class="h3 text-center hidden"></div>\\r\\n                                <div class="clearfix"></div>\\r\\n                            </div>\\r\\n                        </div>\\r\\n                    </div>\\r\\n                </div>\\r\\n            </div>\\r\\n            <div class="col-lg-6">\\r\\n                <div class="faq-img">\\r\\n                </div>\\r\\n            </div>\\r\\n        </div>\\r\\n    </div>\\r\\n</section>\\r\\n<!-- End FAQ Area -->\', escape=False)\nresponse.write(\'\\r\\n\\r\\n\', escape=False)\nresponse.write(\'<!-- Start Brand Area -->\\r\\n<div class="brand-area pt-100 pb-70">\\r\\n    <div class="container">\\r\\n        <div class="section-title" style="max-width: 625px;\\r\\n                    margin: -8px auto 40px;\\r\\n                    text-align: center;\\r\\n                    position: relative;">\\r\\n            <span>Li\\xc3\\xaan k\\xe1\\xba\\xbft</span>\\r\\n            <h2>\\xc4\\x90\\xc6\\xa1n v\\xe1\\xbb\\x8b h\\xe1\\xbb\\xa3p t\\xc3\\xa1c v\\xe1\\xbb\\x9bi ch\\xc3\\xbang t\\xc3\\xb4i</h2>\\r\\n            \\r\\n        </div>\\r\\n        <div class="row">\\r\\n            <div class="brand-wrap owl-carousel owl-theme">\\r\\n                <div class="brand-item">\\r\\n                    <a href="#">\\r\\n                        <img src="\', escape=False)\nresponse.write(URL(\'static\',\'%s/img\')%(static_default))\nresponse.write(\'/brand/vietsun.png" alt="Image">\\r\\n                    </a>\\r\\n                </div>\\r\\n                <div class="brand-item">\\r\\n                    <a href="#">\\r\\n                        <img src="\', escape=False)\nresponse.write(URL(\'static\',\'%s/img\')%(static_default))\nresponse.write(\'/brand/ghtk.png" alt="Image">\\r\\n                    </a>\\r\\n                </div>\\r\\n                <div class="brand-item">\\r\\n                    <a href="#">\\r\\n                        <img src="\', escape=False)\nresponse.write(URL(\'static\',\'%s/img\')%(static_default))\nresponse.write(\'/brand/namhai.png" alt="Image">\\r\\n                    </a>\\r\\n                </div>\\r\\n                <div class="brand-item">\\r\\n                    <a href="#">\\r\\n                        <img src="\', escape=False)\nresponse.write(URL(\'static\',\'%s/img\')%(static_default))\nresponse.write(\'/brand/nhattin.png" alt="Image">\\r\\n                    </a>\\r\\n                </div>\\r\\n                <div class="brand-item">\\r\\n                    <a href="#">\\r\\n                        <img src="\', escape=False)\nresponse.write(URL(\'static\',\'%s/img\')%(static_default))\nresponse.write(\'/brand/viettelpost.png" alt="Image">\\r\\n                    </a>\\r\\n                </div>\\r\\n            </div>\\r\\n        </div>\\r\\n    </div>\\r\\n</div>\\r\\n<!-- End Brand Area -->\', escape=False)\nresponse.write(\'\\r\\n\\r\\n\\r\\n<!-- Start Search Box Modal -->\\r\\n<div class="search-wrap hiden-load" style="display: none;">\\r\\n    <div class="form">\\r\\n        <button type="button" class="close">\\xc3\\x97</button>\\r\\n        <div class="container py-4" style="max-width: 1000px;">\\r\\n            <h3 class="text-center">\\xc4\\x90\\xc4\\x83ng k\\xc3\\xbd l\\xc3\\xa0m t\\xc3\\xa0i x\\xe1\\xba\\xbf</h3>\\r\\n            <iframe frameborder="0" style="width:100%" id="ecrm-optin-3" width="100%" height="640"></iframe>\\r\\n            <script>\\r\\n                function setOptinForm3Src() {\\r\\n                    var utm = get_utm_url();\\r\\n                    var qs = getQueryString(utm);\\r\\n                    var rootUrl = location.href;\\r\\n                    var s = "https://ghephang.nobi.pro/optinform/3?u=" + rootUrl + "?" + qs;\\r\\n                    var iframe1 = document.getElementById("ecrm-optin-3");\\r\\n                    (navigator.userAgent.indexOf("MSIE") == -1) ? (iframe1.src = s) : (iframe1.location = s);\\r\\n                }\\r\\n                function ecrmSetCookie(name, value, days) {\\r\\n                    var expires = "";\\r\\n                    if (days) {\\r\\n                        var date = new Date();\\r\\n                        date.setTime(date.getTime() + (days * 24 * 60 * 60 * 1000));\\r\\n                        expires = "; expires=" + date.toUTCString();\\r\\n                    }\\r\\n                    document.cookie = name + "=" + (value || "") + expires + "; path=/";\\r\\n                }\\r\\n\\r\\n                function ecrmGetCookie(name) {\\r\\n                    var nameEQ = name + "=";\\r\\n                    var ca = document.cookie.split(\\\';\\\');\\r\\n                    for (var i = 0; i < ca.length; i++) {\\r\\n                        var c = ca[i];\\r\\n                        while (c.charAt(0) == \\\' \\\') c = c.substring(1, c.length);\\r\\n                        if (c.indexOf(nameEQ) == 0) return c.substring(nameEQ.length, c.length);\\r\\n                    }\\r\\n                    return null;\\r\\n                }\\r\\n\\r\\n                function get_utm_url() {\\r\\n                    var utmStr = ecrmGetCookie("nobita-utm");\\r\\n\\r\\n                    var old = {};\\r\\n                    if (utmStr && utmStr !== null) {\\r\\n                        old = JSON.parse(atob(utmStr));\\r\\n                    }\\r\\n\\r\\n                    var params = new URLSearchParams(window.location.search);\\r\\n                    var check = false;\\r\\n                    // check tr\\xc3\\xaan url xem c\\xc3\\xb3 ph\\xe1\\xba\\xa3i l\\xc3\\xa0 link utm kh\\xc3\\xb4ng\\r\\n                    for (var [key, value] of params.entries()) {\\r\\n                        old[key] = value;\\r\\n                    }\\r\\n                    ecrmSetCookie("nobita-utm", btoa(JSON.stringify(old)), 30);\\r\\n\\r\\n                    return old;\\r\\n                }\\r\\n\\r\\n                function getQueryString(params) {\\r\\n                    return Object.keys(params)\\r\\n                        .map(key => key + "=" + params[key])\\r\\n                        .join(\\\'&\\\');\\r\\n                }\\r\\n\\r\\n                setTimeout(setOptinForm3Src, 5);\\r\\n            </script>\\r\\n        </div>\\r\\n\\r\\n    </div>\\r\\n</div>\\r\\n<!-- End Search Box Modal -->\\r\\n\\r\\n\\r\\n\', escape=False)\nresponse.write(\'\\r\\n    </div>\\r\\n\\r\\n    \', escape=False)\nresponse.write(\'\\r\\n    \', escape=False)\n#include \'site/ghephang/default/component/subscribe.html\'\nresponse.write(\'\\r\\n\', escape=False)\nresponse.write(\'\\r\\n\\r\\n    \', escape=False)\nresponse.write(\'<footer class="footer-top-area pt-100 pb-70 bg-f7f7f7">\\r\\n    <div class="container">\\r\\n        <div class="row">\\r\\n            <div class="col-lg-3 col-md-6">\\r\\n                 \', escape=False)\nresponse.write(portlet.display(116))\nresponse.write(\'\\r\\n            </div>\\r\\n            <div class="col-lg-3 col-md-6">\\r\\n                 \', escape=False)\nresponse.write(portlet.display(166))\nresponse.write(\'\\r\\n            </div>\\r\\n            <div class="col-lg-3 col-md-6">\\r\\n                 \', escape=False)\nresponse.write(portlet.display(118))\nresponse.write(\'\\r\\n            </div>\\r\\n            <div class="col-lg-3 col-md-6">\\r\\n                <div class="single-widget">\\r\\n                    <h3>Theo d\\xc3\\xb5i ch\\xc3\\xbang t\\xc3\\xb4i </h3>\\r\\n                    <div id="fb-root"></div>\\r\\n                    <script>(function (d, s, id) {\\r\\n                            var js, fjs = d.getElementsByTagName(s)[0];\\r\\n                            if (d.getElementById(id)) return;\\r\\n                            js = d.createElement(s); js.id = id;\\r\\n                            js.src = "//connect.facebook.net/vi_VN/sdk.js#xfbml=1&version=v2.6&appId=215619355450603";\\r\\n                            fjs.parentNode.insertBefore(js, fjs);\\r\\n                        }(document, \\\'script\\\', \\\'facebook-jssdk\\\'));</script>\\r\\n\\r\\n                    <div style="margin-top: 12px;" class="fb-page" data-href="https://www.facebook.com/Ghephangcom" data-small-header="false"\\r\\n                        data-adapt-container-width="true" data-hide-cover="false" data-show-facepile="true"></div>\\r\\n                    <p></p>\\r\\n                    <ul class="social-link">\\r\\n                        \', escape=False)\nresponse.write(\'<li>\\r\\n    <a href="#">\\r\\n        <i class=\\\'bx bxl-twitter\\\'></i>\\r\\n    </a>\\r\\n</li>\\r\\n<li>\\r\\n    <a href="#">\\r\\n        <i class=\\\'bx bxl-facebook\\\'></i>\\r\\n    </a>\\r\\n</li>\\r\\n<li>\\r\\n    <a href="#">\\r\\n        <i class=\\\'bx bxl-instagram\\\'></i>\\r\\n    </a>\\r\\n</li>\\r\\n<li>\\r\\n    <a href="#">\\r\\n        <i class=\\\'bx bxl-linkedin\\\'></i>\\r\\n    </a>\\r\\n</li>\\r\\n\', escape=False)\nresponse.write(\'\\r\\n                    </ul>\\r\\n                </div>\\r\\n            </div>\\r\\n        </div>\\r\\n        <hr/>\\r\\n        <div class="row">\\r\\n            \', escape=False)\nresponse.write(portlet.display(163))\nresponse.write(\'\\r\\n        </div>\\r\\n    </div>\\r\\n    <div class="lines">\\r\\n        <div class="line"></div>\\r\\n        <div class="line"></div>\\r\\n        <div class="line"></div>\\r\\n        <div class="line"></div>\\r\\n    </div>\\r\\n</footer>\', escape=False)\nresponse.write(\'\\r\\n    <!-- Start Footer Bottom Area -->\\r\\n    <footer class="footer-bottom-area footer-bottom-area-four">\\r\\n        <div class="container">\\r\\n            <div class="row align-items-center">\\r\\n                <div class="col-lg-6">\\r\\n                    <div class="single-widget-bottom">\\r\\n                        <ul>\\r\\n                            <li>\\r\\n                                <a href="#">\\xc4\\x90i\\xe1\\xbb\\x81u kho\\xe1\\xba\\xa3n v\\xc3\\xa0 \\xc4\\x91i\\xe1\\xbb\\x81u ki\\xe1\\xbb\\x87n</a>\\r\\n                            </li>\\r\\n                            <li>\\r\\n                                <a href="#">Ch\\xc3\\xadnh s\\xc3\\xa1ch b\\xe1\\xba\\xa3o m\\xe1\\xba\\xadt</a>\\r\\n                            </li>\\r\\n                            <li>\\r\\n                                <a href="#">\\xc4\\x90\\xc4\\x83ng nh\\xe1\\xba\\xadp</a>\\r\\n                            </li>\\r\\n                        </ul>\\r\\n                    </div>\\r\\n                </div>\\r\\n                <div class="col-lg-6">\\r\\n                    <div class="single-widget-bottom">\\r\\n                        <p>Copyright <i class="bx bx-copyright"></i> by ghephang.com. All rights reserved</p>\\r\\n                    </div>\\r\\n                </div>\\r\\n            </div>\\r\\n        </div>\\r\\n    </footer>\\r\\n\\r\\n    <div>\\r\\n        <div id="overlay" onclick="off()" style="display: none;"></div>\\r\\n        <div class="position-fixed text-right floating-action-menu">\\r\\n            <div class="action-menu">\\r\\n                <a class="floating-action px-2 py-2" href="/tra-van-don">\\r\\n                    <div class="badge">Tra c\\xe1\\xbb\\xa9u v\\xe1\\xba\\xadn \\xc4\\x91\\xc6\\xa1n</div>\\r\\n                    <span class="btn-floating">\\r\\n                        <img src="\', escape=False)\nresponse.write(URL(\'static\',\'%s/images\')%(static_default))\nresponse.write(\'/icon-fab-search-bill.svg"\\r\\n                            alt="icon-fab-search-bill" class="img-fluid" width="30">\\r\\n                    </span>\\r\\n                </a>\\r\\n                <a class="floating-action px-2 py-2" href="/tao-don">\\r\\n                    <div class="badge">Y\\xc3\\xaau c\\xe1\\xba\\xa7u b\\xc3\\xa1o gi\\xc3\\xa1</div>\\r\\n                    <span class="btn-floating">\\r\\n                        <img src="\', escape=False)\nresponse.write(URL(\'static\',\'%s/images\')%(static_default))\nresponse.write(\'/icon-fab-create-bill.svg"\\r\\n                            alt="icon-fab-create-bill" class="img-fluid" width="30">\\r\\n                    </span>\\r\\n                </a>\\r\\n                <a class="floating-action px-2 py-2" href="/tim-buu-cuc">\\r\\n                    <div class="badge">T\\xc3\\xacm b\\xc6\\xb0u c\\xe1\\xbb\\xa5c</div>\\r\\n                    <span class="btn-floating">\\r\\n                        <img src="\', escape=False)\nresponse.write(URL(\'static\',\'%s/images\')%(static_default))\nresponse.write(\'/icon-fab-search-price.svg"\\r\\n                            alt="icon-fab-search-price" class="img-fluid" width="30">\\r\\n                    </span>\\r\\n                </a>\\r\\n                <!-- <a class="floating-action px-2 py-2" href="bang-gia-dich-vu">\\r\\n                    <div class="badge">Nh\\xe1\\xba\\xafn tin</div>\\r\\n                    <span class="btn-floating">\\r\\n                        <img src="\', escape=False)\nresponse.write(URL(\'static\',\'%s/images\')%(static_default))\nresponse.write(\'/icon-fab-price-list.svg" alt="icon-fab-price-list" class="img-fluid"\\r\\n                            width="30">\\r\\n                    </span>\\r\\n                </a> -->\\r\\n                <!-- <a class="floating-action px-2 py-2" href="/#footer-v2">\\r\\n                    <div class="badge">T\\xe1\\xba\\xa3i App NTX</div>\\r\\n                    <span class="btn-floating">\\r\\n                        <img src="\', escape=False)\nresponse.write(URL(\'static\',\'%s/images\')%(static_default))\nresponse.write(\'/icon-fab-get-app.svg" alt="icon-fab-get-app" class="img-fluid" width="30">\\r\\n                    </span>\\r\\n                </a> -->\\r\\n                <!-- fb-messenger://user-thread/149397918580307  https://zalo.me/0377888678-->\\r\\n\\r\\n\\r\\n                <a class="floating-action px-2 py-2" id="chat_message_id" target="_blank" href="#">\\r\\n                    <div class="badge">Chat v\\xe1\\xbb\\x9bi GhepHang</div>\\r\\n                    <span class="btn-floating">\\r\\n                        <img src="\', escape=False)\nresponse.write(URL(\'static\',\'%s/images\')%(static_default))\nresponse.write(\'/icon-fab-chat.svg" alt="icon-fab-chat"\\r\\n                            class="img-fluid" width="30">\\r\\n                    </span>\\r\\n                </a>\\r\\n                <a class="floating-action px-2 py-2" href="tel:1900888678">\\r\\n                    <div class="badge">Li\\xc3\\xaan h\\xe1\\xbb\\x87: <strong>1900888678</strong></div>\\r\\n                    <span class="btn-floating">\\r\\n                        <img src="\', escape=False)\nresponse.write(URL(\'static\',\'%s/images\')%(static_default))\nresponse.write(\'/icon-fab-phone.svg"\\r\\n                            alt="icon-fab-phone" class="img-fluid" width="30">\\r\\n                    </span>\\r\\n                </a>\\r\\n            </div>\\r\\n            <div class="d-block action-button">\\r\\n                <a class="btn-floating" onclick="on()">\\r\\n                    <img src="\', escape=False)\nresponse.write(URL(\'static\',\'%s/images\')%(static_default))\nresponse.write(\'/icon-fab.svg" alt="icon-fab"\\r\\n                        class="img-fluid" width="48" style="filter: drop-shadow(2px 4px 15px rgba(0, 0, 0, 0.3));">\\r\\n                </a>\\r\\n            </div>\\r\\n\\r\\n            <script>\\r\\n                window.onload = (event) => {\\r\\n                    const mesa = document.getElementById(\\\'chat_message_id\\\')\\r\\n                    let url = \\\'https://www.facebook.com/Ghephangcom/\\\'\\r\\n                    if (/Android|webOS|iPhone|iPad|iPod|BlackBerry|IEMobile|Opera Mini/i.test(navigator.userAgent) && window.innerWidth <= 550) {\\r\\n                        url = \\\'fb-messenger://user-thread/149397918580307\\\'\\r\\n                    }\\r\\n                    mesa.setAttribute(\\\'href\\\', url);\\r\\n                };\\r\\n\\r\\n            </script>\\r\\n        </div>\\r\\n    </div>\\r\\n\\r\\n    \', escape=False)\nresponse.write(\'<style>\\r\\n    #show_popup {\\r\\n        position: fixed;\\r\\n        z-index: 1200;\\r\\n        bottom: 32px;\\r\\n        left: 32px;\\r\\n   }\\r\\n    .custom-div {\\r\\n        padding: 15px 20px;\\r\\n        background: rgb(234, 234, 234);\\r\\n        max-height: 0;\\r\\n        opacity: 0;\\r\\n        font-size: 13px;\\r\\n        border-radius: 8px;\\r\\n        transition: max-height 1s ease, opacity 1s ease;\\r\\n        line-height: 1.6em;\\r\\n    }\\r\\n     .custom-div.active {\\r\\n        max-height: 500px;\\r\\n        opacity: 1;\\r\\n        transition: max-height 1s ease, opacity 1s ease;\\r\\n    }\\r\\n\\r\\n    .custom-div .place {\\r\\n        color: rgb(0, 97, 193);\\r\\n        font-weight: 500;\\r\\n    }\\r\\n\\r\\n    .custom-div .image-container {\\r\\n        margin-top: 16px;\\r\\n        display: flex;\\r\\n        align-items: flex-start;\\r\\n    }\\r\\n\\r\\n    .custom-div .image-container img {\\r\\n        width: 70px;\\r\\n        margin-right: 8px;\\r\\n    }\\r\\n\\r\\n    .custom-div .info-container {\\r\\n        display: flex;\\r\\n        flex-direction: column;\\r\\n    }\\r\\n\\r\\n    .custom-div .info-container p {\\r\\n        color: rgb(0, 97, 193);\\r\\n    }\\r\\n\\r\\n    p {\\r\\n        margin: 0;\\r\\n    }\\r\\n</style>\\r\\n<div id="show_popup"></div>\\r\\n<script>\\r\\n    function generateRandomTime() {\\r\\n        const randomMinutesAgo = Math.floor(Math.random() * 26) + 5; // Random time between 5 and 30 minutes\\r\\n        return `${randomMinutesAgo} ph\\xc3\\xbat tr\\xc6\\xb0\\xe1\\xbb\\x9bc`;\\r\\n    }\\r\\n\\r\\n    const card = document.getElementById(\\\'custom-card\\\');\\r\\n    const urldefault = "\', escape=False)\nresponse.write(URL(\'static\',\'%s/images\')%(static_default))\nresponse.write(\'";\\r\\n    const imageUrls = [\\r\\n        urldefault + \\\'/truck.png\\\',\\r\\n        urldefault + \\\'/truck2.png\\\',\\r\\n        urldefault + \\\'/truck3.png\\\',\\r\\n        urldefault + \\\'/truck4.png\\\',\\r\\n        urldefault + \\\'/truck.png\\\',\\r\\n        urldefault + \\\'/truck2.png\\\',\\r\\n        urldefault + \\\'/truck.png\\\',\\r\\n        urldefault + \\\'/truck2.png\\\',\\r\\n        urldefault + \\\'/truck3.png\\\',\\r\\n        urldefault + \\\'/truck4.png\\\',\\r\\n        urldefault + \\\'/truck.png\\\',\\r\\n        urldefault + \\\'/truck.png\\\',\\r\\n        urldefault + \\\'/truck2.png\\\',\\r\\n        urldefault + \\\'/truck.png\\\',\\r\\n\\r\\n    ];\\r\\n    let imageIndex = 0;\\r\\n    let dataIndex = 0;\\r\\n\\r\\n    function formatPhoneNumber(phone) {\\r\\n        return phone.slice(0, phone.length / 2) + \\\'x\\\'.repeat(phone.length - phone.length / 2);\\r\\n    }\\r\\n\\r\\n    function formatCurrency(value) {\\r\\n        return value.toLocaleString(\\\'vi-VN\\\', { style: \\\'currency\\\', currency: \\\'VND\\\' });\\r\\n    }\\r\\n\\r\\n    function renderhtml(item, img){\\r\\n        console.log(item);\\r\\n        let data = `\\r\\n            <div class="custom-div active" id="custom-card">\\r\\n                <span style="color: red; font-weight: bold;">\\xc4\\x90\\xc6\\xa0N H\\xc3\\x80NG M\\xe1\\xbb\\x9aI NH\\xe1\\xba\\xa4T</span>\\r\\n                <p>Kh\\xc3\\xa1ch: <span id="customerName">${item.customer_send.name}</span></p>\\r\\n                <p id="phoneNumber">S\\xc4\\x90T: <span id="phoneText">${formatPhoneNumber(item.customer_send.phone) }</span> - C\\xc6\\xb0\\xe1\\xbb\\x9bc: <span id="transportFee">${item.transport_fee}</span></p>\\r\\n                <p> - <span id="locations">${generateRandomTime()}</span></p>\\r\\n                <div class="image-container">\\r\\n                    <img src="${img}" alt="" id="truckImage">\\r\\n                    <div>\\r\\n                        <p>Nh\\xe1\\xba\\xadn \\xc4\\x91\\xc6\\xa1n th\\xc3\\xa0nh c\\xc3\\xb4ng</p>\\r\\n                        <p id="truckInfo">L\\xc3\\xa1i xe: ${item.trucks.name??\\\'\\xc4\\x90ang c\\xe1\\xba\\xadp nh\\xe1\\xba\\xadt\\\'}</p>\\r\\n                        <p id="truckRoute">Tuy\\xe1\\xba\\xbfn: ${item.trucks?.router?.name??\\\'\\xc4\\x90ang c\\xe1\\xba\\xadp nh\\xe1\\xba\\xadt\\\'}</p>\\r\\n                    </div>\\r\\n                </div>\\r\\n            </div>\\r\\n        `;\\r\\n        document.getElementById(\\\'show_popup\\\').innerHTML = data;\\r\\n    }\\r\\n\\r\\n    function remmeveActive(){\\r\\n        $(\\\'.custom-div\\\').removeClass(\\\'active\\\');\\r\\n    }   \\r\\n\\r\\n    function fetchDataAndDisplayFromAPI() {\\r\\n        fetch(\\\'https://quanly.ghephang.com/gh/api_v1/getListNotice.json\\\')\\r\\n            .then(response => response.json())\\r\\n            .then(data => {\\r\\n                const record = data.list[dataIndex];\\r\\n\\r\\n                let index = 0;\\r\\n                setInterval(function () {\\r\\n                    index = (index + 1) % data.list.length;\\r\\n                    img = imageUrls[index];\\r\\n                    item = data.list[index];\\r\\n                    renderhtml(item, img);\\r\\n                    setTimeout(remmeveActive, 7000); // 2000ms (2 gi\\xc3\\xa2y)\\r\\n                }, 14000); \\r\\n            })\\r\\n            .catch(error => {\\r\\n                console.error(\\\'Error fetching data from API:\\\', error);\\r\\n            });\\r\\n    }\\r\\n\\r\\n    document.addEventListener(\\\'DOMContentLoaded\\\', fetchDataAndDisplayFromAPI);\\r\\n\\r\\n</script>\', escape=False)\nresponse.write(\'\\r\\n    <!-- End Footer Bottom Area -->\\r\\n\\r\\n    <!-- Start Go Top Area -->\\r\\n    <div class="go-top">\\r\\n        <i class=\\\'bx bx-chevrons-up bx-fade-up\\\'></i>\\r\\n        <i class=\\\'bx bx-chevrons-up bx-fade-up\\\'></i>\\r\\n    </div>\\r\\n    <!-- End Go Top Area -->\\r\\n\\r\\n\\r\\n\\r\\n    <!-- Jquery Min JS -->\\r\\n    <script src="\', escape=False)\nresponse.write(URL(\'static\',\'%s/js\')%(static_default))\nresponse.write(\'/jquery.min.js"></script>\\r\\n    <!-- Bootstrap Bundle Min JS -->\\r\\n    <script src="\', escape=False)\nresponse.write(URL(\'static\',\'%s/js\')%(static_default))\nresponse.write(\'/bootstrap.bundle.min.js"></script>\\r\\n    <!-- Meanmenu Min JS -->\\r\\n    <script>\\r\\n        "use strict"; function on() { $(".floating-action-menu").hasClass("active") ? ($(".floating-action-menu").toggleClass("active"), document.getElementById("overlay").style.display = "none") : ($(".floating-action-menu").toggleClass("active"), document.getElementById("overlay").style.display = "block") } function off() { $(".floating-action-menu").toggleClass("active"), document.getElementById("overlay").style.display = "none" }\\r\\n    </script>\\r\\n    <script src="\', escape=False)\nresponse.write(URL(\'static\',\'%s/js\')%(static_default))\nresponse.write(\'/meanmenu.min.js"></script>\\r\\n    <!-- Wow Min JS -->\\r\\n    <script src="\', escape=False)\nresponse.write(URL(\'static\',\'%s/js\')%(static_default))\nresponse.write(\'/wow.min.js"></script>\\r\\n    <!-- Owl Carousel Min JS -->\\r\\n    <script src="\', escape=False)\nresponse.write(URL(\'static\',\'%s/js\')%(static_default))\nresponse.write(\'/owl.carousel.min.js"></script>\\r\\n    <!-- Owl Magnific Min JS -->\\r\\n    <script src="\', escape=False)\nresponse.write(URL(\'static\',\'%s/js\')%(static_default))\nresponse.write(\'/magnific-popup.min.js"></script>\\r\\n    <!-- Nice Select Min JS -->\\r\\n    <!-- <script src="\', escape=False)\nresponse.write(URL(\'static\',\'%s/js\')%(static_default))\nresponse.write(\'/nice-select.min.js"></script> -->\\r\\n    <!-- Appear JS -->\\r\\n    <script src="\', escape=False)\nresponse.write(URL(\'static\',\'%s/js\')%(static_default))\nresponse.write(\'/appear.min.js"></script>\\r\\n    <!-- Odometer JS -->\\r\\n    <script src="\', escape=False)\nresponse.write(URL(\'static\',\'%s/js\')%(static_default))\nresponse.write(\'/odometer.min.js"></script>\\r\\n    <!-- jarallax Min JS -->\\r\\n    <script src="\', escape=False)\nresponse.write(URL(\'static\',\'%s/js\')%(static_default))\nresponse.write(\'/jarallax.min.js"></script>\\r\\n    <!-- Form Ajaxchimp Min JS -->\\r\\n    <script src="\', escape=False)\nresponse.write(URL(\'static\',\'%s/js\')%(static_default))\nresponse.write(\'/ajaxchimp.min.js"></script>\\r\\n    <!-- Form Validator Min JS -->\\r\\n    <script src="\', escape=False)\nresponse.write(URL(\'static\',\'%s/js\')%(static_default))\nresponse.write(\'/form-validator.min.js"></script>\\r\\n    <!-- Contact JS -->\\r\\n    <script src="\', escape=False)\nresponse.write(URL(\'static\',\'%s/js\')%(static_default))\nresponse.write(\'/contact-form-script.js"></script>\\r\\n    <!-- Custom JS -->\\r\\n    <script src="\', escape=False)\nresponse.write(URL(\'static\',\'%s/js\')%(static_default))\nresponse.write(\'/custom.js"></script>\\r\\n    <script src="\', escape=False)\nresponse.write(URL(\'static\',\'%s/js\')%(static_default))\nresponse.write(\'/redirect.js"></script>\\r\\n    \', escape=False)\nresponse.write(\'\\r\\n    \', escape=False)\nresponse.write(\'\\r\\n</body>\\r\\n\\r\\n</html>\', escape=False)'
p7
sS'snapshot'
p8
(dp9
S'exception'
p10
(dp11
S'__getslice__'
p12
S"<method-wrapper '__getslice__' of exceptions.SyntaxError object>"
p13
sS'text'
p14
S'"\'content\': P(\'Th\\xc3\\xaam thu nh\\xe1\\xba\\xadp, ch\\xe1\\xbb\\xa7 \\xc4\\x91\\xe1\\xbb\\x99ng c\\xc3...\\xa0nh \\xc4\\x91\\xe1\\xbb\\x91i t\\xc3\\xa1c t\\xc3\\xa0i x\\xe1\\xba\\xbf Ghephang. H\\xc3\\xa3y \\xc4\\x91i\\xe1\\xbb\\x81n\\n"'
p15
sS'__str__'
p16
S"<method-wrapper '__str__' of exceptions.SyntaxError object>"
p17
sS'__reduce__'
p18
S'<built-in method __reduce__ of exceptions.SyntaxError object>'
p19
sS'__dict__'
p20
S'{}'
p21
sS'__sizeof__'
p22
S'<built-in method __sizeof__ of exceptions.SyntaxError object>'
p23
sS'__init__'
p24
S"<method-wrapper '__init__' of exceptions.SyntaxError object>"
p25
sS'__setattr__'
p26
S"<method-wrapper '__setattr__' of exceptions.SyntaxError object>"
p27
sS'__reduce_ex__'
p28
S'<built-in method __reduce_ex__ of exceptions.SyntaxError object>'
p29
sS'__new__'
p30
S'<built-in method __new__ of type object>'
p31
sS'__format__'
p32
S'<built-in method __format__ of exceptions.SyntaxError object>'
p33
sS'__class__'
p34
S"<type 'exceptions.SyntaxError'>"
p35
sS'filename'
p36
S"r'D:\\9026-py2\\applications\\cms\\views\\site/ghephang/default/taixe.html'"
p37
sS'lineno'
p38
S'90'
p39
sS'msg'
p40
S"'EOL while scanning string literal'"
p41
sS'__doc__'
p42
S"'Invalid syntax.'"
p43
sS'__getitem__'
p44
S"<method-wrapper '__getitem__' of exceptions.SyntaxError object>"
p45
sS'__setstate__'
p46
S'<built-in method __setstate__ of exceptions.SyntaxError object>'
p47
sS'__getattribute__'
p48
S"<method-wrapper '__getattribute__' of exceptions.SyntaxError object>"
p49
sS'print_file_and_line'
p50
S'None'
p51
sS'args'
p52
S'(\'EOL while scanning string literal\', (r\'D:\\9026-py2\\applications\\cms\\views\\site/ghephang/default/taixe.html\', 90, 145, "\'content\': P(\'Th\\xc3\\xaam thu nh\\xe1\\xba\\xadp, ch\\xe1\\xbb\\xa7 \\xc4\\x91\\xe1\\xbb\\x99ng c\\xc3...\\xa0nh \\xc4\\x91\\xe1\\xbb\\x91i t\\xc3\\xa1c t\\xc3\\xa0i x\\xe1\\xba\\xbf Ghephang. H\\xc3\\xa3y \\xc4\\x91i\\xe1\\xbb\\x81n\\n"))'
p53
sS'__subclasshook__'
p54
S'<built-in method __subclasshook__ of type object>'
p55
sS'offset'
p56
S'145'
p57
sS'__unicode__'
p58
S'<built-in method __unicode__ of exceptions.SyntaxError object>'
p59
sS'__delattr__'
p60
S"<method-wrapper '__delattr__' of exceptions.SyntaxError object>"
p61
sS'__repr__'
p62
S"<method-wrapper '__repr__' of exceptions.SyntaxError object>"
p63
sS'__hash__'
p64
S"<method-wrapper '__hash__' of exceptions.SyntaxError object>"
p65
ssS'evalue'
p66
S'EOL while scanning string literal (site/ghephang/default/taixe.html, line 90)'
p67
sS'request'
p68
cgluon.html
XML_unpickle
p69
(S's{]\x00\x00<div><table><tr><td style="font-weight:bold;vertical-align:top;">ajax</td><td style="vertical-align:top;">:</td><td><div>False</div></td></tr><tr><td style="font-weight:bold;vertical-align:top;">application</td><td style="vertical-align:top;">:</td><td><div>cms</div></td></tr><tr><td style="font-weight:bold;vertical-align:top;">args</td><td style="vertical-align:top;">:</td><td><div><table><tr><td><div>tai-xe</div></td></tr></table></div></td></tr><tr><td style="font-weight:bold;vertical-align:top;">cid</td><td style="vertical-align:top;">:</td><td><div>None</div></td></tr><tr><td style="font-weight:bold;vertical-align:top;">client</td><td style="vertical-align:top;">:</td><td><div>127.0.0.1</div></td></tr><tr><td style="font-weight:bold;vertical-align:top;">controller</td><td style="vertical-align:top;">:</td><td><div>portal</div></td></tr><tr><td style="font-weight:bold;vertical-align:top;">cookies</td><td style="vertical-align:top;">:</td><td><div><table><tr><td style="font-weight:bold;vertical-align:top;">nobita-utm</td><td style="vertical-align:top;">:</td><td><div>e30=<table><tr><td style="font-weight:bold;vertical-align:top;">comment</td><td style="vertical-align:top;">:</td><td><div></div></td></tr><tr><td style="font-weight:bold;vertical-align:top;">domain</td><td style="vertical-align:top;">:</td><td><div></div></td></tr><tr><td style="font-weight:bold;vertical-align:top;">expires</td><td style="vertical-align:top;">:</td><td><div></div></td></tr><tr><td style="font-weight:bold;vertical-align:top;">httponly</td><td style="vertical-align:top;">:</td><td><div></div></td></tr><tr><td style="font-weight:bold;vertical-align:top;">max-age</td><td style="vertical-align:top;">:</td><td><div></div></td></tr><tr><td style="font-weight:bold;vertical-align:top;">path</td><td style="vertical-align:top;">:</td><td><div></div></td></tr><tr><td style="font-weight:bold;vertical-align:top;">secure</td><td style="vertical-align:top;">:</td><td><div></div></td></tr><tr><td style="font-weight:bold;vertical-align:top;">version</td><td style="vertical-align:top;">:</td><td><div></div></td></tr></table></div></td></tr><tr><td style="font-weight:bold;vertical-align:top;">session_id_admin</td><td style="vertical-align:top;">:</td><td><div>127.0.0.1-a1ee8c3b-8c31-45be-8717-79f2344a802a<table><tr><td style="font-weight:bold;vertical-align:top;">comment</td><td style="vertical-align:top;">:</td><td><div></div></td></tr><tr><td style="font-weight:bold;vertical-align:top;">domain</td><td style="vertical-align:top;">:</td><td><div></div></td></tr><tr><td style="font-weight:bold;vertical-align:top;">expires</td><td style="vertical-align:top;">:</td><td><div></div></td></tr><tr><td style="font-weight:bold;vertical-align:top;">httponly</td><td style="vertical-align:top;">:</td><td><div></div></td></tr><tr><td style="font-weight:bold;vertical-align:top;">max-age</td><td style="vertical-align:top;">:</td><td><div></div></td></tr><tr><td style="font-weight:bold;vertical-align:top;">path</td><td style="vertical-align:top;">:</td><td><div></div></td></tr><tr><td style="font-weight:bold;vertical-align:top;">secure</td><td style="vertical-align:top;">:</td><td><div></div></td></tr><tr><td style="font-weight:bold;vertical-align:top;">version</td><td style="vertical-align:top;">:</td><td><div></div></td></tr></table></div></td></tr></table></div></td></tr><tr><td style="font-weight:bold;vertical-align:top;">env</td><td style="vertical-align:top;">:</td><td><div><table><tr><td style="font-weight:bold;vertical-align:top;">HTTP_ACCEPT</td><td style="vertical-align:top;">:</td><td><div>text/html,application/xhtml+xml,application/xml;q=0.9,image/avif,image/webp,image/apng,*/*;q=0.8,application/signed-exchange;v=b3;q=0.7</div></td></tr><tr><td style="font-weight:bold;vertical-align:top;">HTTP_ACCEPT_ENCODING</td><td style="vertical-align:top;">:</td><td><div>gzip, deflate, br, zstd</div></td></tr><tr><td style="font-weight:bold;vertical-align:top;">HTTP_ACCEPT_LANGUAGE</td><td style="vertical-align:top;">:</td><td><div>en-US,en;q=0.9,vi-VN;q=0.8,vi;q=0.7,fr-FR;q=0.6,fr;q=0.5</div></td></tr><tr><td style="font-weight:bold;vertical-align:top;">HTTP_CACHE_CONTROL</td><td style="vertical-align:top;">:</td><td><div>max-age=0</div></td></tr><tr><td style="font-weight:bold;vertical-align:top;">HTTP_CONNECTION</td><td style="vertical-align:top;">:</td><td><div>keep-alive</div></td></tr><tr><td style="font-weight:bold;vertical-align:top;">HTTP_COOKIE</td><td style="vertical-align:top;">:</td><td><div>nobita-utm=e30=; session_id_admin=127.0.0.1-a1ee8c3b-8c31-45be-8717-79f2344a802a</div></td></tr><tr><td style="font-weight:bold;vertical-align:top;">HTTP_HOST</td><td style="vertical-align:top;">:</td><td><div>127.0.0.1:8000</div></td></tr><tr><td style="font-weight:bold;vertical-align:top;">HTTP_SEC_CH_UA</td><td style="vertical-align:top;">:</td><td><div>&quot;Chromium&quot;;v=&quot;128&quot;, &quot;Not;A=Brand&quot;;v=&quot;24&quot;, &quot;Google Chrome&quot;;v=&quot;128&quot;</div></td></tr><tr><td style="font-weight:bold;vertical-align:top;">HTTP_SEC_CH_UA_MOBILE</td><td style="vertical-align:top;">:</td><td><div>?0</div></td></tr><tr><td style="font-weight:bold;vertical-align:top;">HTTP_SEC_CH_UA_PLATFORM</td><td style="vertical-align:top;">:</td><td><div>&quot;Windows&quot;</div></td></tr><tr><td style="font-weight:bold;vertical-align:top;">HTTP_SEC_FETCH_DEST</td><td style="vertical-align:top;">:</td><td><div>document</div></td></tr><tr><td style="font-weight:bold;vertical-align:top;">HTTP_SEC_FETCH_MODE</td><td style="vertical-align:top;">:</td><td><div>navigate</div></td></tr><tr><td style="font-weight:bold;vertical-align:top;">HTTP_SEC_FETCH_SITE</td><td style="vertical-align:top;">:</td><td><div>none</div></td></tr><tr><td style="font-weight:bold;vertical-align:top;">HTTP_SEC_FETCH_USER</td><td style="vertical-align:top;">:</td><td><div>?1</div></td></tr><tr><td style="font-weight:bold;vertical-align:top;">HTTP_UPGRADE_INSECURE_REQUESTS</td><td style="vertical-align:top;">:</td><td><div>1</div></td></tr><tr><td style="font-weight:bold;vertical-align:top;">HTTP_USER_AGENT</td><td style="vertical-align:top;">:</td><td><div>Mozilla/5.0 (Windows NT 10.0; Win64; x64) AppleWebKit/537.36 (KHTML, like Gecko) Chrome/128.0.0.0 Safari/537.36</div></td></tr><tr><td style="font-weight:bold;vertical-align:top;">PATH_INFO</td><td style="vertical-align:top;">:</td><td><div>/tai-xe</div></td></tr><tr><td style="font-weight:bold;vertical-align:top;">QUERY_STRING</td><td style="vertical-align:top;">:</td><td><div></div></td></tr><tr><td style="font-weight:bold;vertical-align:top;">REMOTE_ADDR</td><td style="vertical-align:top;">:</td><td><div>127.0.0.1</div></td></tr><tr><td style="font-weight:bold;vertical-align:top;">REMOTE_PORT</td><td style="vertical-align:top;">:</td><td><div>64307</div></td></tr><tr><td style="font-weight:bold;vertical-align:top;">REQUEST_METHOD</td><td style="vertical-align:top;">:</td><td><div>GET</div></td></tr><tr><td style="font-weight:bold;vertical-align:top;">SCRIPT_NAME</td><td style="vertical-align:top;">:</td><td><div></div></td></tr><tr><td style="font-weight:bold;vertical-align:top;">SERVER_NAME</td><td style="vertical-align:top;">:</td><td><div>DESKTOP-GUAHLA8</div></td></tr><tr><td style="font-weight:bold;vertical-align:top;">SERVER_PORT</td><td style="vertical-align:top;">:</td><td><div>8000</div></td></tr><tr><td style="font-weight:bold;vertical-align:top;">SERVER_PROTOCOL</td><td style="vertical-align:top;">:</td><td><div>HTTP/1.1</div></td></tr><tr><td style="font-weight:bold;vertical-align:top;">SERVER_SOFTWARE</td><td style="vertical-align:top;">:</td><td><div>Rocket 1.2.6</div></td></tr><tr><td style="font-weight:bold;vertical-align:top;">app_folders</td><td style="vertical-align:top;">:</td><td><div>set([&#x27;D:\\\\9026-py2\\\\applications\\\\admin\\\\&#x27;, &#x27;D:\\\\9026-py2\\\\applications\\\\cms\\\\&#x27;])</div></td></tr><tr><td style="font-weight:bold;vertical-align:top;">applications_parent</td><td style="vertical-align:top;">:</td><td><div>D:\\9026-py2</div></td></tr><tr><td style="font-weight:bold;vertical-align:top;">cmd_args</td><td style="vertical-align:top;">:</td><td><div><table></table></div></td></tr><tr><td style="font-weight:bold;vertical-align:top;">cmd_options</td><td style="vertical-align:top;">:</td><td><div>&lt;Values at 0x3b3e3f0: {&#x27;verbose&#x27;: False, &#x27;ip&#x27;: &#x27;127.0.0.1&#x27;, &#x27;debuglevel&#x27;: 30, &#x27;with_scheduler&#x27;: False, &#x27;shutdown_timeout&#x27;: 5, &#x27;taskbar&#x27;: False, &#x27;with_coverage&#x27;: False, &#x27;pid_filename&#x27;: &#x27;httpserver.pid&#x27;, &#x27;maxthreads&#x27;: None, &#x27;softcron&#x27;: False, &#x27;server_name&#x27;: &#x27;DESKTOP-GUAHLA8&#x27;, &#x27;bpython&#x27;: False, &#x27;nogui&#x27;: False, &#x27;port&#x27;: 8000, &#x27;print_errors&#x27;: False, &#x27;extcron&#x27;: False, &#x27;runcron&#x27;: False, &#x27;run_system_tests&#x27;: False, &#x27;test&#x27;: None, &#x27;folder&#x27;: &#x27;D:\\\\9026-py2&#x27;, &#x27;config&#x27;: &#x27;&#x27;, &#x27;minthreads&#x27;: None, &#x27;shell&#x27;: None, &#x27;run&#x27;: &#x27;&#x27;, &#x27;log_filename&#x27;: &#x27;httpserver.log&#x27;, &#x27;profiler_dir&#x27;: None, &#x27;args&#x27;: [&#x27;&#x27;], &#x27;socket_timeout&#x27;: 5, &#x27;ssl_ca_certificate&#x27;: None, &#x27;scheduler&#x27;: None, &#x27;interfaces&#x27;: None, &#x27;ssl_private_key&#x27;: &#x27;&#x27;, &#x27;gae&#x27;: None, &#x27;password&#x27;: &#x27;******&#x27;, &#x27;request_queue_size&#x27;: 5, &#x27;ssl_certificate&#x27;: &#x27;&#x27;, &#x27;cronjob&#x27;: False, &#x27;numthreads&#x27;: None, &#x27;quiet&#x27;: False, &#x27;import_models&#x27;: False, &#x27;timeout&#x27;: 10, &#x27;plain&#x27;: False, &#x27;nobanner&#x27;: False}&gt;</div></td></tr><tr><td style="font-weight:bold;vertical-align:top;">db_sessions</td><td style="vertical-align:top;">:</td><td><div>set([])</div></td></tr><tr><td style="font-weight:bold;vertical-align:top;">debugging</td><td style="vertical-align:top;">:</td><td><div>False</div></td></tr><tr><td style="font-weight:bold;vertical-align:top;">gluon_parent</td><td style="vertical-align:top;">:</td><td><div>D:\\9026-py2</div></td></tr><tr><td style="font-weight:bold;vertical-align:top;">http_accept</td><td style="vertical-align:top;">:</td><td><div>text/html,application/xhtml+xml,application/xml;q=0.9,image/avif,image/webp,image/apng,*/*;q=0.8,application/signed-exchange;v=b3;q=0.7</div></td></tr><tr><td style="font-weight:bold;vertical-align:top;">http_accept_encoding</td><td style="vertical-align:top;">:</td><td><div>gzip, deflate, br, zstd</div></td></tr><tr><td style="font-weight:bold;vertical-align:top;">http_accept_language</td><td style="vertical-align:top;">:</td><td><div>en-US,en;q=0.9,vi-VN;q=0.8,vi;q=0.7,fr-FR;q=0.6,fr;q=0.5</div></td></tr><tr><td style="font-weight:bold;vertical-align:top;">http_cache_control</td><td style="vertical-align:top;">:</td><td><div>max-age=0</div></td></tr><tr><td style="font-weight:bold;vertical-align:top;">http_connection</td><td style="vertical-align:top;">:</td><td><div>keep-alive</div></td></tr><tr><td style="font-weight:bold;vertical-align:top;">http_cookie</td><td style="vertical-align:top;">:</td><td><div>nobita-utm=e30=; session_id_admin=127.0.0.1-a1ee8c3b-8c31-45be-8717-79f2344a802a</div></td></tr><tr><td style="font-weight:bold;vertical-align:top;">http_host</td><td style="vertical-align:top;">:</td><td><div>127.0.0.1:8000</div></td></tr><tr><td style="font-weight:bold;vertical-align:top;">http_sec_ch_ua</td><td style="vertical-align:top;">:</td><td><div>&quot;Chromium&quot;;v=&quot;128&quot;, &quot;Not;A=Brand&quot;;v=&quot;24&quot;, &quot;Google Chrome&quot;;v=&quot;128&quot;</div></td></tr><tr><td style="font-weight:bold;vertical-align:top;">http_sec_ch_ua_mobile</td><td style="vertical-align:top;">:</td><td><div>?0</div></td></tr><tr><td style="font-weight:bold;vertical-align:top;">http_sec_ch_ua_platform</td><td style="vertical-align:top;">:</td><td><div>&quot;Windows&quot;</div></td></tr><tr><td style="font-weight:bold;vertical-align:top;">http_sec_fetch_dest</td><td style="vertical-align:top;">:</td><td><div>document</div></td></tr><tr><td style="font-weight:bold;vertical-align:top;">http_sec_fetch_mode</td><td style="vertical-align:top;">:</td><td><div>navigate</div></td></tr><tr><td style="font-weight:bold;vertical-align:top;">http_sec_fetch_site</td><td style="vertical-align:top;">:</td><td><div>none</div></td></tr><tr><td style="font-weight:bold;vertical-align:top;">http_sec_fetch_user</td><td style="vertical-align:top;">:</td><td><div>?1</div></td></tr><tr><td style="font-weight:bold;vertical-align:top;">http_upgrade_insecure_requests</td><td style="vertical-align:top;">:</td><td><div>1</div></td></tr><tr><td style="font-weight:bold;vertical-align:top;">http_user_agent</td><td style="vertical-align:top;">:</td><td><div>Mozilla/5.0 (Windows NT 10.0; Win64; x64) AppleWebKit/537.36 (KHTML, like Gecko) Chrome/128.0.0.0 Safari/537.36</div></td></tr><tr><td style="font-weight:bold;vertical-align:top;">is_jython</td><td style="vertical-align:top;">:</td><td><div>False</div></td></tr><tr><td style="font-weight:bold;vertical-align:top;">is_pypy</td><td style="vertical-align:top;">:</td><td><div>False</div></td></tr><tr><td style="font-weight:bold;vertical-align:top;">is_source</td><td style="vertical-align:top;">:</td><td><div>True</div></td></tr><tr><td style="font-weight:bold;vertical-align:top;">local_hosts</td><td style="vertical-align:top;">:</td><td><div><table><tr><td><div>DESKTOP-GUAHLA8</div></td></tr><tr><td><div>::1</div></td></tr><tr><td><div>192.168.1.115</div></td></tr><tr><td><div>::ffff:127.0.0.1</div></td></tr><tr><td><div>127.0.0.1</div></td></tr></table></div></td></tr><tr><td style="font-weight:bold;vertical-align:top;">path_info</td><td style="vertical-align:top;">:</td><td><div>/tai-xe</div></td></tr><tr><td style="font-weight:bold;vertical-align:top;">query_string</td><td style="vertical-align:top;">:</td><td><div></div></td></tr><tr><td style="font-weight:bold;vertical-align:top;">remote_addr</td><td style="vertical-align:top;">:</td><td><div>127.0.0.1</div></td></tr><tr><td style="font-weight:bold;vertical-align:top;">remote_port</td><td style="vertical-align:top;">:</td><td><div>64307</div></td></tr><tr><td style="font-weight:bold;vertical-align:top;">request_method</td><td style="vertical-align:top;">:</td><td><div>GET</div></td></tr><tr><td style="font-weight:bold;vertical-align:top;">request_uri</td><td style="vertical-align:top;">:</td><td><div>/cms/portal/folder/tai-xe</div></td></tr><tr><td style="font-weight:bold;vertical-align:top;">script_name</td><td style="vertical-align:top;">:</td><td><div></div></td></tr><tr><td style="font-weight:bold;vertical-align:top;">server_name</td><td style="vertical-align:top;">:</td><td><div>DESKTOP-GUAHLA8</div></td></tr><tr><td style="font-weight:bold;vertical-align:top;">server_port</td><td style="vertical-align:top;">:</td><td><div>8000</div></td></tr><tr><td style="font-weight:bold;vertical-align:top;">server_protocol</td><td style="vertical-align:top;">:</td><td><div>HTTP/1.1</div></td></tr><tr><td style="font-weight:bold;vertical-align:top;">server_software</td><td style="vertical-align:top;">:</td><td><div>Rocket 1.2.6</div></td></tr><tr><td style="font-weight:bold;vertical-align:top;">web2py_original_uri</td><td style="vertical-align:top;">:</td><td><div>/tai-xe</div></td></tr><tr><td style="font-weight:bold;vertical-align:top;">web2py_path</td><td style="vertical-align:top;">:</td><td><div>D:\\9026-py2</div></td></tr><tr><td style="font-weight:bold;vertical-align:top;">web2py_version</td><td style="vertical-align:top;">:</td><td><div>2.21.1-stable+timestamp.2020.11.28.04.10.44</div></td></tr><tr><td style="font-weight:bold;vertical-align:top;">wsgi.errors</td><td style="vertical-align:top;">:</td><td><div>&lt;open file &#x27;&lt;stderr&gt;&#x27;, mode &#x27;w&#x27; at 0x02B9D0D0&gt;</div></td></tr><tr><td style="font-weight:bold;vertical-align:top;">wsgi.file_wrapper</td><td style="vertical-align:top;">:</td><td><div>&lt;class wsgiref.util.FileWrapper at 0x03ADC8F0&gt;</div></td></tr><tr><td style="font-weight:bold;vertical-align:top;">wsgi.input</td><td style="vertical-align:top;">:</td><td><div>&lt;socket._fileobject object at 0x03D5E230&gt;</div></td></tr><tr><td style="font-weight:bold;vertical-align:top;">wsgi.multiprocess</td><td style="vertical-align:top;">:</td><td><div>False</div></td></tr><tr><td style="font-weight:bold;vertical-align:top;">wsgi.multithread</td><td style="vertical-align:top;">:</td><td><div>True</div></td></tr><tr><td style="font-weight:bold;vertical-align:top;">wsgi.run_once</td><td style="vertical-align:top;">:</td><td><div>False</div></td></tr><tr><td style="font-weight:bold;vertical-align:top;">wsgi.url_scheme</td><td style="vertical-align:top;">:</td><td><div>http</div></td></tr><tr><td style="font-weight:bold;vertical-align:top;">wsgi.version</td><td style="vertical-align:top;">:</td><td><div><table><tr><td><div>1</div></td></tr><tr><td><div>0</div></td></tr></table></div></td></tr><tr><td style="font-weight:bold;vertical-align:top;">wsgi_errors</td><td style="vertical-align:top;">:</td><td><div>&lt;open file &#x27;&lt;stderr&gt;&#x27;, mode &#x27;w&#x27; at 0x02B9D0D0&gt;</div></td></tr><tr><td style="font-weight:bold;vertical-align:top;">wsgi_file_wrapper</td><td style="vertical-align:top;">:</td><td><div>&lt;class wsgiref.util.FileWrapper at 0x03ADC8F0&gt;</div></td></tr><tr><td style="font-weight:bold;vertical-align:top;">wsgi_input</td><td style="vertical-align:top;">:</td><td><div>&lt;socket._fileobject object at 0x03D5E230&gt;</div></td></tr><tr><td style="font-weight:bold;vertical-align:top;">wsgi_multiprocess</td><td style="vertical-align:top;">:</td><td><div>False</div></td></tr><tr><td style="font-weight:bold;vertical-align:top;">wsgi_multithread</td><td style="vertical-align:top;">:</td><td><div>True</div></td></tr><tr><td style="font-weight:bold;vertical-align:top;">wsgi_run_once</td><td style="vertical-align:top;">:</td><td><div>False</div></td></tr><tr><td style="font-weight:bold;vertical-align:top;">wsgi_url_scheme</td><td style="vertical-align:top;">:</td><td><div>http</div></td></tr><tr><td style="font-weight:bold;vertical-align:top;">wsgi_version</td><td style="vertical-align:top;">:</td><td><div><table><tr><td><div>1</div></td></tr><tr><td><div>0</div></td></tr></table></div></td></tr></table></div></td></tr><tr><td style="font-weight:bold;vertical-align:top;">extension</td><td style="vertical-align:top;">:</td><td><div>html</div></td></tr><tr><td style="font-weight:bold;vertical-align:top;">folder</td><td style="vertical-align:top;">:</td><td><div>D:\\9026-py2\\applications\\cms\\</div></td></tr><tr><td style="font-weight:bold;vertical-align:top;">function</td><td style="vertical-align:top;">:</td><td><div>folder</div></td></tr><tr><td style="font-weight:bold;vertical-align:top;">global_settings</td><td style="vertical-align:top;">:</td><td><div><table><tr><td style="font-weight:bold;vertical-align:top;">app_folders</td><td style="vertical-align:top;">:</td><td><div>set([&#x27;D:\\\\9026-py2\\\\applications\\\\admin\\\\&#x27;, &#x27;D:\\\\9026-py2\\\\applications\\\\cms\\\\&#x27;])</div></td></tr><tr><td style="font-weight:bold;vertical-align:top;">applications_parent</td><td style="vertical-align:top;">:</td><td><div>D:\\9026-py2</div></td></tr><tr><td style="font-weight:bold;vertical-align:top;">cmd_args</td><td style="vertical-align:top;">:</td><td><div><table></table></div></td></tr><tr><td style="font-weight:bold;vertical-align:top;">cmd_options</td><td style="vertical-align:top;">:</td><td><div>&lt;Values at 0x3b3e3f0: {&#x27;verbose&#x27;: False, &#x27;ip&#x27;: &#x27;127.0.0.1&#x27;, &#x27;debuglevel&#x27;: 30, &#x27;with_scheduler&#x27;: False, &#x27;shutdown_timeout&#x27;: 5, &#x27;taskbar&#x27;: False, &#x27;with_coverage&#x27;: False, &#x27;pid_filename&#x27;: &#x27;httpserver.pid&#x27;, &#x27;maxthreads&#x27;: None, &#x27;softcron&#x27;: False, &#x27;server_name&#x27;: &#x27;DESKTOP-GUAHLA8&#x27;, &#x27;bpython&#x27;: False, &#x27;nogui&#x27;: False, &#x27;port&#x27;: 8000, &#x27;print_errors&#x27;: False, &#x27;extcron&#x27;: False, &#x27;runcron&#x27;: False, &#x27;run_system_tests&#x27;: False, &#x27;test&#x27;: None, &#x27;folder&#x27;: &#x27;D:\\\\9026-py2&#x27;, &#x27;config&#x27;: &#x27;&#x27;, &#x27;minthreads&#x27;: None, &#x27;shell&#x27;: None, &#x27;run&#x27;: &#x27;&#x27;, &#x27;log_filename&#x27;: &#x27;httpserver.log&#x27;, &#x27;profiler_dir&#x27;: None, &#x27;args&#x27;: [&#x27;&#x27;], &#x27;socket_timeout&#x27;: 5, &#x27;ssl_ca_certificate&#x27;: None, &#x27;scheduler&#x27;: None, &#x27;interfaces&#x27;: None, &#x27;ssl_private_key&#x27;: &#x27;&#x27;, &#x27;gae&#x27;: None, &#x27;password&#x27;: &#x27;******&#x27;, &#x27;request_queue_size&#x27;: 5, &#x27;ssl_certificate&#x27;: &#x27;&#x27;, &#x27;cronjob&#x27;: False, &#x27;numthreads&#x27;: None, &#x27;quiet&#x27;: False, &#x27;import_models&#x27;: False, &#x27;timeout&#x27;: 10, &#x27;plain&#x27;: False, &#x27;nobanner&#x27;: False}&gt;</div></td></tr><tr><td style="font-weight:bold;vertical-align:top;">db_sessions</td><td style="vertical-align:top;">:</td><td><div>set([])</div></td></tr><tr><td style="font-weight:bold;vertical-align:top;">debugging</td><td style="vertical-align:top;">:</td><td><div>False</div></td></tr><tr><td style="font-weight:bold;vertical-align:top;">gluon_parent</td><td style="vertical-align:top;">:</td><td><div>D:\\9026-py2</div></td></tr><tr><td style="font-weight:bold;vertical-align:top;">is_jython</td><td style="vertical-align:top;">:</td><td><div>False</div></td></tr><tr><td style="font-weight:bold;vertical-align:top;">is_pypy</td><td style="vertical-align:top;">:</td><td><div>False</div></td></tr><tr><td style="font-weight:bold;vertical-align:top;">is_source</td><td style="vertical-align:top;">:</td><td><div>True</div></td></tr><tr><td style="font-weight:bold;vertical-align:top;">local_hosts</td><td style="vertical-align:top;">:</td><td><div><table><tr><td><div>DESKTOP-GUAHLA8</div></td></tr><tr><td><div>::1</div></td></tr><tr><td><div>192.168.1.115</div></td></tr><tr><td><div>::ffff:127.0.0.1</div></td></tr><tr><td><div>127.0.0.1</div></td></tr></table></div></td></tr><tr><td style="font-weight:bold;vertical-align:top;">web2py_version</td><td style="vertical-align:top;">:</td><td><div>2.21.1-stable+timestamp.2020.11.28.04.10.44</div></td></tr></table></div></td></tr><tr><td style="font-weight:bold;vertical-align:top;">is_https</td><td style="vertical-align:top;">:</td><td><div>False</div></td></tr><tr><td style="font-weight:bold;vertical-align:top;">is_local</td><td style="vertical-align:top;">:</td><td><div>True</div></td></tr><tr><td style="font-weight:bold;vertical-align:top;">is_restful</td><td style="vertical-align:top;">:</td><td><div>False</div></td></tr><tr><td style="font-weight:bold;vertical-align:top;">is_scheduler</td><td style="vertical-align:top;">:</td><td><div>False</div></td></tr><tr><td style="font-weight:bold;vertical-align:top;">is_shell</td><td style="vertical-align:top;">:</td><td><div>False</div></td></tr><tr><td style="font-weight:bold;vertical-align:top;">now</td><td style="vertical-align:top;">:</td><td><div>datetime.datetime(2024, 9, 21, 13, 50, 25, 870000)</div></td></tr><tr><td style="font-weight:bold;vertical-align:top;">url</td><td style="vertical-align:top;">:</td><td><div>/tai-xe</div></td></tr><tr><td style="font-weight:bold;vertical-align:top;">utcnow</td><td style="vertical-align:top;">:</td><td><div>datetime.datetime(2024, 9, 21, 6, 50, 25, 870000)</div></td></tr><tr><td style="font-weight:bold;vertical-align:top;">wsgi</td><td style="vertical-align:top;">:</td><td><div>&lt;gluon.main.LazyWSGI object at 0x06E3DB70&gt;</div></td></tr></table></div>'
tRp70
sS'frames'
p71
(lp72
(dp73
S'file'
p74
S'D:\\9026-py2\\gluon\\restricted.py'
p75
sS'dump'
p76
(dp77
S'code'
p78
S'\'response.write(\\\'<!doctype html>\\\\r\\\\n<html lang="e...write(\\\'\\\\r\\\\n</body>\\\\r\\\\n\\\\r\\\\n</html>\\\', escape=False)\''
p79
sS'layer'
p80
S"r'D:\\9026-py2\\applications\\cms\\views\\site/ghephang/default/taixe.html'"
p81
sS'global compile2'
p82
S'<function compile2>'
p83
sS'ccode'
p84
S'undefined'
p85
ssS'lnum'
p86
I226
sS'lines'
p87
(dp88
I224
S'            ccode = code'
p89
sI225
S'        else:'
p90
sI226
S'            ccode = compile2(code, layer)'
p91
sI227
S'        exec ccode in environment'
p92
sI228
S'    except HTTP:'
p93
sI229
S'        raise'
p94
sI230
S'    except RestrictedError:'
p95
sI221
S"    environment['__name__'] = '__restricted__'"
p96
sI222
S'    try:'
p97
sI223
S'        if isinstance(code, types.CodeType):'
p98
ssS'call'
p99
S'(code=\'response.write(\\\'<!doctype html>\\\\r\\\\n<html lang="e...write(\\\'\\\\r\\\\n</body>\\\\r\\\\n\\\\r\\\\n</html>\\\', escape=False)\', environment={\'A\': <class \'gluon.html.A\'>, \'ANY_OF\': <class \'gluon.validators.ANY_OF\'>, \'ASSIGNJS\': <function ASSIGNJS>, \'AppConfig\': <function AppConfig>, \'Auth\': <class \'gluon.tools.Auth\'>, \'B\': <class \'gluon.html.B\'>, \'BEAUTIFY\': <class \'gluon.html.BEAUTIFY\'>, \'BODY\': <class \'gluon.html.BODY\'>, \'BR\': <class \'gluon.html.BR\'>, \'BUTTON\': <class \'gluon.html.BUTTON\'>, ...}, layer=r\'D:\\9026-py2\\applications\\cms\\views\\site/ghephang/default/taixe.html\')'
p100
sS'func'
p101
S'restricted'
p102
sa(dp103
g74
S'D:\\9026-py2\\gluon\\restricted.py'
p104
sg76
(dp105
S'builtincompile'
p106
S'<built-in function compile>'
p107
sS'code'
p108
S'\'response.write(\\\'<!doctype html>\\\\r\\\\n<html lang="e...write(\\\'\\\\r\\\\n</body>\\\\r\\\\n\\\\r\\\\n</html>\\\', escape=False)\''
p109
sS'code.rstrip'
p110
S'<built-in method rstrip of str object>'
p111
sS').replace'
p112
g85
sS'layer'
p113
S"r'D:\\9026-py2\\applications\\cms\\views\\site/ghephang/default/taixe.html'"
p114
ssg86
I209
sg87
(dp115
I204
S'def compile2(code, layer):'
p116
sI205
S'    """'
p117
sI206
S"    The ``+'\\\\n'`` is necessary else compile fails when code ends in a comment."
p118
sI207
S'    """'
p119
sI208
S''
sI209
S"    return compile(code.rstrip().replace('\\r\\n', '\\n') + '\\n', layer, 'exec')"
p120
sI210
S''
sI211
S''
sI212
S"def restricted(code, environment=None, layer='Unknown'):"
p121
sI213
S'    """'
p122
ssg99
S'(code=\'response.write(\\\'<!doctype html>\\\\r\\\\n<html lang="e...write(\\\'\\\\r\\\\n</body>\\\\r\\\\n\\\\r\\\\n</html>\\\', escape=False)\', layer=r\'D:\\9026-py2\\applications\\cms\\views\\site/ghephang/default/taixe.html\')'
p123
sg101
S'compile2'
p124
sasS'pyver'
p125
S'Python 2.7.18: C:\\Python27\\python.exe (prefix: C:\\Python27)'
p126
sS'session'
p127
g69
(S's\x1a\x00\x00\x00<div><table></table></div>'
tRp128
sS'etype'
p129
S"<type 'exceptions.SyntaxError'>"
p130
sS'date'
p131
S'Sat Sep 21 13:50:25 2024'
p132
sS'response'
p133
g69
(S's\x1b\x16\x00\x00<div><table><tr><td style="font-weight:bold;vertical-align:top;">body</td><td style="vertical-align:top;">:</td><td><div>&lt;cStringIO.StringO object at 0x06E3DC40&gt;</div></td></tr><tr><td style="font-weight:bold;vertical-align:top;">cookies</td><td style="vertical-align:top;">:</td><td><div><table><tr><td style="font-weight:bold;vertical-align:top;">session_id_cms</td><td style="vertical-align:top;">:</td><td><div>127.0.0.1-86321514-83a7-4e41-a597-c153dd55a6e9<table><tr><td style="font-weight:bold;vertical-align:top;">comment</td><td style="vertical-align:top;">:</td><td><div></div></td></tr><tr><td style="font-weight:bold;vertical-align:top;">domain</td><td style="vertical-align:top;">:</td><td><div></div></td></tr><tr><td style="font-weight:bold;vertical-align:top;">expires</td><td style="vertical-align:top;">:</td><td><div></div></td></tr><tr><td style="font-weight:bold;vertical-align:top;">httponly</td><td style="vertical-align:top;">:</td><td><div></div></td></tr><tr><td style="font-weight:bold;vertical-align:top;">max-age</td><td style="vertical-align:top;">:</td><td><div></div></td></tr><tr><td style="font-weight:bold;vertical-align:top;">path</td><td style="vertical-align:top;">:</td><td><div>/</div></td></tr><tr><td style="font-weight:bold;vertical-align:top;">secure</td><td style="vertical-align:top;">:</td><td><div></div></td></tr><tr><td style="font-weight:bold;vertical-align:top;">version</td><td style="vertical-align:top;">:</td><td><div></div></td></tr></table></div></td></tr></table></div></td></tr><tr><td style="font-weight:bold;vertical-align:top;">delimiters</td><td style="vertical-align:top;">:</td><td><div><table><tr><td><div>{{</div></td></tr><tr><td><div>}}</div></td></tr></table></div></td></tr><tr><td style="font-weight:bold;vertical-align:top;">files</td><td style="vertical-align:top;">:</td><td><div><table></table></div></td></tr><tr><td style="font-weight:bold;vertical-align:top;">flash</td><td style="vertical-align:top;">:</td><td><div></div></td></tr><tr><td style="font-weight:bold;vertical-align:top;">form_label_separator</td><td style="vertical-align:top;">:</td><td><div></div></td></tr><tr><td style="font-weight:bold;vertical-align:top;">formstyle</td><td style="vertical-align:top;">:</td><td><div>bootstrap3_inline</div></td></tr><tr><td style="font-weight:bold;vertical-align:top;">generic_patterns</td><td style="vertical-align:top;">:</td><td><div><table><tr><td><div>*</div></td></tr></table></div></td></tr><tr><td style="font-weight:bold;vertical-align:top;">headers</td><td style="vertical-align:top;">:</td><td><div><table><tr><td style="font-weight:bold;vertical-align:top;">X-Powered-By</td><td style="vertical-align:top;">:</td><td><div>web2py</div></td></tr></table></div></td></tr><tr><td style="font-weight:bold;vertical-align:top;">menu</td><td style="vertical-align:top;">:</td><td><div><table></table></div></td></tr><tr><td style="font-weight:bold;vertical-align:top;">meta</td><td style="vertical-align:top;">:</td><td><div><table></table></div></td></tr><tr><td style="font-weight:bold;vertical-align:top;">models_to_run</td><td style="vertical-align:top;">:</td><td><div><table><tr><td><div>^\\w+\\.py$</div></td></tr><tr><td><div>^portal/\\w+\\.py$</div></td></tr><tr><td><div>^portal/folder/\\w+\\.py$</div></td></tr></table></div></td></tr><tr><td style="font-weight:bold;vertical-align:top;">postprocessing</td><td style="vertical-align:top;">:</td><td><div><table></table></div></td></tr><tr><td style="font-weight:bold;vertical-align:top;">session_client</td><td style="vertical-align:top;">:</td><td><div>127.0.0.1</div></td></tr><tr><td style="font-weight:bold;vertical-align:top;">session_cookie_compression_level</td><td style="vertical-align:top;">:</td><td><div>None</div></td></tr><tr><td style="font-weight:bold;vertical-align:top;">session_cookie_expires</td><td style="vertical-align:top;">:</td><td><div>None</div></td></tr><tr><td style="font-weight:bold;vertical-align:top;">session_data_name</td><td style="vertical-align:top;">:</td><td><div>session_data_cms</div></td></tr><tr><td style="font-weight:bold;vertical-align:top;">session_file</td><td style="vertical-align:top;">:</td><td><div>None</div></td></tr><tr><td style="font-weight:bold;vertical-align:top;">session_filename</td><td style="vertical-align:top;">:</td><td><div>D:\\9026-py2\\applications\\cms\\sessions\\127.0.0.1-86321514-83a7-4e41-a597-c153dd55a6e9</div></td></tr><tr><td style="font-weight:bold;vertical-align:top;">session_hash</td><td style="vertical-align:top;">:</td><td><div>c0762cbf4baf7f9af97c051e7fcb8083</div></td></tr><tr><td style="font-weight:bold;vertical-align:top;">session_id</td><td style="vertical-align:top;">:</td><td><div>127.0.0.1-86321514-83a7-4e41-a597-c153dd55a6e9</div></td></tr><tr><td style="font-weight:bold;vertical-align:top;">session_id_name</td><td style="vertical-align:top;">:</td><td><div>session_id_cms</div></td></tr><tr><td style="font-weight:bold;vertical-align:top;">session_masterapp</td><td style="vertical-align:top;">:</td><td><div>cms</div></td></tr><tr><td style="font-weight:bold;vertical-align:top;">session_new</td><td style="vertical-align:top;">:</td><td><div>True</div></td></tr><tr><td style="font-weight:bold;vertical-align:top;">session_storage_type</td><td style="vertical-align:top;">:</td><td><div>file</div></td></tr><tr><td style="font-weight:bold;vertical-align:top;">status</td><td style="vertical-align:top;">:</td><td><div>200</div></td></tr><tr><td style="font-weight:bold;vertical-align:top;">view</td><td style="vertical-align:top;">:</td><td><div>site/ghephang/default/taixe.html</div></td></tr></table></div>'
tRp134
sS'locals'
p135
(dp136
g4
S"r'D:\\9026-py2\\applications\\cms\\views\\site/ghephang/default/taixe.html'"
p137
sg6
S'\'response.write(\\\'<!doctype html>\\\\r\\\\n<html lang="e...write(\\\'\\\\r\\\\n</body>\\\\r\\\\n\\\\r\\\\n</html>\\\', escape=False)\''
p138
sssS'traceback'
p139
S'Traceback (most recent call last):\n  File "D:\\9026-py2\\gluon\\restricted.py", line 226, in restricted\n    ccode = compile2(code, layer)\n  File "D:\\9026-py2\\gluon\\restricted.py", line 209, in compile2\n    return compile(code.rstrip().replace(\'\\r\\n\', \'\\n\') + \'\\n\', layer, \'exec\')\n  File "D:\\9026-py2\\applications\\cms\\views\\site/ghephang/default/taixe.html", line 90\n    \'content\': P(\'Th\xc3\xaam thu nh\xe1\xba\xadp, ch\xe1\xbb\xa7 \xc4\x91\xe1\xbb\x99ng c\xc3\xb4ng vi\xe1\xbb\x87c, linh ho\xe1\xba\xa1t th\xe1\xbb\x9di gian khi tr\xe1\xbb\x9f th\xc3\xa0nh \xc4\x91\xe1\xbb\x91i t\xc3\xa1c t\xc3\xa0i x\xe1\xba\xbf Ghephang. H\xc3\xa3y \xc4\x91i\xe1\xbb\x81n\n                                                                                                                                                    ^\nSyntaxError: EOL while scanning string literal\n'
p140
s.