(dp1
S'output'
p2
S"<type 'exceptions.IOError'> [Errno 22] Invalid argument"
p3
sS'layer'
p4
S'C:\\Users\\F6\\Downloads\\bahadi\\9026-py2\\applications\\cms\\views\\site/ghephang/default/404.html'
p5
sS'code'
p6
S'response.write(\' \', escape=False)\nresponse.write(\'<!doctype html>\\r\\n<html lang="en">\\r\\n\\r\\n\', escape=False)\nstatic_default=\'site/ghephang/template/default\'\nresponse.write(\'\\r\\n\', escape=False)\nstatic_view=\'site/ghephang/default\'\nresponse.write(\'\\r\\n\', escape=False)\nresponse.write(\'\\r\\n    \', escape=False)\nis_page = "page"\nresponse.write(\'\\r\\n    \', escape=False)\nclass_top = ""\nresponse.write(\'\\r\\n\', escape=False)\nresponse.write(\'\\r\\n\\r\\n<head>\\r\\n    <!-- Required meta tags -->\\r\\n    <meta charset="utf-8">\\r\\n    <meta name="viewport" content="width=device-width, initial-scale=1, shrink-to-fit=no">\\r\\n    \', escape=False)\nresponse.write(cms.metadc())\nresponse.write(\'\\r\\n    <!-- Bootstrap Min CSS -->\\r\\n    <link rel="stylesheet" href="\', escape=False)\nresponse.write(URL(\'static\',\'%s/css\')%(static_default))\nresponse.write(\'/bootstrap.min.css">\\r\\n    <!-- Owl Theme Default Min CSS -->\\r\\n    <link rel="stylesheet" href="\', escape=False)\nresponse.write(URL(\'static\',\'%s/css\')%(static_default))\nresponse.write(\'/owl.theme.default.min.css">\\r\\n    <!-- Owl Carousel Min CSS -->\\r\\n    <link rel="stylesheet" href="\', escape=False)\nresponse.write(URL(\'static\',\'%s/css\')%(static_default))\nresponse.write(\'/owl.carousel.min.css">\\r\\n    <!-- Owl Magnific Min CSS -->\\r\\n    <link rel="stylesheet" href="\', escape=False)\nresponse.write(URL(\'static\',\'%s/css\')%(static_default))\nresponse.write(\'/magnific-popup.min.css">\\r\\n    <!-- Animate Min CSS -->\\r\\n    <link rel="stylesheet" href="\', escape=False)\nresponse.write(URL(\'static\',\'%s/css\')%(static_default))\nresponse.write(\'/animate.min.css">\\r\\n    <!-- Boxicons Min CSS -->\\r\\n    <link rel="stylesheet" href="\', escape=False)\nresponse.write(URL(\'static\',\'%s/css\')%(static_default))\nresponse.write(\'/boxicons.min.css">\\r\\n    <!-- Flaticon CSS -->\\r\\n    <link rel="stylesheet" href="\', escape=False)\nresponse.write(URL(\'static\',\'%s/css\')%(static_default))\nresponse.write(\'/flaticon.css">\\r\\n    <!-- Meanmenu Min CSS -->\\r\\n    <link rel="stylesheet" href="\', escape=False)\nresponse.write(URL(\'static\',\'%s/css\')%(static_default))\nresponse.write(\'/meanmenu.min.css">\\r\\n    <!-- Nice Select Min CSS -->\\r\\n    <!-- <link rel="stylesheet" href="\', escape=False)\nresponse.write(URL(\'static\',\'%s/css\')%(static_default))\nresponse.write(\'/nice-select.min.css"> -->\\r\\n    <!-- Odometer Min CSS-->\\r\\n    <link rel="stylesheet" href="\', escape=False)\nresponse.write(URL(\'static\',\'%s/css\')%(static_default))\nresponse.write(\'/odometer.min.css">\\r\\n    <!-- Style CSS -->\\r\\n    <link rel="stylesheet" href="\', escape=False)\nresponse.write(URL(\'static\',\'%s/css\')%(static_default))\nresponse.write(\'/style.css">\\r\\n    <!-- Dark CSS -->\\r\\n    <link rel="stylesheet" href="\', escape=False)\nresponse.write(URL(\'static\',\'%s/css\')%(static_default))\nresponse.write(\'/dark.css">\\r\\n    <!-- Responsive CSS -->\\r\\n    <link rel="stylesheet" href="\', escape=False)\nresponse.write(URL(\'static\',\'%s/css\')%(static_default))\nresponse.write(\'/responsive.css">\\r\\n    \', escape=False)\nresponse.write(\'\\r\\n    \', escape=False)\nresponse.write(\'\\r\\n    \', escape=False)\nresponse.write(\'\\n<script type="text/javascript"><!--\\n    // These variables are used by the web2py_ajax_init function in web2py_ajax.js (which is loaded below).\\n    var w2p_ajax_confirm_message = "\', escape=False)\nresponse.write(T(\'Are you sure you want to delete this object?\'))\nresponse.write(\'";\\n    var w2p_ajax_disable_with_message = "\', escape=False)\nresponse.write(T(\'Working...\'))\nresponse.write(\'";\\n    var w2p_ajax_date_format = "\', escape=False)\nresponse.write(T(\'%d/%m/%Y\'))\nresponse.write(\'";\\n    var w2p_ajax_datetime_format = "\', escape=False)\nresponse.write(T(\'%d/%m/%Y %H:%M:%S\'))\nresponse.write(\'";\\n    var ajax_error_500 = \\\'\', escape=False)\nresponse.write(T.M(\'An error occured, please [[reload %s]] the page\') % URL(args=request.args, vars=request.get_vars))\nresponse.write("\'\\n    //--></script>\\n", escape=False)\nresponse.files.insert(0,URL(\'static\',\'js/jquery.js\'))\nresponse.files.insert(1,URL(\'static\',\'css/calendar.css\'))\nresponse.files.insert(2,URL(\'static\',\'js/calendar.js\'))\nresponse.files.insert(3,URL(\'static\',\'js/web2py.js\'))\nresponse.files.insert(3,URL(\'static\',\'js/jquery.browser.min.js\'))\nresponse.include_meta()\nresponse.include_files()\nresponse.write(\'\\n\', escape=False)\nresponse.write(\'\\r\\n    <!-- Favicon -->\\r\\n    <!-- Title -->\\r\\n    <style>\\r\\n\\r\\n\\r\\n        body {\\r\\n            font-family: \\\'Cabin\\\', sans-serif;\\r\\n            margin: 0;\\r\\n            padding: 0;\\r\\n            box-sizing: border-box;\\r\\n            background-color: #f5f5f5;\\r\\n        }\\r\\n        .app-form{\\r\\n\\r\\n            display: flex;\\r\\n            justify-content: center;\\r\\n            align-items: center;\\r\\n\\r\\n        }\\r\\n        .app-form-1 {\\r\\n    flex-shrink: 0;\\r\\n    margin: 20px;\\r\\n    padding: 15px 0;\\r\\n    background-color: rgba(241, 243, 244, 0.8);\\r\\n    display: flex;\\r\\n    flex-direction: column;\\r\\n    justify-content: center;\\r\\n    align-items: center;\\r\\n    box-sizing: border-box;\\r\\n    width: 400px; /* Gi\\xc3\\xa1 tr\\xe1\\xbb\\x8b m\\xe1\\xba\\xb7c \\xc4\\x91\\xe1\\xbb\\x8bnh */\\r\\n    border-radius:30px;\\r\\n\\r\\n}\\r\\n\\r\\n@media (min-width: 601px) {\\r\\n    .app-form-1 {\\r\\n        width: 600px; /* Khi m\\xc3\\xa0n h\\xc3\\xacnh r\\xe1\\xbb\\x99ng h\\xc6\\xa1n 600px, width s\\xe1\\xba\\xbd l\\xc3\\xa0 600px */\\r\\n    }\\r\\n\\r\\n}\\r\\n\\r\\n@media (max-width: 1245px) {\\r\\n    .app-form-1 {\\r\\n        width: 500px; /* Khi m\\xc3\\xa0n h\\xc3\\xacnh nh\\xe1\\xbb\\x8f h\\xc6\\xa1n 600px, width s\\xe1\\xba\\xbd l\\xc3\\xa0 400px */\\r\\n    }\\r\\n}\\r\\n@media (max-width: 960px) {\\r\\n    .app-form-1 {\\r\\n        width: 400px; /* Khi m\\xc3\\xa0n h\\xc3\\xacnh nh\\xe1\\xbb\\x8f h\\xc6\\xa1n 600px, width s\\xe1\\xba\\xbd l\\xc3\\xa0 400px */\\r\\n    }\\r\\n}\\r\\n@media (max-width: 843px) {\\r\\n    .app-form-1 {\\r\\n        width: 300px; /* Khi m\\xc3\\xa0n h\\xc3\\xacnh nh\\xe1\\xbb\\x8f h\\xc6\\xa1n 600px, width s\\xe1\\xba\\xbd l\\xc3\\xa0 400px */\\r\\n    }\\r\\n}\\r\\n        .text-1 {\\r\\n            text-align: center;\\r\\n            display: block;\\r\\n\\r\\n            font-size: 30px;\\r\\n            color: #3C3C3B;\\r\\n        }\\r\\n\\r\\n        .icon-button {\\r\\n            display: flex;\\r\\n            justify-content: center;\\r\\n            align-items: center;\\r\\n            margin: 15px;\\r\\n            max-width: 100%;\\r\\n            gap: 10px;\\r\\n        }\\r\\n\\r\\n        .images-logo {\\r\\n\\r\\n            width: 150px;\\r\\n\\r\\n            display: block;\\r\\n            margin: 10px auto;\\r\\n            overflow: hidden;\\r\\n        }\\r\\n\\r\\n        .images-logo img {\\r\\n            max-width: 150px ;\\r\\n            height: auto;\\r\\n\\r\\n        }\\r\\n        .icon-button-app {\\r\\n            width: 150px;\\r\\n            margin: 0 5px;\\r\\n        }\\r\\n\\r\\n        @media (max-width: 768px) {\\r\\n            .app-form {\\r\\n                flex-direction: column;\\r\\n\\r\\n            }\\r\\n\\r\\n            .app-form-1 {\\r\\n                width: 100%;\\r\\n                max-width: none;\\r\\n\\r\\n            }\\r\\n\\r\\n            .icon-button-app {\\r\\n                width: 100px;\\r\\n            }\\r\\n        }\\r\\n        .search-wrap .container {\\r\\n            margin-top: 50px;\\r\\n            padding: 60px 40px;\\r\\n            transform: translatey(0);\\r\\n            background: white;\\r\\n        }\\r\\n\\r\\n        .form:not(.open) iframe {\\r\\n            display: none\\r\\n        }\\r\\n\\r\\n        #overlay {\\r\\n            position: fixed;\\r\\n            display: none;\\r\\n            width: 100%;\\r\\n            height: 100%;\\r\\n            top: 0;\\r\\n            left: 0;\\r\\n            right: 0;\\r\\n            bottom: 0;\\r\\n            background-color: rgba(0, 0, 0, 0.5);\\r\\n            z-index: 2;\\r\\n            cursor: pointer;\\r\\n        }\\r\\n\\r\\n        .floating-action-menu {\\r\\n            bottom: 10px;\\r\\n            right: 10px;\\r\\n            z-index: 999;\\r\\n        }\\r\\n\\r\\n        .text-right {\\r\\n            text-align: right !important;\\r\\n        }\\r\\n\\r\\n        .floating-action-menu>.action-menu {\\r\\n            visibility: hidden;\\r\\n            -webkit-transform: translateY(65px);\\r\\n            transform: translateY(65px);\\r\\n            opacity: 0;\\r\\n            max-height: 0;\\r\\n            overflow: hidden;\\r\\n            -webkit-transition: all 300ms linear;\\r\\n            transition: all 300ms linear;\\r\\n        }\\r\\n\\r\\n        .floating-action {\\r\\n            background-color: #fff;\\r\\n            border-radius: 28px;\\r\\n            margin-top: 5px;\\r\\n            width: -webkit-fit-content;\\r\\n            width: -moz-fit-content;\\r\\n            width: fit-content;\\r\\n            float: right;\\r\\n            clear: both;\\r\\n        }\\r\\n\\r\\n        .floating-action:hover {\\r\\n            background-color: #fff4f3;\\r\\n        }\\r\\n\\r\\n        .floating-action-menu.active>.action-menu {\\r\\n            visibility: visible;\\r\\n            -webkit-transform: translate(0);\\r\\n            transform: translate(0);\\r\\n            opacity: 1;\\r\\n            padding-bottom: 5px;\\r\\n            max-height: 1000px;\\r\\n        }\\r\\n\\r\\n        .floating-action .badge {\\r\\n            font-weight: 400;\\r\\n            font-size: 15px;\\r\\n            line-height: 18px;\\r\\n            color: #1a1a1a;\\r\\n        }\\r\\n\\r\\n        .badge {\\r\\n            display: inline-block;\\r\\n            padding: 0.25em 0.4em;\\r\\n            font-size: 75%;\\r\\n            font-weight: 500;\\r\\n            line-height: 1;\\r\\n            text-align: center;\\r\\n            white-space: nowrap;\\r\\n            vertical-align: baseline;\\r\\n            border-radius: 0.25rem;\\r\\n        }\\r\\n\\r\\n        a.floating-action:hover .badge {\\r\\n            color: #fa4612;\\r\\n        }\\r\\n\\r\\n\\r\\n\\r\\n        .floating-action-menu.active>.action-menu .btn-floating,\\r\\n        .floating-action-menu.active>.action-menu .badge {\\r\\n            -webkit-transform: scale(1);\\r\\n            transform: scale(1);\\r\\n        }\\r\\n\\r\\n        .floating-action-menu>.action-menu .btn-floating,\\r\\n        .floating-action-menu>.action-menu .badge {\\r\\n            -webkit-transform: scale(0.4);\\r\\n            transform: scale(0.4);\\r\\n            -webkit-transition: all 300ms ease-in-out;\\r\\n            transition: all 300ms ease-in-out;\\r\\n        }\\r\\n\\r\\n    </style>\\r\\n    <meta name="zalo-platform-site-verification" content="EFQQUBBhINfPxUCbXUDg65AIxZo-x3LaD3O" />\\r\\n</head>\\r\\n\\r\\n<body>\\r\\n    <!-- Start Preloader Area -->\\r\\n    <div class="preloader">\\r\\n        <div class="lds-ripple">\\r\\n            <div></div>\\r\\n            <div></div>\\r\\n        </div>\\r\\n    </div>\\r\\n    <!-- End Preloader Area -->\\r\\n    \', escape=False)\nresponse.write(\' \', escape=False)\nresponse.write(\'\\r\\n    \', escape=False)\nresponse.write(\'<header class="header-area-four \', escape=False)\nresponse.write(class_top)\nresponse.write(\'">\\r\\n    <!-- Start Top Header Area -->\\r\\n    <div class="header-style-four">\\r\\n        <div class="container">\\r\\n            <div class="row align-items-center">\\r\\n                <div class="col-lg-4 col-md-5">\\r\\n                    <div class="header-left-content">\\r\\n                        <ul>\\r\\n                            <li>\\r\\n                                <a href="tel:1900888678">\\r\\n                                    <i class="bx bx-phone-call"></i>\\r\\n                                    1900.888.678\\r\\n                                </a>\\r\\n                            </li>\\r\\n                            <li>\\r\\n                                <a href="mailto:info@ghephang.com">\\r\\n                                    <i class="bx bx-envelope"></i>\\r\\n                                    [info@ghephang.com]\\r\\n                                </a>\\r\\n                            </li>\\r\\n                        </ul>\\r\\n                    </div>\\r\\n                </div>\\r\\n                <div class="col-lg-8 col-md-7">\\r\\n                    <div class="header-right-content">\\r\\n                        <ul class="additional-link">\\r\\n                            <li>\\r\\n                                <a href="/uu-dai">\\xc6\\xafu \\xc4\\x91\\xc3\\xa3i</a>\\r\\n                            </li>\\r\\n                            <li>\\r\\n                                <a href="/tuyen-dung">Tuy\\xe1\\xbb\\x83n d\\xe1\\xbb\\xa5ng</a>\\r\\n                            </li>\\r\\n                            <li>\\r\\n                                <a href="/faq">C\\xc3\\xa2u h\\xe1\\xbb\\x8fi th\\xc6\\xb0\\xe1\\xbb\\x9dng g\\xe1\\xba\\xb7p</a>\\r\\n                            </li>\\r\\n                        </ul>\\r\\n                        <ul class="social-links">\\r\\n                             \', escape=False)\nresponse.write(\'<li>\\r\\n    <a href="#">\\r\\n        <i class=\\\'bx bxl-twitter\\\'></i>\\r\\n    </a>\\r\\n</li>\\r\\n<li>\\r\\n    <a href="#">\\r\\n        <i class=\\\'bx bxl-facebook\\\'></i>\\r\\n    </a>\\r\\n</li>\\r\\n<li>\\r\\n    <a href="#">\\r\\n        <i class=\\\'bx bxl-instagram\\\'></i>\\r\\n    </a>\\r\\n</li>\\r\\n<li>\\r\\n    <a href="#">\\r\\n        <i class=\\\'bx bxl-linkedin\\\'></i>\\r\\n    </a>\\r\\n</li>\\r\\n\', escape=False)\nresponse.write(\'\\r\\n                        </ul>\\r\\n                    </div>\\r\\n                </div>\\r\\n            </div>\\r\\n        </div>\\r\\n    </div>\\r\\n    <!-- End Top Header Area -->\\r\\n\\r\\n    <!-- Start Prevoz Navbar Area -->\\r\\n    <div class="prevoz-nav-style prevoz-nav-style-four">\\r\\n        <div class="navbar-area">\\r\\n            <!-- Menu For Mobile Device -->\\r\\n            <div class="mobile-nav">\\r\\n                <a href="/trang-chu" class="logo">\\r\\n                    <img src="\', escape=False)\nresponse.write(URL(\'static\',\'%s/img\')%(static_default))\nresponse.write(\'/logo.png" alt="Logo">\\r\\n                </a>\\r\\n            </div>\\r\\n            <!-- Menu For Desktop Device -->\\r\\n            <div class="main-nav">\\r\\n                <nav class="navbar navbar-expand-md navbar-light">\\r\\n                    <div class="container">\\r\\n                        <a class="navbar-brand" href="/trang-chu">\\r\\n                            <img src="\', escape=False)\nresponse.write(URL(\'static\',\'%s/img\')%(static_default))\nresponse.write(\'/logo.png" alt="Logo">\\r\\n                        </a>\\r\\n                        <div class="collapse navbar-collapse mean-menu" id="navbarSupportedContent">\\r\\n                            \', escape=False)\nresponse.write(\'<ul class="navbar-nav mr-auto">\\r\\n    <li class="nav-item">\\r\\n        <a href="/khach-hang" class="nav-link">Kh\\xc3\\xa1ch h\\xc3\\xa0ng</a>\\r\\n    </li>\\r\\n    \\r\\n    <li class="nav-item">\\r\\n        <a href="/buu-cuc" class="nav-link">B\\xc6\\xb0u c\\xe1\\xbb\\xa5c</a>\\r\\n    </li>\\r\\n    \\r\\n    <li class="nav-item">\\r\\n        <a href="/tai-xe" class="nav-link">T\\xc3\\xa0i x\\xe1\\xba\\xbf</a>\\r\\n    </li>\\r\\n      \\r\\n\\t<li class="nav-item">\\r\\n        <a href="/gioi-thieu" class="nav-link dropdown-toggle">\\r\\n            Ti\\xe1\\xbb\\x87n \\xc3\\xadch\\r\\n            <i class=\\\'bx bx-chevron-down\\\'></i>\\r\\n        </a>\\r\\n        <ul class="dropdown-menu">\\r\\n            <li class="nav-item">\\r\\n\\t\\t\\t\\t<a href="/tra-van-don" class="nav-link">Tra c\\xe1\\xbb\\xa9u v\\xe1\\xba\\xadn \\xc4\\x91\\xc6\\xa1n</a>\\r\\n            </li>\\r\\n            <li class="nav-item">\\r\\n\\t\\t\\t\\t<a href="/tim-buu-cuc" class="nav-link">T\\xc3\\xacm b\\xc6\\xb0u c\\xe1\\xbb\\xa5c</a>\\r\\n            </li>\\r\\n\\t\\t\\t\\r\\n        </ul>\\r\\n    </li>\\r\\n \\r\\n\\t<li class="nav-item">\\r\\n        <a href="/gioi-thieu" class="nav-link dropdown-toggle">\\r\\n            V\\xe1\\xbb\\x81 ch\\xc3\\xbang t\\xc3\\xb4i\\r\\n            <i class=\\\'bx bx-chevron-down\\\'></i>\\r\\n        </a>\\r\\n        <ul class="dropdown-menu">\\r\\n            <li class="nav-item">\\r\\n                <a href="/gioi-thieu" class="nav-link">V\\xe1\\xbb\\x81 ch\\xc3\\xbang t\\xc3\\xb4i</a>\\r\\n            </li>\\r\\n            <li class="nav-item">\\r\\n                <a href="/faq" class="nav-link">C\\xc3\\xa2u h\\xe1\\xbb\\x8fi th\\xc6\\xb0\\xe1\\xbb\\x9dng g\\xe1\\xba\\xb7p</a>\\r\\n            </li>\\r\\n\\t\\t\\t<li class="nav-item">\\r\\n\\t\\t\\t\\t<a href="/tin-tuc-su-kien" class="nav-link">Tin t\\xe1\\xbb\\xa9c s\\xe1\\xbb\\xb1 ki\\xe1\\xbb\\x87n</a>\\r\\n\\t\\t\\t</li>\\r\\n\\t\\t\\t<li class="nav-item">\\r\\n\\t\\t\\t\\t<a href="/lien-he" class="nav-link">Li\\xc3\\xaan h\\xe1\\xbb\\x87</a>\\r\\n\\t\\t\\t</li>\\r\\n        </ul>\\r\\n    </li>\\r\\n \\r\\n    \\r\\n</ul>\', escape=False)\nresponse.write(\'\\r\\n                            <!-- Start Other Option -->\\r\\n                            <div class="others-option">\\r\\n                                <div class="search-wrap">\\r\\n                                    <a href=".search">\\r\\n                                        <i class=\\\'bx bx-search\\\'></i>\\r\\n                                    </a>\\r\\n                                </div>\\r\\n                                <!-- <button type="button" class="sidebar-menu" data-bs-toggle="modal"\\r\\n                                    data-bs-target="#myModal2">\\r\\n                                    <i class="flaticon-menu"></i>\\r\\n                                </button> -->\\r\\n                                <!-- <a class="default-btn" href="/tao-don"> -->\\r\\n                                    <!-- T\\xe1\\xba\\xa1o \\xc4\\x91\\xc6\\xa1n -->\\r\\n                                <!-- </a> -->\\r\\n<!-- \\r\\n                                <div class="dark-switch">\\r\\n                                    <div class="switch-box">\\r\\n                                        <label id="switch" class="switch">\\r\\n                                            <input type="checkbox" onchange="toggleTheme()" id="slider">\\r\\n                                            <span class="slider round"></span>\\r\\n                                        </label>\\r\\n                                    </div>\\r\\n                                </div> -->\\r\\n                            </div>\\r\\n                            <!-- End Other Option -->\\r\\n                        </div>\\r\\n                    </div>\\r\\n                </nav>\\r\\n            </div>\\r\\n        </div>\\r\\n    </div>\\r\\n    <!-- End Prevoz Navbar Area -->\\r\\n</header>\', escape=False)\nresponse.write(\'\\r\\n    <!-- Start Header Area -->\\r\\n    \', escape=False)\nresponse.write(\'<!-- Start Sidebar Modal -->\\r\\n<div class="sidebar-modal">\\r\\n    <div class="modal right fade" id="myModal2" tabindex="-1" role="dialog" aria-labelledby="myModalLabel2">\\r\\n        <div class="modal-dialog" role="document">\\r\\n            <div class="modal-content">\\r\\n                <div class="modal-header">\\r\\n                    <button type="button" class="close" data-bs-dismiss="modal" aria-label="Close">\\r\\n                        <span aria-hidden="true">\\r\\n                            <i class="bx bx-x"></i>\\r\\n                        </span>\\r\\n                    </button>\\r\\n                    </button>\\r\\n                    <h2 class="modal-title" id="myModalLabel2">\\r\\n                        <a href="/trang-chu">\\r\\n                            <img src="\', escape=False)\nresponse.write(URL(\'static\',\'%s/img\')%(static_default))\nresponse.write(\'/logo.png" alt="Logo">\\r\\n                        </a>\\r\\n                    </h2>\\r\\n                </div>\\r\\n                <div class="modal-body">\\r\\n                    <div class="sidebar-modal-widget">\\r\\n                        <h3 class="title">Th\\xc3\\xb4ng tin v\\xe1\\xbb\\x81 ch\\xc3\\xbang t\\xc3\\xb4i</h3>\\r\\n                        <p><b>Ghephang.com</b> v\\xe1\\xbb\\x9bi mong mu\\xe1\\xbb\\x91n \\xc4\\x91\\xc6\\xa1n gi\\xe1\\xba\\xa3n h\\xc3\\xb3a vi\\xe1\\xbb\\x87c giao h\\xc3\\xa0ng, gi\\xc3\\xbap c\\xc3\\xa1c ch\\xe1\\xbb\\xa7 c\\xe1\\xbb\\xada h\\xc3\\xa0ng, c\\xc3\\xa1c nh\\xc3\\xa0 h\\xc3\\xa0ng \\xc4\\x91\\xe1\\xba\\xbfn c\\xc3\\xa1c c\\xc3\\xb4ng ty t\\xe1\\xba\\xa1i Vi\\xe1\\xbb\\x87t Nam\\r\\n                        c\\xc3\\xb3 th\\xe1\\xbb\\x83 t\\xe1\\xba\\xadn h\\xc6\\xb0\\xe1\\xbb\\x9fng m\\xe1\\xbb\\x99t d\\xe1\\xbb\\x8bch v\\xe1\\xbb\\xa5 cao c\\xe1\\xba\\xa5p ti\\xe1\\xbb\\x87n l\\xe1\\xbb\\xa3i nh\\xc6\\xb0ng v\\xe1\\xbb\\x9bi gi\\xe1\\xba\\xa3 c\\xe1\\xba\\xa3 h\\xe1\\xbb\\xa3p l\\xc3\\xbd.</p>\\r\\n                    </div>\\r\\n                    <div class="sidebar-modal-widget">\\r\\n                        <h3 class="title">Li\\xc3\\xaan k\\xe1\\xba\\xbft b\\xe1\\xbb\\x95 sung</h3>\\r\\n                        <ul>\\r\\n                            <li>\\r\\n                                <a href="#">\\xc4\\x90\\xc4\\x83ng nh\\xe1\\xba\\xadp</a>\\r\\n                            </li>\\r\\n                            <li>\\r\\n                                <a href="#">\\xc4\\x90\\xc4\\x83ng k\\xc3\\xbd ngay</a>\\r\\n                            </li>\\r\\n                            <li>\\r\\n                                <a href="/faq">FAQ</a>\\r\\n                            </li>\\r\\n                            <li>\\r\\n                                <a href="#">\\xc4\\x90\\xc4\\x83ng xu\\xe1\\xba\\xa5t</a>\\r\\n                            </li>\\r\\n                        </ul>\\r\\n                    </div>\\r\\n                    <div class="sidebar-modal-widget">\\r\\n                        <h3 class="title">Contact Info</h3>\\r\\n                        <ul class="contact-info">\\r\\n                            <li>\\r\\n                                <i class="bx bx-location-plus"></i>\\r\\n                                \\xc4\\x90\\xe1\\xbb\\x8ba ch\\xe1\\xbb\\x89\\r\\n                                <span>New York - 1060, Str. First 78 Great Western Road</span>\\r\\n                            </li>\\r\\n                            <li>\\r\\n                                <i class="bx bx-envelope"></i>\\r\\n                                Email\\r\\n                                <a\\r\\n                                    href="mailto:info@ghephang.com"><span\\r\\n                                        class="__cf_email__">[info@ghephang.com]</span></a>\\r\\n                                <a\\r\\n                                    href="mailto:info@ghephang.com"><span\\r\\n                                        class="__cf_email__" >[info@ghephang.com]</span></a>\\r\\n                            </li>\\r\\n                            <li>\\r\\n                                <i class="bx bxs-phone-call"></i>\\r\\n                                Phone\\r\\n                                <a href="tel:0356 656 777">0356 656 777</a>\\r\\n                                <a href="tel:0356 656 777">0356 656 777</a>\\r\\n                            </li>\\r\\n                        </ul>\\r\\n                    </div>\\r\\n                    <div class="sidebar-modal-widget">\\r\\n                        <h3 class="title">K\\xe1\\xba\\xbft n\\xe1\\xbb\\x91i v\\xe1\\xbb\\x9bi ch\\xc3\\xbang t\\xc3\\xb4i</h3>\\r\\n                        <ul class="social-list">\\r\\n                            \', escape=False)\nresponse.write(\'<li>\\r\\n    <a href="#">\\r\\n        <i class=\\\'bx bxl-twitter\\\'></i>\\r\\n    </a>\\r\\n</li>\\r\\n<li>\\r\\n    <a href="#">\\r\\n        <i class=\\\'bx bxl-facebook\\\'></i>\\r\\n    </a>\\r\\n</li>\\r\\n<li>\\r\\n    <a href="#">\\r\\n        <i class=\\\'bx bxl-instagram\\\'></i>\\r\\n    </a>\\r\\n</li>\\r\\n<li>\\r\\n    <a href="#">\\r\\n        <i class=\\\'bx bxl-linkedin\\\'></i>\\r\\n    </a>\\r\\n</li>\\r\\n\', escape=False)\nresponse.write(\'\\r\\n                        </ul>\\r\\n                    </div>\\r\\n                </div>\\r\\n            </div>\\r\\n        </div>\\r\\n    </div>\\r\\n</div>\\r\\n<!-- End Sidebar Modal -->\', escape=False)\nresponse.write(\'\\r\\n\\r\\n    <!-- Start Search Box Modal -->\\r\\n    \', escape=False)\nresponse.write(\'<!-- Start Search Box Modal -->\\r\\n<div class="search-wrap hiden-load"  style="display: none;">\\r\\n    <div class="search">\\r\\n        <button type="button" class="close">\\xc3\\x97</button>\\r\\n        <form>\\r\\n            <input type="search" value="" class="form-control" placeholder="Type Here..." />\\r\\n            <button type="submit" class="default-btn">\\r\\n                Search\\r\\n            </button>\\r\\n        </form>\\r\\n    </div>\\r\\n</div>\\r\\n<!-- End Search Box Modal -->\\r\\n\\r\\n\\r\\n\', escape=False)\nresponse.write(\'\\r\\n    <!-- End Search Box Modal -->\\r\\n\\r\\n    <div>\\r\\n        \', escape=False)\nresponse.write(\'\\r\\n\', escape=False)\nfrom plugin_cms import CmsFolder\nresponse.write(\'\\r\\n\', escape=False)\npage_title =CmsFolder().folder_name(request.args(0))\nresponse.write(\'\\r\\n<hr/>\\r\\n \\r\\n \\r\\n    <div class="container">\\r\\n    <div class="row">\\r\\n      <div class="col-md-6 align-self-center">\\r\\n        <svg version="1.1" xmlns="http://www.w3.org/2000/svg" xmlns:xlink="http://www.w3.org/1999/xlink"\\r\\n          viewBox="0 0 800 600">\\r\\n          <g>\\r\\n            <defs>\\r\\n              <clipPath id="GlassClip">\\r\\n                <path\\r\\n                  d="M380.857,346.164c-1.247,4.651-4.668,8.421-9.196,10.06c-9.332,3.377-26.2,7.817-42.301,3.5\\r\\n                s-28.485-16.599-34.877-24.192c-3.101-3.684-4.177-8.66-2.93-13.311l7.453-27.798c0.756-2.82,3.181-4.868,6.088-5.13\\r\\n                c6.755-0.61,20.546-0.608,41.785,5.087s33.181,12.591,38.725,16.498c2.387,1.682,3.461,4.668,2.705,7.488L380.857,346.164z" />\\r\\n              </clipPath>\\r\\n              <clipPath id="cordClip">\\r\\n                <rect width="800" height="600" />\\r\\n              </clipPath>\\r\\n            </defs>\\r\\n\\r\\n            <g id="planet">\\r\\n              <circle fill="none" stroke="#0E0620" stroke-width="3" stroke-miterlimit="10" cx="572.859" cy="108.803"\\r\\n                r="90.788" />\\r\\n\\r\\n              <circle id="craterBig" fill="none" stroke="#0E0620" stroke-width="3" stroke-miterlimit="10" cx="548.891"\\r\\n                cy="62.319" r="13.074" />\\r\\n\\r\\n              <circle id="craterSmall" fill="none" stroke="#0E0620" stroke-width="3" stroke-miterlimit="10" cx="591.743"\\r\\n                cy="158.918" r="7.989" />\\r\\n              <path id="ring" fill="none" stroke="#0E0620" stroke-width="3" stroke-linecap="round"\\r\\n                stroke-miterlimit="10" d="\\r\\n\\t\\t\\tM476.562,101.461c-30.404,2.164-49.691,4.221-49.691,8.007c0,6.853,63.166,12.408,141.085,12.408s141.085-5.555,141.085-12.408\\r\\n\\t\\t\\tc0-3.378-15.347-4.988-40.243-7.225" />\\r\\n\\r\\n              <path id="ringShadow" opacity="0.5" fill="none" stroke="#0E0620" stroke-width="3" stroke-linecap="round"\\r\\n                stroke-miterlimit="10" d="\\r\\n\\t\\t\\tM483.985,127.43c23.462,1.531,52.515,2.436,83.972,2.436c36.069,0,68.978-1.19,93.922-3.149" />\\r\\n            </g>\\r\\n            <g id="stars">\\r\\n              <g id="starsBig">\\r\\n                <g>\\r\\n\\r\\n                  <line fill="none" stroke="#0E0620" stroke-width="3" stroke-linecap="round" stroke-miterlimit="10"\\r\\n                    x1="518.07" y1="245.375" x2="518.07" y2="266.581" />\\r\\n\\r\\n                  <line fill="none" stroke="#0E0620" stroke-width="3" stroke-linecap="round" stroke-miterlimit="10"\\r\\n                    x1="508.129" y1="255.978" x2="528.01" y2="255.978" />\\r\\n                </g>\\r\\n                <g>\\r\\n\\r\\n                  <line fill="none" stroke="#0E0620" stroke-width="3" stroke-linecap="round" stroke-miterlimit="10"\\r\\n                    x1="154.55" y1="231.391" x2="154.55" y2="252.598" />\\r\\n\\r\\n                  <line fill="none" stroke="#0E0620" stroke-width="3" stroke-linecap="round" stroke-miterlimit="10"\\r\\n                    x1="144.609" y1="241.995" x2="164.49" y2="241.995" />\\r\\n                </g>\\r\\n                <g>\\r\\n\\r\\n                  <line fill="none" stroke="#0E0620" stroke-width="3" stroke-linecap="round" stroke-miterlimit="10"\\r\\n                    x1="320.135" y1="132.746" x2="320.135" y2="153.952" />\\r\\n\\r\\n                  <line fill="none" stroke="#0E0620" stroke-width="3" stroke-linecap="round" stroke-miterlimit="10"\\r\\n                    x1="310.194" y1="143.349" x2="330.075" y2="143.349" />\\r\\n                </g>\\r\\n                <g>\\r\\n\\r\\n                  <line fill="none" stroke="#0E0620" stroke-width="3" stroke-linecap="round" stroke-miterlimit="10"\\r\\n                    x1="200.67" y1="483.11" x2="200.67" y2="504.316" />\\r\\n\\r\\n                  <line fill="none" stroke="#0E0620" stroke-width="3" stroke-linecap="round" stroke-miterlimit="10"\\r\\n                    x1="210.611" y1="493.713" x2="190.73" y2="493.713" />\\r\\n                </g>\\r\\n              </g>\\r\\n              <g id="starsSmall">\\r\\n                <g>\\r\\n\\r\\n                  <line fill="none" stroke="#0E0620" stroke-width="3" stroke-linecap="round" stroke-miterlimit="10"\\r\\n                    x1="432.173" y1="380.52" x2="432.173" y2="391.83" />\\r\\n\\r\\n                  <line fill="none" stroke="#0E0620" stroke-width="3" stroke-linecap="round" stroke-miterlimit="10"\\r\\n                    x1="426.871" y1="386.175" x2="437.474" y2="386.175" />\\r\\n                </g>\\r\\n                <g>\\r\\n\\r\\n                  <line fill="none" stroke="#0E0620" stroke-width="3" stroke-linecap="round" stroke-miterlimit="10"\\r\\n                    x1="489.555" y1="299.765" x2="489.555" y2="308.124" />\\r\\n\\r\\n                  <line fill="none" stroke="#0E0620" stroke-width="3" stroke-linecap="round" stroke-miterlimit="10"\\r\\n                    x1="485.636" y1="303.945" x2="493.473" y2="303.945" />\\r\\n                </g>\\r\\n                <g>\\r\\n\\r\\n                  <line fill="none" stroke="#0E0620" stroke-width="3" stroke-linecap="round" stroke-miterlimit="10"\\r\\n                    x1="231.468" y1="291.009" x2="231.468" y2="299.369" />\\r\\n\\r\\n                  <line fill="none" stroke="#0E0620" stroke-width="3" stroke-linecap="round" stroke-miterlimit="10"\\r\\n                    x1="227.55" y1="295.189" x2="235.387" y2="295.189" />\\r\\n                </g>\\r\\n                <g>\\r\\n\\r\\n                  <line fill="none" stroke="#0E0620" stroke-width="3" stroke-linecap="round" stroke-miterlimit="10"\\r\\n                    x1="244.032" y1="547.539" x2="244.032" y2="555.898" />\\r\\n\\r\\n                  <line fill="none" stroke="#0E0620" stroke-width="3" stroke-linecap="round" stroke-miterlimit="10"\\r\\n                    x1="247.95" y1="551.719" x2="240.113" y2="551.719" />\\r\\n                </g>\\r\\n                <g>\\r\\n\\r\\n                  <line fill="none" stroke="#0E0620" stroke-width="3" stroke-linecap="round" stroke-miterlimit="10"\\r\\n                    x1="186.359" y1="406.967" x2="186.359" y2="415.326" />\\r\\n\\r\\n                  <line fill="none" stroke="#0E0620" stroke-width="3" stroke-linecap="round" stroke-miterlimit="10"\\r\\n                    x1="190.277" y1="411.146" x2="182.44" y2="411.146" />\\r\\n                </g>\\r\\n                <g>\\r\\n\\r\\n                  <line fill="none" stroke="#0E0620" stroke-width="3" stroke-linecap="round" stroke-miterlimit="10"\\r\\n                    x1="480.296" y1="406.967" x2="480.296" y2="415.326" />\\r\\n\\r\\n                  <line fill="none" stroke="#0E0620" stroke-width="3" stroke-linecap="round" stroke-miterlimit="10"\\r\\n                    x1="484.215" y1="411.146" x2="476.378" y2="411.146" />\\r\\n                </g>\\r\\n              </g>\\r\\n              <g id="circlesBig">\\r\\n\\r\\n                <circle fill="none" stroke="#0E0620" stroke-width="3" stroke-linecap="round" stroke-miterlimit="10"\\r\\n                  cx="588.977" cy="255.978" r="7.952" />\\r\\n\\r\\n                <circle fill="none" stroke="#0E0620" stroke-width="3" stroke-linecap="round" stroke-miterlimit="10"\\r\\n                  cx="450.066" cy="320.259" r="7.952" />\\r\\n\\r\\n                <circle fill="none" stroke="#0E0620" stroke-width="3" stroke-linecap="round" stroke-miterlimit="10"\\r\\n                  cx="168.303" cy="353.753" r="7.952" />\\r\\n\\r\\n                <circle fill="none" stroke="#0E0620" stroke-width="3" stroke-linecap="round" stroke-miterlimit="10"\\r\\n                  cx="429.522" cy="201.185" r="7.952" />\\r\\n\\r\\n                <circle fill="none" stroke="#0E0620" stroke-width="3" stroke-linecap="round" stroke-miterlimit="10"\\r\\n                  cx="200.67" cy="176.313" r="7.952" />\\r\\n\\r\\n                <circle fill="none" stroke="#0E0620" stroke-width="3" stroke-linecap="round" stroke-miterlimit="10"\\r\\n                  cx="133.343" cy="477.014" r="7.952" />\\r\\n\\r\\n                <circle fill="none" stroke="#0E0620" stroke-width="3" stroke-linecap="round" stroke-miterlimit="10"\\r\\n                  cx="283.521" cy="568.033" r="7.952" />\\r\\n\\r\\n                <circle fill="none" stroke="#0E0620" stroke-width="3" stroke-linecap="round" stroke-miterlimit="10"\\r\\n                  cx="413.618" cy="482.387" r="7.952" />\\r\\n              </g>\\r\\n              <g id="circlesSmall">\\r\\n                <circle fill="#0E0620" cx="549.879" cy="296.402" r="2.651" />\\r\\n                <circle fill="#0E0620" cx="253.29" cy="229.24" r="2.651" />\\r\\n                <circle fill="#0E0620" cx="434.824" cy="263.931" r="2.651" />\\r\\n                <circle fill="#0E0620" cx="183.708" cy="544.176" r="2.651" />\\r\\n                <circle fill="#0E0620" cx="382.515" cy="530.923" r="2.651" />\\r\\n                <circle fill="#0E0620" cx="130.693" cy="305.608" r="2.651" />\\r\\n                <circle fill="#0E0620" cx="480.296" cy="477.014" r="2.651" />\\r\\n              </g>\\r\\n            </g>\\r\\n            <g id="spaceman" clip-path="url(cordClip)">\\r\\n              <path id="cord" fill="none" stroke="#0E0620" stroke-width="3" stroke-linecap="round"\\r\\n                stroke-linejoin="round" stroke-miterlimit="10"\\r\\n                d="\\r\\n\\t\\t\\tM273.813,410.969c0,0-54.527,39.501-115.34,38.218c-2.28-0.048-4.926-0.241-7.841-0.548\\r\\n\\t\\t\\tc-68.038-7.178-134.288-43.963-167.33-103.87c-0.908-1.646-1.793-3.3-2.654-4.964c-18.395-35.511-37.259-83.385-32.075-118.817" />\\r\\n\\r\\n              <path id="backpack" fill="#FFFFFF" stroke="#0E0620" stroke-width="3" stroke-linecap="round"\\r\\n                stroke-linejoin="round" stroke-miterlimit="10" d="\\r\\n\\t\\t\\tM338.164,454.689l-64.726-17.353c-11.086-2.972-17.664-14.369-14.692-25.455l15.694-58.537\\r\\n\\t\\t\\tc3.889-14.504,18.799-23.11,33.303-19.221l52.349,14.035c14.504,3.889,23.11,18.799,19.221,33.303l-15.694,58.537\\r\\n\\t\\t\\tC360.647,451.083,349.251,457.661,338.164,454.689z" />\\r\\n              <g id="antenna">\\r\\n                <line fill="#FFFFFF" stroke="#0E0620" stroke-width="3" stroke-linecap="round" stroke-linejoin="round"\\r\\n                  stroke-miterlimit="10" x1="323.396" y1="236.625" x2="295.285" y2="353.753" />\\r\\n                <circle fill="#FFFFFF" stroke="#0E0620" stroke-width="3" stroke-linecap="round" stroke-linejoin="round"\\r\\n                  stroke-miterlimit="10" cx="323.666" cy="235.617" r="6.375" />\\r\\n              </g>\\r\\n              <g id="armR">\\r\\n\\r\\n                <path fill="#FFFFFF" stroke="#0E0620" stroke-width="3" stroke-linecap="round" stroke-linejoin="round"\\r\\n                  stroke-miterlimit="10" d="\\r\\n\\t\\t\\t\\tM360.633,363.039c1.352,1.061,4.91,5.056,5.824,6.634l27.874,47.634c3.855,6.649,1.59,15.164-5.059,19.02l0,0\\r\\n\\t\\t\\t\\tc-6.649,3.855-15.164,1.59-19.02-5.059l-5.603-9.663" />\\r\\n\\r\\n                <path fill="#FFFFFF" stroke="#0E0620" stroke-width="3" stroke-linecap="round" stroke-linejoin="round"\\r\\n                  stroke-miterlimit="10" d="\\r\\n\\t\\t\\t\\tM388.762,434.677c5.234-3.039,7.731-8.966,6.678-14.594c2.344,1.343,4.383,3.289,5.837,5.793\\r\\n\\t\\t\\t\\tc4.411,7.596,1.829,17.33-5.767,21.741c-7.596,4.411-17.33,1.829-21.741-5.767c-1.754-3.021-2.817-5.818-2.484-9.046\\r\\n\\t\\t\\t\\tC375.625,437.355,383.087,437.973,388.762,434.677z" />\\r\\n              </g>\\r\\n              <g id="armL">\\r\\n\\r\\n                <path fill="#FFFFFF" stroke="#0E0620" stroke-width="3" stroke-linecap="round" stroke-linejoin="round"\\r\\n                  stroke-miterlimit="10" d="\\r\\n\\t\\t\\t\\tM301.301,347.66c-1.702,0.242-5.91,1.627-7.492,2.536l-47.965,27.301c-6.664,3.829-8.963,12.335-5.134,18.999h0\\r\\n\\t\\t\\t\\tc3.829,6.664,12.335,8.963,18.999,5.134l9.685-5.564" />\\r\\n\\r\\n                <path fill="#FFFFFF" stroke="#0E0620" stroke-width="3" stroke-linecap="round" stroke-linejoin="round"\\r\\n                  stroke-miterlimit="10" d="\\r\\n\\t\\t\\t\\tM241.978,395.324c-3.012-5.25-2.209-11.631,1.518-15.977c-2.701-0.009-5.44,0.656-7.952,2.096\\r\\n\\t\\t\\t\\tc-7.619,4.371-10.253,14.09-5.883,21.71c4.371,7.619,14.09,10.253,21.709,5.883c3.03-1.738,5.35-3.628,6.676-6.59\\r\\n\\t\\t\\t\\tC252.013,404.214,245.243,401.017,241.978,395.324z" />\\r\\n              </g>\\r\\n              <g id="body">\\r\\n\\r\\n                <path fill="#FFFFFF" stroke="#0E0620" stroke-width="3" stroke-linecap="round" stroke-linejoin="round"\\r\\n                  stroke-miterlimit="10" d="\\r\\n\\t\\t\\t\\tM353.351,365.387c-7.948,1.263-16.249,0.929-24.48-1.278c-8.232-2.207-15.586-6.07-21.836-11.14\\r\\n\\t\\t\\t\\tc-17.004,4.207-31.269,17.289-36.128,35.411l-1.374,5.123c-7.112,26.525,8.617,53.791,35.13,60.899l0,0\\r\\n\\t\\t\\t\\tc26.513,7.108,53.771-8.632,60.883-35.158l1.374-5.123C371.778,395.999,365.971,377.536,353.351,365.387z" />\\r\\n                <path fill="none" stroke="#0E0620" stroke-width="3" stroke-linecap="round" stroke-linejoin="round"\\r\\n                  stroke-miterlimit="10" d="\\r\\n\\t\\t\\t\\tM269.678,394.912L269.678,394.912c26.3,20.643,59.654,29.585,93.106,25.724l2.419-0.114" />\\r\\n              </g>\\r\\n              <g id="legs">\\r\\n                <g id="legR">\\r\\n\\r\\n                  <path fill="#FFFFFF" stroke="#0E0620" stroke-width="3" stroke-linecap="round" stroke-linejoin="round"\\r\\n                    stroke-miterlimit="10" d="\\r\\n\\t\\t\\t\\t\\tM312.957,456.734l-14.315,53.395c-1.896,7.07,2.299,14.338,9.37,16.234l0,0c7.07,1.896,14.338-2.299,16.234-9.37l17.838-66.534\\r\\n\\t\\t\\t\\t\\tC333.451,455.886,323.526,457.387,312.957,456.734z" />\\r\\n\\r\\n                  <line fill="none" stroke="#0E0620" stroke-width="3" stroke-linecap="round" stroke-linejoin="round"\\r\\n                    stroke-miterlimit="10" x1="304.883" y1="486.849" x2="330.487" y2="493.713" />\\r\\n                </g>\\r\\n                <g id="legL">\\r\\n\\r\\n                  <path fill="#FFFFFF" stroke="#0E0620" stroke-width="3" stroke-linecap="round" stroke-linejoin="round"\\r\\n                    stroke-miterlimit="10" d="\\r\\n\\t\\t\\t\\t\\tM296.315,452.273L282,505.667c-1.896,7.07-9.164,11.265-16.234,9.37l0,0c-7.07-1.896-11.265-9.164-9.37-16.234l17.838-66.534\\r\\n\\t\\t\\t\\t\\tC278.993,441.286,286.836,447.55,296.315,452.273z" />\\r\\n\\r\\n                  <line fill="none" stroke="#0E0620" stroke-width="3" stroke-linecap="round" stroke-linejoin="round"\\r\\n                    stroke-miterlimit="10" x1="262.638" y1="475.522" x2="288.241" y2="482.387" />\\r\\n                </g>\\r\\n              </g>\\r\\n              <g id="head">\\r\\n\\r\\n                <ellipse transform="matrix(0.259 -0.9659 0.9659 0.259 -51.5445 563.2371)" fill="#FFFFFF"\\r\\n                  stroke="#0E0620" stroke-width="3" stroke-linecap="round" stroke-linejoin="round"\\r\\n                  stroke-miterlimit="10" cx="341.295" cy="315.211" rx="61.961" ry="60.305" />\\r\\n                <path id="headStripe" fill="none" stroke="#0E0620" stroke-width="3" stroke-linecap="round"\\r\\n                  stroke-linejoin="round" stroke-miterlimit="10" d="\\r\\n\\t\\t\\t\\tM330.868,261.338c-7.929,1.72-15.381,5.246-21.799,10.246" />\\r\\n\\r\\n                <path fill="#FFFFFF" stroke="#0E0620" stroke-width="3" stroke-linecap="round" stroke-linejoin="round"\\r\\n                  stroke-miterlimit="10" d="\\r\\n\\t\\t\\t\\tM380.857,346.164c-1.247,4.651-4.668,8.421-9.196,10.06c-9.332,3.377-26.2,7.817-42.301,3.5s-28.485-16.599-34.877-24.192\\r\\n\\t\\t\\t\\tc-3.101-3.684-4.177-8.66-2.93-13.311l7.453-27.798c0.756-2.82,3.181-4.868,6.088-5.13c6.755-0.61,20.546-0.608,41.785,5.087\\r\\n\\t\\t\\t\\ts33.181,12.591,38.725,16.498c2.387,1.682,3.461,4.668,2.705,7.488L380.857,346.164z" />\\r\\n                <g clip-path="url(#GlassClip)">\\r\\n                  <polygon id="glassShine" fill="none" stroke="#0E0620" stroke-width="3" stroke-miterlimit="10" points="\\r\\n\\t\\t\\t\\t\\t278.436,375.599 383.003,264.076 364.393,251.618 264.807,364.928 \\t\\t\\t\\t" />\\r\\n                </g>\\r\\n              </g>\\r\\n            </g>\\r\\n          </g>\\r\\n        </svg>\\r\\n      </div>\\r\\n      <div class="col-md-6 align-self-center">\\r\\n        <h1 style=\\\'font-size:100px;\\\'>404</h1>\\r\\n        <h2>R\\xe1\\xba\\xa5t ti\\xe1\\xba\\xbfc. Trang b\\xe1\\xba\\xa1n t\\xc3\\xacm ki\\xe1\\xba\\xbfm kh\\xc3\\xb4ng c\\xc3\\xb2n t\\xe1\\xbb\\x93n t\\xe1\\xba\\xa1i</h2>\\r\\n        <p>N\\xe1\\xba\\xbfu b\\xe1\\xba\\xa1n c\\xe1\\xba\\xa7n h\\xe1\\xbb\\x97 tr\\xe1\\xbb\\xa3 vui l\\xc3\\xb2ng li\\xc3\\xaan h\\xe1\\xbb\\x87 t\\xe1\\xbb\\x95ng \\xc4\\x91\\xc3\\xa0i c\\xe1\\xbb\\xa7a Ghephang.com : 1900.888.678 ho\\xe1\\xba\\xb7c quay tr\\xe1\\xbb\\x9f v\\xe1\\xbb\\x81 Trang ch\\xe1\\xbb\\xa7. </p>\\r\\n        <A  style=\\\' border: 4px solid #fa4612  ; color: #0e0620; padding:5px 10px; border-radius:50px; font-weight: bold; \\\' href=\\\'https://ghephang.com/\\\'> V\\xe1\\xbb\\x80 TRANG CH\\xe1\\xbb\\xa6</a>\\r\\n      </div>\\r\\n    </div>\\r\\n    </div>\\r\\n \\r\\n\\r\\n\\r\\n\', escape=False)\nresponse.write(\'\\r\\n    </div>\\r\\n\\r\\n    \', escape=False)\nresponse.write(\'\\r\\n    \', escape=False)\n#include \'site/ghephang/default/component/subscribe.html\'\nresponse.write(\'\\r\\n\', escape=False)\nresponse.write(\'\\r\\n\\r\\n    \', escape=False)\nresponse.write(\'<footer class="footer-top-area pt-100 pb-70 bg-f7f7f7">\\r\\n    <div class="container">\\r\\n        <div class="row">\\r\\n            <div class="col-lg-3 col-md-6">\\r\\n                 \', escape=False)\nresponse.write(portlet.display(116))\nresponse.write(\'\\r\\n            </div>\\r\\n            <div class="col-lg-3 col-md-6">\\r\\n                 \', escape=False)\nresponse.write(portlet.display(166))\nresponse.write(\'\\r\\n            </div>\\r\\n            <div class="col-lg-3 col-md-6">\\r\\n                 \', escape=False)\nresponse.write(portlet.display(118))\nresponse.write(\'\\r\\n            </div>\\r\\n            <div class="col-lg-3 col-md-6">\\r\\n                <div class="single-widget">\\r\\n                    <h3>Theo d\\xc3\\xb5i ch\\xc3\\xbang t\\xc3\\xb4i </h3>\\r\\n                    <div id="fb-root"></div>\\r\\n                    <script>(function (d, s, id) {\\r\\n                            var js, fjs = d.getElementsByTagName(s)[0];\\r\\n                            if (d.getElementById(id)) return;\\r\\n                            js = d.createElement(s); js.id = id;\\r\\n                            js.src = "//connect.facebook.net/vi_VN/sdk.js#xfbml=1&version=v2.6&appId=215619355450603";\\r\\n                            fjs.parentNode.insertBefore(js, fjs);\\r\\n                        }(document, \\\'script\\\', \\\'facebook-jssdk\\\'));</script>\\r\\n\\r\\n                    <div style="margin-top: 12px;" class="fb-page" data-href="https://www.facebook.com/Ghephangcom" data-small-header="false"\\r\\n                        data-adapt-container-width="true" data-hide-cover="false" data-show-facepile="true"></div>\\r\\n                    <p></p>\\r\\n                    <ul class="social-link">\\r\\n                        \', escape=False)\nresponse.write(\'<li>\\r\\n    <a href="#">\\r\\n        <i class=\\\'bx bxl-twitter\\\'></i>\\r\\n    </a>\\r\\n</li>\\r\\n<li>\\r\\n    <a href="#">\\r\\n        <i class=\\\'bx bxl-facebook\\\'></i>\\r\\n    </a>\\r\\n</li>\\r\\n<li>\\r\\n    <a href="#">\\r\\n        <i class=\\\'bx bxl-instagram\\\'></i>\\r\\n    </a>\\r\\n</li>\\r\\n<li>\\r\\n    <a href="#">\\r\\n        <i class=\\\'bx bxl-linkedin\\\'></i>\\r\\n    </a>\\r\\n</li>\\r\\n\', escape=False)\nresponse.write(\'\\r\\n                    </ul>\\r\\n                </div>\\r\\n            </div>\\r\\n        </div>\\r\\n        <hr/>\\r\\n        <div class="row">\\r\\n            \', escape=False)\nresponse.write(portlet.display(163))\nresponse.write(\'\\r\\n        </div>\\r\\n    </div>\\r\\n    <div class="lines">\\r\\n        <div class="line"></div>\\r\\n        <div class="line"></div>\\r\\n        <div class="line"></div>\\r\\n        <div class="line"></div>\\r\\n    </div>\\r\\n</footer>\', escape=False)\nresponse.write(\'\\r\\n    <!-- Start Footer Bottom Area -->\\r\\n    <footer class="footer-bottom-area footer-bottom-area-four">\\r\\n        <div class="container">\\r\\n            <div class="row align-items-center">\\r\\n                <div class="col-lg-6">\\r\\n                    <div class="single-widget-bottom">\\r\\n                        <ul>\\r\\n                            <li>\\r\\n                                <a href="#">\\xc4\\x90i\\xe1\\xbb\\x81u kho\\xe1\\xba\\xa3n v\\xc3\\xa0 \\xc4\\x91i\\xe1\\xbb\\x81u ki\\xe1\\xbb\\x87n</a>\\r\\n                            </li>\\r\\n                            <li>\\r\\n                                <a href="#">Ch\\xc3\\xadnh s\\xc3\\xa1ch b\\xe1\\xba\\xa3o m\\xe1\\xba\\xadt</a>\\r\\n                            </li>\\r\\n                            <li>\\r\\n                                <a href="#">\\xc4\\x90\\xc4\\x83ng nh\\xe1\\xba\\xadp</a>\\r\\n                            </li>\\r\\n                        </ul>\\r\\n                    </div>\\r\\n                </div>\\r\\n                <div class="col-lg-6">\\r\\n                    <div class="single-widget-bottom">\\r\\n                        <p>Copyright <i class="bx bx-copyright"></i> by ghephang.com. All rights reserved</p>\\r\\n                    </div>\\r\\n                </div>\\r\\n            </div>\\r\\n        </div>\\r\\n    </footer>\\r\\n\\r\\n    <div>\\r\\n        <div id="overlay" onclick="off()" style="display: none;"></div>\\r\\n        <div class="position-fixed text-right floating-action-menu">\\r\\n            <div class="action-menu">\\r\\n                <a class="floating-action px-2 py-2" href="/tra-van-don">\\r\\n                    <div class="badge">Tra c\\xe1\\xbb\\xa9u v\\xe1\\xba\\xadn \\xc4\\x91\\xc6\\xa1n</div>\\r\\n                    <span class="btn-floating">\\r\\n                        <img src="\', escape=False)\nresponse.write(URL(\'static\',\'%s/images\')%(static_default))\nresponse.write(\'/icon-fab-search-bill.svg"\\r\\n                            alt="icon-fab-search-bill" class="img-fluid" width="30">\\r\\n                    </span>\\r\\n                </a>\\r\\n                <a class="floating-action px-2 py-2" href="/tao-don">\\r\\n                    <div class="badge">Y\\xc3\\xaau c\\xe1\\xba\\xa7u b\\xc3\\xa1o gi\\xc3\\xa1</div>\\r\\n                    <span class="btn-floating">\\r\\n                        <img src="\', escape=False)\nresponse.write(URL(\'static\',\'%s/images\')%(static_default))\nresponse.write(\'/icon-fab-create-bill.svg"\\r\\n                            alt="icon-fab-create-bill" class="img-fluid" width="30">\\r\\n                    </span>\\r\\n                </a>\\r\\n                <a class="floating-action px-2 py-2" href="/tim-buu-cuc">\\r\\n                    <div class="badge">T\\xc3\\xacm b\\xc6\\xb0u c\\xe1\\xbb\\xa5c</div>\\r\\n                    <span class="btn-floating">\\r\\n                        <img src="\', escape=False)\nresponse.write(URL(\'static\',\'%s/images\')%(static_default))\nresponse.write(\'/icon-fab-search-price.svg"\\r\\n                            alt="icon-fab-search-price" class="img-fluid" width="30">\\r\\n                    </span>\\r\\n                </a>\\r\\n                <!-- <a class="floating-action px-2 py-2" href="bang-gia-dich-vu">\\r\\n                    <div class="badge">Nh\\xe1\\xba\\xafn tin</div>\\r\\n                    <span class="btn-floating">\\r\\n                        <img src="\', escape=False)\nresponse.write(URL(\'static\',\'%s/images\')%(static_default))\nresponse.write(\'/icon-fab-price-list.svg" alt="icon-fab-price-list" class="img-fluid"\\r\\n                            width="30">\\r\\n                    </span>\\r\\n                </a> -->\\r\\n                <!-- <a class="floating-action px-2 py-2" href="/#footer-v2">\\r\\n                    <div class="badge">T\\xe1\\xba\\xa3i App NTX</div>\\r\\n                    <span class="btn-floating">\\r\\n                        <img src="\', escape=False)\nresponse.write(URL(\'static\',\'%s/images\')%(static_default))\nresponse.write(\'/icon-fab-get-app.svg" alt="icon-fab-get-app" class="img-fluid" width="30">\\r\\n                    </span>\\r\\n                </a> -->\\r\\n                <!-- fb-messenger://user-thread/149397918580307  https://zalo.me/0377888678-->\\r\\n\\r\\n\\r\\n                <a class="floating-action px-2 py-2" id="chat_message_id" target="_blank" href="#">\\r\\n                    <div class="badge">Chat v\\xe1\\xbb\\x9bi GhepHang</div>\\r\\n                    <span class="btn-floating">\\r\\n                        <img src="\', escape=False)\nresponse.write(URL(\'static\',\'%s/images\')%(static_default))\nresponse.write(\'/icon-fab-chat.svg" alt="icon-fab-chat"\\r\\n                            class="img-fluid" width="30">\\r\\n                    </span>\\r\\n                </a>\\r\\n                <a class="floating-action px-2 py-2" href="tel:1900888678">\\r\\n                    <div class="badge">Li\\xc3\\xaan h\\xe1\\xbb\\x87: <strong>1900888678</strong></div>\\r\\n                    <span class="btn-floating">\\r\\n                        <img src="\', escape=False)\nresponse.write(URL(\'static\',\'%s/images\')%(static_default))\nresponse.write(\'/icon-fab-phone.svg"\\r\\n                            alt="icon-fab-phone" class="img-fluid" width="30">\\r\\n                    </span>\\r\\n                </a>\\r\\n            </div>\\r\\n            <div class="d-block action-button">\\r\\n                <a class="btn-floating" onclick="on()">\\r\\n                    <img src="\', escape=False)\nresponse.write(URL(\'static\',\'%s/images\')%(static_default))\nresponse.write(\'/icon-fab.svg" alt="icon-fab"\\r\\n                        class="img-fluid" width="48" style="filter: drop-shadow(2px 4px 15px rgba(0, 0, 0, 0.3));">\\r\\n                </a>\\r\\n            </div>\\r\\n\\r\\n            <script>\\r\\n                window.onload = (event) => {\\r\\n                    const mesa = document.getElementById(\\\'chat_message_id\\\')\\r\\n                    let url = \\\'https://www.facebook.com/Ghephangcom/\\\'\\r\\n                     if (/Android|webOS|iPhone|iPad|iPod|BlackBerry|IEMobile|Opera Mini/i.test(navigator.userAgent) && window.innerWidth <= 550) {\\r\\n                        url = \\\'fb-messenger://user-thread/149397918580307\\\'\\r\\n                    } \\r\\n                    mesa.setAttribute(\\\'href\\\', url);\\r\\n                };\\r\\n               \\r\\n            </script>\\r\\n        </div>\\r\\n    </div>\\r\\n\\r\\n    \', escape=False)\nresponse.write(\'<style>\\r\\n    #show_popup {\\r\\n        position: fixed;\\r\\n        z-index: 1200;\\r\\n        bottom: 32px;\\r\\n        left: 32px;\\r\\n   }\\r\\n    .custom-div {\\r\\n        padding: 15px 20px;\\r\\n        background: rgb(234, 234, 234);\\r\\n        max-height: 0;\\r\\n        opacity: 0;\\r\\n        font-size: 13px;\\r\\n        border-radius: 8px;\\r\\n        transition: max-height 1s ease, opacity 1s ease;\\r\\n        line-height: 1.6em;\\r\\n    }\\r\\n     .custom-div.active {\\r\\n        max-height: 500px;\\r\\n        opacity: 1;\\r\\n        transition: max-height 1s ease, opacity 1s ease;\\r\\n    }\\r\\n\\r\\n    .custom-div .place {\\r\\n        color: rgb(0, 97, 193);\\r\\n        font-weight: 500;\\r\\n    }\\r\\n\\r\\n    .custom-div .image-container {\\r\\n        margin-top: 16px;\\r\\n        display: flex;\\r\\n        align-items: flex-start;\\r\\n    }\\r\\n\\r\\n    .custom-div .image-container img {\\r\\n        width: 70px;\\r\\n        margin-right: 8px;\\r\\n    }\\r\\n\\r\\n    .custom-div .info-container {\\r\\n        display: flex;\\r\\n        flex-direction: column;\\r\\n    }\\r\\n\\r\\n    .custom-div .info-container p {\\r\\n        color: rgb(0, 97, 193);\\r\\n    }\\r\\n\\r\\n    p {\\r\\n        margin: 0;\\r\\n    }\\r\\n</style>\\r\\n<div id="show_popup"></div>\\r\\n<script>\\r\\n    function generateRandomTime() {\\r\\n        const randomMinutesAgo = Math.floor(Math.random() * 26) + 5; // Random time between 5 and 30 minutes\\r\\n        return `${randomMinutesAgo} ph\\xc3\\xbat tr\\xc6\\xb0\\xe1\\xbb\\x9bc`;\\r\\n    }\\r\\n\\r\\n    const card = document.getElementById(\\\'custom-card\\\');\\r\\n    const urldefault = "\', escape=False)\nresponse.write(URL(\'static\',\'%s/images\')%(static_default))\nresponse.write(\'";\\r\\n    const imageUrls = [\\r\\n        urldefault + \\\'/truck.png\\\',\\r\\n        urldefault + \\\'/truck2.png\\\',\\r\\n        urldefault + \\\'/truck3.png\\\',\\r\\n        urldefault + \\\'/truck4.png\\\',\\r\\n        urldefault + \\\'/truck.png\\\',\\r\\n        urldefault + \\\'/truck2.png\\\',\\r\\n        urldefault + \\\'/truck.png\\\',\\r\\n        urldefault + \\\'/truck2.png\\\',\\r\\n        urldefault + \\\'/truck3.png\\\',\\r\\n        urldefault + \\\'/truck4.png\\\',\\r\\n        urldefault + \\\'/truck.png\\\',\\r\\n        urldefault + \\\'/truck.png\\\',\\r\\n        urldefault + \\\'/truck2.png\\\',\\r\\n        urldefault + \\\'/truck.png\\\',\\r\\n\\r\\n    ];\\r\\n    let imageIndex = 0;\\r\\n    let dataIndex = 0;\\r\\n\\r\\n    function formatPhoneNumber(phone) {\\r\\n        return phone.slice(0, phone.length / 2) + \\\'x\\\'.repeat(phone.length - phone.length / 2);\\r\\n    }\\r\\n\\r\\n    function formatCurrency(value) {\\r\\n        return value.toLocaleString(\\\'vi-VN\\\', { style: \\\'currency\\\', currency: \\\'VND\\\' });\\r\\n    }\\r\\n\\r\\n    function renderhtml(item, img){\\r\\n        console.log(item);\\r\\n        let data = `\\r\\n            <div class="custom-div active" id="custom-card">\\r\\n                <span style="color: red; font-weight: bold;">\\xc4\\x90\\xc6\\xa0N H\\xc3\\x80NG M\\xe1\\xbb\\x9aI NH\\xe1\\xba\\xa4T</span>\\r\\n                <p>Kh\\xc3\\xa1ch: <span id="customerName">${item.customer_send.name}</span></p>\\r\\n                <p id="phoneNumber">S\\xc4\\x90T: <span id="phoneText">${formatPhoneNumber(item.customer_send.phone) }</span> - C\\xc6\\xb0\\xe1\\xbb\\x9bc: <span id="transportFee">${item.transport_fee}</span></p>\\r\\n                <p> - <span id="locations">${generateRandomTime()}</span></p>\\r\\n                <div class="image-container">\\r\\n                    <img src="${img}" alt="" id="truckImage">\\r\\n                    <div>\\r\\n                        <p>Nh\\xe1\\xba\\xadn \\xc4\\x91\\xc6\\xa1n th\\xc3\\xa0nh c\\xc3\\xb4ng</p>\\r\\n                        <p id="truckInfo">L\\xc3\\xa1i xe: ${item.trucks.name??\\\'\\xc4\\x90ang c\\xe1\\xba\\xadp nh\\xe1\\xba\\xadt\\\'}</p>\\r\\n                        <p id="truckRoute">Tuy\\xe1\\xba\\xbfn: ${item.trucks?.router?.name??\\\'\\xc4\\x90ang c\\xe1\\xba\\xadp nh\\xe1\\xba\\xadt\\\'}</p>\\r\\n                    </div>\\r\\n                </div>\\r\\n            </div>\\r\\n        `;\\r\\n        document.getElementById(\\\'show_popup\\\').innerHTML = data;\\r\\n    }\\r\\n\\r\\n    function remmeveActive(){\\r\\n        $(\\\'.custom-div\\\').removeClass(\\\'active\\\');\\r\\n    }   \\r\\n\\r\\n    function fetchDataAndDisplayFromAPI() {\\r\\n        fetch(\\\'https://quanly.ghephang.com/gh/api_v1/getListNotice.json\\\')\\r\\n            .then(response => response.json())\\r\\n            .then(data => {\\r\\n                const record = data.list[dataIndex];\\r\\n\\r\\n                let index = 0;\\r\\n                setInterval(function () {\\r\\n                    index = (index + 1) % data.list.length;\\r\\n                    img = imageUrls[index];\\r\\n                    item = data.list[index];\\r\\n                    renderhtml(item, img);\\r\\n                    setTimeout(remmeveActive, 7000); // 2000ms (2 gi\\xc3\\xa2y)\\r\\n                }, 14000); \\r\\n            })\\r\\n            .catch(error => {\\r\\n                console.error(\\\'Error fetching data from API:\\\', error);\\r\\n            });\\r\\n    }\\r\\n\\r\\n    document.addEventListener(\\\'DOMContentLoaded\\\', fetchDataAndDisplayFromAPI);\\r\\n\\r\\n</script>\', escape=False)\nresponse.write(\'\\r\\n    <!-- End Footer Bottom Area -->\\r\\n\\r\\n    <!-- Start Go Top Area -->\\r\\n    <div class="go-top">\\r\\n        <i class=\\\'bx bx-chevrons-up bx-fade-up\\\'></i>\\r\\n        <i class=\\\'bx bx-chevrons-up bx-fade-up\\\'></i>\\r\\n    </div>\\r\\n    <!-- End Go Top Area -->\\r\\n\\r\\n\\r\\n\\r\\n    <!-- Jquery Min JS -->\\r\\n    <script src="\', escape=False)\nresponse.write(URL(\'static\',\'%s/js\')%(static_default))\nresponse.write(\'/jquery.min.js"></script>\\r\\n    <!-- Bootstrap Bundle Min JS -->\\r\\n    <script src="\', escape=False)\nresponse.write(URL(\'static\',\'%s/js\')%(static_default))\nresponse.write(\'/bootstrap.bundle.min.js"></script>\\r\\n    <!-- Meanmenu Min JS -->\\r\\n    <script>\\r\\n        "use strict"; function on() { $(".floating-action-menu").hasClass("active") ? ($(".floating-action-menu").toggleClass("active"), document.getElementById("overlay").style.display = "none") : ($(".floating-action-menu").toggleClass("active"), document.getElementById("overlay").style.display = "block") } function off() { $(".floating-action-menu").toggleClass("active"), document.getElementById("overlay").style.display = "none" }\\r\\n    </script>\\r\\n    <script src="\', escape=False)\nresponse.write(URL(\'static\',\'%s/js\')%(static_default))\nresponse.write(\'/meanmenu.min.js"></script>\\r\\n    <!-- Wow Min JS -->\\r\\n    <script src="\', escape=False)\nresponse.write(URL(\'static\',\'%s/js\')%(static_default))\nresponse.write(\'/wow.min.js"></script>\\r\\n    <!-- Owl Carousel Min JS -->\\r\\n    <script src="\', escape=False)\nresponse.write(URL(\'static\',\'%s/js\')%(static_default))\nresponse.write(\'/owl.carousel.min.js"></script>\\r\\n    <!-- Owl Magnific Min JS -->\\r\\n    <script src="\', escape=False)\nresponse.write(URL(\'static\',\'%s/js\')%(static_default))\nresponse.write(\'/magnific-popup.min.js"></script>\\r\\n    <!-- Nice Select Min JS -->\\r\\n    <!-- <script src="\', escape=False)\nresponse.write(URL(\'static\',\'%s/js\')%(static_default))\nresponse.write(\'/nice-select.min.js"></script> -->\\r\\n    <!-- Appear JS -->\\r\\n    <script src="\', escape=False)\nresponse.write(URL(\'static\',\'%s/js\')%(static_default))\nresponse.write(\'/appear.min.js"></script>\\r\\n    <!-- Odometer JS -->\\r\\n    <script src="\', escape=False)\nresponse.write(URL(\'static\',\'%s/js\')%(static_default))\nresponse.write(\'/odometer.min.js"></script>\\r\\n    <!-- jarallax Min JS -->\\r\\n    <script src="\', escape=False)\nresponse.write(URL(\'static\',\'%s/js\')%(static_default))\nresponse.write(\'/jarallax.min.js"></script>\\r\\n    <!-- Form Ajaxchimp Min JS -->\\r\\n    <script src="\', escape=False)\nresponse.write(URL(\'static\',\'%s/js\')%(static_default))\nresponse.write(\'/ajaxchimp.min.js"></script>\\r\\n    <!-- Form Validator Min JS -->\\r\\n    <script src="\', escape=False)\nresponse.write(URL(\'static\',\'%s/js\')%(static_default))\nresponse.write(\'/form-validator.min.js"></script>\\r\\n    <!-- Contact JS -->\\r\\n    <script src="\', escape=False)\nresponse.write(URL(\'static\',\'%s/js\')%(static_default))\nresponse.write(\'/contact-form-script.js"></script>\\r\\n    <!-- Custom JS -->\\r\\n    <script src="\', escape=False)\nresponse.write(URL(\'static\',\'%s/js\')%(static_default))\nresponse.write(\'/custom.js"></script>\\r\\n    <script src="\', escape=False)\nresponse.write(URL(\'static\',\'%s/js\')%(static_default))\nresponse.write(\'/redirect.js"></script>\\r\\n    \', escape=False)\nresponse.write(\'\\r\\n    \', escape=False)\nresponse.write(\'\\r\\n</body>\\r\\n\\r\\n</html>\', escape=False)'
p7
sS'snapshot'
p8
(dp9
S'exception'
p10
(dp11
S'__getslice__'
p12
S"<method-wrapper '__getslice__' of exceptions.IOError object>"
p13
sS'__str__'
p14
S"<method-wrapper '__str__' of exceptions.IOError object>"
p15
sS'__reduce__'
p16
S'<built-in method __reduce__ of exceptions.IOError object>'
p17
sS'__dict__'
p18
S'{}'
p19
sS'__sizeof__'
p20
S'<built-in method __sizeof__ of exceptions.IOError object>'
p21
sS'__init__'
p22
S"<method-wrapper '__init__' of exceptions.IOError object>"
p23
sS'__setattr__'
p24
S"<method-wrapper '__setattr__' of exceptions.IOError object>"
p25
sS'__reduce_ex__'
p26
S'<built-in method __reduce_ex__ of exceptions.IOError object>'
p27
sS'__new__'
p28
S'<built-in method __new__ of type object>'
p29
sS'errno'
p30
S'22'
p31
sS'__format__'
p32
S'<built-in method __format__ of exceptions.IOError object>'
p33
sS'__class__'
p34
S"<type 'exceptions.IOError'>"
p35
sS'filename'
p36
S'None'
p37
sS'__doc__'
p38
S"'I/O operation failed.'"
p39
sS'__getitem__'
p40
S"<method-wrapper '__getitem__' of exceptions.IOError object>"
p41
sS'__setstate__'
p42
S'<built-in method __setstate__ of exceptions.IOError object>'
p43
sS'__getattribute__'
p44
S"<method-wrapper '__getattribute__' of exceptions.IOError object>"
p45
sS'args'
p46
S"(22, 'Invalid argument')"
p47
sS'__subclasshook__'
p48
S'<built-in method __subclasshook__ of type object>'
p49
sS'__unicode__'
p50
S'<built-in method __unicode__ of exceptions.IOError object>'
p51
sS'strerror'
p52
S"'Invalid argument'"
p53
sS'__delattr__'
p54
S"<method-wrapper '__delattr__' of exceptions.IOError object>"
p55
sS'__repr__'
p56
S"<method-wrapper '__repr__' of exceptions.IOError object>"
p57
sS'__hash__'
p58
S"<method-wrapper '__hash__' of exceptions.IOError object>"
p59
ssS'evalue'
p60
S'[Errno 22] Invalid argument'
p61
sS'request'
p62
cgluon.html
XML_unpickle
p63
(S's\xf4c\x00\x00<div><table><tr><td style="font-weight:bold;vertical-align:top;">ajax</td><td style="vertical-align:top;">:</td><td><div>False</div></td></tr><tr><td style="font-weight:bold;vertical-align:top;">application</td><td style="vertical-align:top;">:</td><td><div>cms</div></td></tr><tr><td style="font-weight:bold;vertical-align:top;">args</td><td style="vertical-align:top;">:</td><td><div><table><tr><td><div>sendmail</div></td></tr></table></div></td></tr><tr><td style="font-weight:bold;vertical-align:top;">cid</td><td style="vertical-align:top;">:</td><td><div>None</div></td></tr><tr><td style="font-weight:bold;vertical-align:top;">client</td><td style="vertical-align:top;">:</td><td><div>127.0.0.1</div></td></tr><tr><td style="font-weight:bold;vertical-align:top;">controller</td><td style="vertical-align:top;">:</td><td><div>portal</div></td></tr><tr><td style="font-weight:bold;vertical-align:top;">cookies</td><td style="vertical-align:top;">:</td><td><div><table><tr><td style="font-weight:bold;vertical-align:top;">nobita-utm</td><td style="vertical-align:top;">:</td><td><div>e30=<table><tr><td style="font-weight:bold;vertical-align:top;">comment</td><td style="vertical-align:top;">:</td><td><div></div></td></tr><tr><td style="font-weight:bold;vertical-align:top;">domain</td><td style="vertical-align:top;">:</td><td><div></div></td></tr><tr><td style="font-weight:bold;vertical-align:top;">expires</td><td style="vertical-align:top;">:</td><td><div></div></td></tr><tr><td style="font-weight:bold;vertical-align:top;">httponly</td><td style="vertical-align:top;">:</td><td><div></div></td></tr><tr><td style="font-weight:bold;vertical-align:top;">max-age</td><td style="vertical-align:top;">:</td><td><div></div></td></tr><tr><td style="font-weight:bold;vertical-align:top;">path</td><td style="vertical-align:top;">:</td><td><div></div></td></tr><tr><td style="font-weight:bold;vertical-align:top;">secure</td><td style="vertical-align:top;">:</td><td><div></div></td></tr><tr><td style="font-weight:bold;vertical-align:top;">version</td><td style="vertical-align:top;">:</td><td><div></div></td></tr></table></div></td></tr><tr><td style="font-weight:bold;vertical-align:top;">session_id_admin</td><td style="vertical-align:top;">:</td><td><div>127.0.0.1-5f12c15e-6d50-49c2-b794-494e1d9f18f7<table><tr><td style="font-weight:bold;vertical-align:top;">comment</td><td style="vertical-align:top;">:</td><td><div></div></td></tr><tr><td style="font-weight:bold;vertical-align:top;">domain</td><td style="vertical-align:top;">:</td><td><div></div></td></tr><tr><td style="font-weight:bold;vertical-align:top;">expires</td><td style="vertical-align:top;">:</td><td><div></div></td></tr><tr><td style="font-weight:bold;vertical-align:top;">httponly</td><td style="vertical-align:top;">:</td><td><div></div></td></tr><tr><td style="font-weight:bold;vertical-align:top;">max-age</td><td style="vertical-align:top;">:</td><td><div></div></td></tr><tr><td style="font-weight:bold;vertical-align:top;">path</td><td style="vertical-align:top;">:</td><td><div></div></td></tr><tr><td style="font-weight:bold;vertical-align:top;">secure</td><td style="vertical-align:top;">:</td><td><div></div></td></tr><tr><td style="font-weight:bold;vertical-align:top;">version</td><td style="vertical-align:top;">:</td><td><div></div></td></tr></table></div></td></tr><tr><td style="font-weight:bold;vertical-align:top;">session_id_cms</td><td style="vertical-align:top;">:</td><td><div>26/127.0.0.1-b6352493-0109-4ddf-a79d-1e2b623f9b26<table><tr><td style="font-weight:bold;vertical-align:top;">comment</td><td style="vertical-align:top;">:</td><td><div></div></td></tr><tr><td style="font-weight:bold;vertical-align:top;">domain</td><td style="vertical-align:top;">:</td><td><div></div></td></tr><tr><td style="font-weight:bold;vertical-align:top;">expires</td><td style="vertical-align:top;">:</td><td><div></div></td></tr><tr><td style="font-weight:bold;vertical-align:top;">httponly</td><td style="vertical-align:top;">:</td><td><div></div></td></tr><tr><td style="font-weight:bold;vertical-align:top;">max-age</td><td style="vertical-align:top;">:</td><td><div></div></td></tr><tr><td style="font-weight:bold;vertical-align:top;">path</td><td style="vertical-align:top;">:</td><td><div></div></td></tr><tr><td style="font-weight:bold;vertical-align:top;">secure</td><td style="vertical-align:top;">:</td><td><div></div></td></tr><tr><td style="font-weight:bold;vertical-align:top;">version</td><td style="vertical-align:top;">:</td><td><div></div></td></tr></table></div></td></tr></table></div></td></tr><tr><td style="font-weight:bold;vertical-align:top;">env</td><td style="vertical-align:top;">:</td><td><div><table><tr><td style="font-weight:bold;vertical-align:top;">HTTP_ACCEPT</td><td style="vertical-align:top;">:</td><td><div>text/html,application/xhtml+xml,application/xml;q=0.9,image/avif,image/webp,image/apng,*/*;q=0.8,application/signed-exchange;v=b3;q=0.7</div></td></tr><tr><td style="font-weight:bold;vertical-align:top;">HTTP_ACCEPT_ENCODING</td><td style="vertical-align:top;">:</td><td><div>gzip, deflate, br, zstd</div></td></tr><tr><td style="font-weight:bold;vertical-align:top;">HTTP_ACCEPT_LANGUAGE</td><td style="vertical-align:top;">:</td><td><div>en-US,en;q=0.9,vi-VN;q=0.8,vi;q=0.7,fr-FR;q=0.6,fr;q=0.5</div></td></tr><tr><td style="font-weight:bold;vertical-align:top;">HTTP_CONNECTION</td><td style="vertical-align:top;">:</td><td><div>keep-alive</div></td></tr><tr><td style="font-weight:bold;vertical-align:top;">HTTP_COOKIE</td><td style="vertical-align:top;">:</td><td><div>nobita-utm=e30=; session_id_admin=127.0.0.1-5f12c15e-6d50-49c2-b794-494e1d9f18f7; session_id_cms=&quot;26/127.0.0.1-b6352493-0109-4ddf-a79d-1e2b623f9b26&quot;</div></td></tr><tr><td style="font-weight:bold;vertical-align:top;">HTTP_HOST</td><td style="vertical-align:top;">:</td><td><div>127.0.0.1:8000</div></td></tr><tr><td style="font-weight:bold;vertical-align:top;">HTTP_SEC_CH_UA</td><td style="vertical-align:top;">:</td><td><div>&quot;Not)A;Brand&quot;;v=&quot;99&quot;, &quot;Google Chrome&quot;;v=&quot;127&quot;, &quot;Chromium&quot;;v=&quot;127&quot;</div></td></tr><tr><td style="font-weight:bold;vertical-align:top;">HTTP_SEC_CH_UA_MOBILE</td><td style="vertical-align:top;">:</td><td><div>?0</div></td></tr><tr><td style="font-weight:bold;vertical-align:top;">HTTP_SEC_CH_UA_PLATFORM</td><td style="vertical-align:top;">:</td><td><div>&quot;Windows&quot;</div></td></tr><tr><td style="font-weight:bold;vertical-align:top;">HTTP_SEC_FETCH_DEST</td><td style="vertical-align:top;">:</td><td><div>document</div></td></tr><tr><td style="font-weight:bold;vertical-align:top;">HTTP_SEC_FETCH_MODE</td><td style="vertical-align:top;">:</td><td><div>navigate</div></td></tr><tr><td style="font-weight:bold;vertical-align:top;">HTTP_SEC_FETCH_SITE</td><td style="vertical-align:top;">:</td><td><div>none</div></td></tr><tr><td style="font-weight:bold;vertical-align:top;">HTTP_SEC_FETCH_USER</td><td style="vertical-align:top;">:</td><td><div>?1</div></td></tr><tr><td style="font-weight:bold;vertical-align:top;">HTTP_UPGRADE_INSECURE_REQUESTS</td><td style="vertical-align:top;">:</td><td><div>1</div></td></tr><tr><td style="font-weight:bold;vertical-align:top;">HTTP_USER_AGENT</td><td style="vertical-align:top;">:</td><td><div>Mozilla/5.0 (Windows NT 10.0; Win64; x64) AppleWebKit/537.36 (KHTML, like Gecko) Chrome/127.0.0.0 Safari/537.36</div></td></tr><tr><td style="font-weight:bold;vertical-align:top;">PATH_INFO</td><td style="vertical-align:top;">:</td><td><div>/sendmail</div></td></tr><tr><td style="font-weight:bold;vertical-align:top;">QUERY_STRING</td><td style="vertical-align:top;">:</td><td><div></div></td></tr><tr><td style="font-weight:bold;vertical-align:top;">REMOTE_ADDR</td><td style="vertical-align:top;">:</td><td><div>127.0.0.1</div></td></tr><tr><td style="font-weight:bold;vertical-align:top;">REMOTE_PORT</td><td style="vertical-align:top;">:</td><td><div>50231</div></td></tr><tr><td style="font-weight:bold;vertical-align:top;">REQUEST_METHOD</td><td style="vertical-align:top;">:</td><td><div>GET</div></td></tr><tr><td style="font-weight:bold;vertical-align:top;">SCRIPT_NAME</td><td style="vertical-align:top;">:</td><td><div></div></td></tr><tr><td style="font-weight:bold;vertical-align:top;">SERVER_NAME</td><td style="vertical-align:top;">:</td><td><div>DESKTOP-GUAHLA8</div></td></tr><tr><td style="font-weight:bold;vertical-align:top;">SERVER_PORT</td><td style="vertical-align:top;">:</td><td><div>8000</div></td></tr><tr><td style="font-weight:bold;vertical-align:top;">SERVER_PROTOCOL</td><td style="vertical-align:top;">:</td><td><div>HTTP/1.1</div></td></tr><tr><td style="font-weight:bold;vertical-align:top;">SERVER_SOFTWARE</td><td style="vertical-align:top;">:</td><td><div>Rocket 1.2.6</div></td></tr><tr><td style="font-weight:bold;vertical-align:top;">app_folders</td><td style="vertical-align:top;">:</td><td><div>set([&#x27;C:\\\\Users\\\\F6\\\\Downloads\\\\bahadi\\\\9026-py2\\\\applications\\\\cms\\\\&#x27;])</div></td></tr><tr><td style="font-weight:bold;vertical-align:top;">applications_parent</td><td style="vertical-align:top;">:</td><td><div>C:\\Users\\F6\\Downloads\\bahadi\\9026-py2</div></td></tr><tr><td style="font-weight:bold;vertical-align:top;">cmd_args</td><td style="vertical-align:top;">:</td><td><div><table></table></div></td></tr><tr><td style="font-weight:bold;vertical-align:top;">cmd_options</td><td style="vertical-align:top;">:</td><td><div>&lt;Values at 0x3f42468: {&#x27;verbose&#x27;: False, &#x27;ip&#x27;: &#x27;127.0.0.1&#x27;, &#x27;debuglevel&#x27;: 30, &#x27;with_scheduler&#x27;: False, &#x27;shutdown_timeout&#x27;: 5, &#x27;taskbar&#x27;: False, &#x27;with_coverage&#x27;: False, &#x27;pid_filename&#x27;: &#x27;httpserver.pid&#x27;, &#x27;maxthreads&#x27;: None, &#x27;softcron&#x27;: False, &#x27;server_name&#x27;: &#x27;DESKTOP-GUAHLA8&#x27;, &#x27;bpython&#x27;: False, &#x27;nogui&#x27;: False, &#x27;port&#x27;: 8000, &#x27;print_errors&#x27;: False, &#x27;extcron&#x27;: False, &#x27;runcron&#x27;: False, &#x27;run_system_tests&#x27;: False, &#x27;test&#x27;: None, &#x27;folder&#x27;: &#x27;C:\\\\Users\\\\F6\\\\Downloads\\\\bahadi\\\\9026-py2&#x27;, &#x27;config&#x27;: &#x27;&#x27;, &#x27;minthreads&#x27;: None, &#x27;shell&#x27;: None, &#x27;run&#x27;: &#x27;&#x27;, &#x27;log_filename&#x27;: &#x27;httpserver.log&#x27;, &#x27;profiler_dir&#x27;: None, &#x27;args&#x27;: [&#x27;&#x27;], &#x27;socket_timeout&#x27;: 5, &#x27;ssl_ca_certificate&#x27;: None, &#x27;scheduler&#x27;: None, &#x27;interfaces&#x27;: None, &#x27;ssl_private_key&#x27;: &#x27;&#x27;, &#x27;gae&#x27;: None, &#x27;password&#x27;: &#x27;******&#x27;, &#x27;request_queue_size&#x27;: 5, &#x27;ssl_certificate&#x27;: &#x27;&#x27;, &#x27;cronjob&#x27;: False, &#x27;numthreads&#x27;: None, &#x27;quiet&#x27;: False, &#x27;import_models&#x27;: False, &#x27;timeout&#x27;: 10, &#x27;plain&#x27;: False, &#x27;nobanner&#x27;: False}&gt;</div></td></tr><tr><td style="font-weight:bold;vertical-align:top;">db_sessions</td><td style="vertical-align:top;">:</td><td><div>set([])</div></td></tr><tr><td style="font-weight:bold;vertical-align:top;">debugging</td><td style="vertical-align:top;">:</td><td><div>False</div></td></tr><tr><td style="font-weight:bold;vertical-align:top;">gluon_parent</td><td style="vertical-align:top;">:</td><td><div>C:\\Users\\F6\\Downloads\\bahadi\\9026-py2</div></td></tr><tr><td style="font-weight:bold;vertical-align:top;">http_accept</td><td style="vertical-align:top;">:</td><td><div>text/html,application/xhtml+xml,application/xml;q=0.9,image/avif,image/webp,image/apng,*/*;q=0.8,application/signed-exchange;v=b3;q=0.7</div></td></tr><tr><td style="font-weight:bold;vertical-align:top;">http_accept_encoding</td><td style="vertical-align:top;">:</td><td><div>gzip, deflate, br, zstd</div></td></tr><tr><td style="font-weight:bold;vertical-align:top;">http_accept_language</td><td style="vertical-align:top;">:</td><td><div>en-US,en;q=0.9,vi-VN;q=0.8,vi;q=0.7,fr-FR;q=0.6,fr;q=0.5</div></td></tr><tr><td style="font-weight:bold;vertical-align:top;">http_connection</td><td style="vertical-align:top;">:</td><td><div>keep-alive</div></td></tr><tr><td style="font-weight:bold;vertical-align:top;">http_cookie</td><td style="vertical-align:top;">:</td><td><div>nobita-utm=e30=; session_id_admin=127.0.0.1-5f12c15e-6d50-49c2-b794-494e1d9f18f7; session_id_cms=&quot;26/127.0.0.1-b6352493-0109-4ddf-a79d-1e2b623f9b26&quot;</div></td></tr><tr><td style="font-weight:bold;vertical-align:top;">http_host</td><td style="vertical-align:top;">:</td><td><div>127.0.0.1:8000</div></td></tr><tr><td style="font-weight:bold;vertical-align:top;">http_sec_ch_ua</td><td style="vertical-align:top;">:</td><td><div>&quot;Not)A;Brand&quot;;v=&quot;99&quot;, &quot;Google Chrome&quot;;v=&quot;127&quot;, &quot;Chromium&quot;;v=&quot;127&quot;</div></td></tr><tr><td style="font-weight:bold;vertical-align:top;">http_sec_ch_ua_mobile</td><td style="vertical-align:top;">:</td><td><div>?0</div></td></tr><tr><td style="font-weight:bold;vertical-align:top;">http_sec_ch_ua_platform</td><td style="vertical-align:top;">:</td><td><div>&quot;Windows&quot;</div></td></tr><tr><td style="font-weight:bold;vertical-align:top;">http_sec_fetch_dest</td><td style="vertical-align:top;">:</td><td><div>document</div></td></tr><tr><td style="font-weight:bold;vertical-align:top;">http_sec_fetch_mode</td><td style="vertical-align:top;">:</td><td><div>navigate</div></td></tr><tr><td style="font-weight:bold;vertical-align:top;">http_sec_fetch_site</td><td style="vertical-align:top;">:</td><td><div>none</div></td></tr><tr><td style="font-weight:bold;vertical-align:top;">http_sec_fetch_user</td><td style="vertical-align:top;">:</td><td><div>?1</div></td></tr><tr><td style="font-weight:bold;vertical-align:top;">http_upgrade_insecure_requests</td><td style="vertical-align:top;">:</td><td><div>1</div></td></tr><tr><td style="font-weight:bold;vertical-align:top;">http_user_agent</td><td style="vertical-align:top;">:</td><td><div>Mozilla/5.0 (Windows NT 10.0; Win64; x64) AppleWebKit/537.36 (KHTML, like Gecko) Chrome/127.0.0.0 Safari/537.36</div></td></tr><tr><td style="font-weight:bold;vertical-align:top;">is_jython</td><td style="vertical-align:top;">:</td><td><div>False</div></td></tr><tr><td style="font-weight:bold;vertical-align:top;">is_pypy</td><td style="vertical-align:top;">:</td><td><div>False</div></td></tr><tr><td style="font-weight:bold;vertical-align:top;">is_source</td><td style="vertical-align:top;">:</td><td><div>True</div></td></tr><tr><td style="font-weight:bold;vertical-align:top;">local_hosts</td><td style="vertical-align:top;">:</td><td><div><table><tr><td><div>192.168.1.93</div></td></tr><tr><td><div>fe80::7fed:a3c0:ee6e:c02e%3</div></td></tr><tr><td><div>::ffff:127.0.0.1</div></td></tr><tr><td><div>::1</div></td></tr><tr><td><div>DESKTOP-GUAHLA8</div></td></tr><tr><td><div>192.168.186.1</div></td></tr><tr><td><div>169.254.226.3</div></td></tr><tr><td><div>127.0.0.1</div></td></tr><tr><td><div>fe80::d487:29a4:871:bc6e%16</div></td></tr></table></div></td></tr><tr><td style="font-weight:bold;vertical-align:top;">path_info</td><td style="vertical-align:top;">:</td><td><div>/sendmail</div></td></tr><tr><td style="font-weight:bold;vertical-align:top;">query_string</td><td style="vertical-align:top;">:</td><td><div></div></td></tr><tr><td style="font-weight:bold;vertical-align:top;">remote_addr</td><td style="vertical-align:top;">:</td><td><div>127.0.0.1</div></td></tr><tr><td style="font-weight:bold;vertical-align:top;">remote_port</td><td style="vertical-align:top;">:</td><td><div>50231</div></td></tr><tr><td style="font-weight:bold;vertical-align:top;">request_method</td><td style="vertical-align:top;">:</td><td><div>GET</div></td></tr><tr><td style="font-weight:bold;vertical-align:top;">request_uri</td><td style="vertical-align:top;">:</td><td><div>/cms/portal/folder/sendmail</div></td></tr><tr><td style="font-weight:bold;vertical-align:top;">script_name</td><td style="vertical-align:top;">:</td><td><div></div></td></tr><tr><td style="font-weight:bold;vertical-align:top;">server_name</td><td style="vertical-align:top;">:</td><td><div>DESKTOP-GUAHLA8</div></td></tr><tr><td style="font-weight:bold;vertical-align:top;">server_port</td><td style="vertical-align:top;">:</td><td><div>8000</div></td></tr><tr><td style="font-weight:bold;vertical-align:top;">server_protocol</td><td style="vertical-align:top;">:</td><td><div>HTTP/1.1</div></td></tr><tr><td style="font-weight:bold;vertical-align:top;">server_software</td><td style="vertical-align:top;">:</td><td><div>Rocket 1.2.6</div></td></tr><tr><td style="font-weight:bold;vertical-align:top;">web2py_original_uri</td><td style="vertical-align:top;">:</td><td><div>/sendmail</div></td></tr><tr><td style="font-weight:bold;vertical-align:top;">web2py_path</td><td style="vertical-align:top;">:</td><td><div>C:\\Users\\F6\\Downloads\\bahadi\\9026-py2</div></td></tr><tr><td style="font-weight:bold;vertical-align:top;">web2py_version</td><td style="vertical-align:top;">:</td><td><div>2.21.1-stable+timestamp.2020.11.28.04.10.44</div></td></tr><tr><td style="font-weight:bold;vertical-align:top;">wsgi.errors</td><td style="vertical-align:top;">:</td><td><div>&lt;open file &#x27;&lt;stderr&gt;&#x27;, mode &#x27;w&#x27; at 0x02F9D0D0&gt;</div></td></tr><tr><td style="font-weight:bold;vertical-align:top;">wsgi.file_wrapper</td><td style="vertical-align:top;">:</td><td><div>&lt;class wsgiref.util.FileWrapper at 0x03EC4B20&gt;</div></td></tr><tr><td style="font-weight:bold;vertical-align:top;">wsgi.input</td><td style="vertical-align:top;">:</td><td><div>&lt;socket._fileobject object at 0x0AD1D130&gt;</div></td></tr><tr><td style="font-weight:bold;vertical-align:top;">wsgi.multiprocess</td><td style="vertical-align:top;">:</td><td><div>False</div></td></tr><tr><td style="font-weight:bold;vertical-align:top;">wsgi.multithread</td><td style="vertical-align:top;">:</td><td><div>True</div></td></tr><tr><td style="font-weight:bold;vertical-align:top;">wsgi.run_once</td><td style="vertical-align:top;">:</td><td><div>False</div></td></tr><tr><td style="font-weight:bold;vertical-align:top;">wsgi.url_scheme</td><td style="vertical-align:top;">:</td><td><div>http</div></td></tr><tr><td style="font-weight:bold;vertical-align:top;">wsgi.version</td><td style="vertical-align:top;">:</td><td><div><table><tr><td><div>1</div></td></tr><tr><td><div>0</div></td></tr></table></div></td></tr><tr><td style="font-weight:bold;vertical-align:top;">wsgi_errors</td><td style="vertical-align:top;">:</td><td><div>&lt;open file &#x27;&lt;stderr&gt;&#x27;, mode &#x27;w&#x27; at 0x02F9D0D0&gt;</div></td></tr><tr><td style="font-weight:bold;vertical-align:top;">wsgi_file_wrapper</td><td style="vertical-align:top;">:</td><td><div>&lt;class wsgiref.util.FileWrapper at 0x03EC4B20&gt;</div></td></tr><tr><td style="font-weight:bold;vertical-align:top;">wsgi_input</td><td style="vertical-align:top;">:</td><td><div>&lt;socket._fileobject object at 0x0AD1D130&gt;</div></td></tr><tr><td style="font-weight:bold;vertical-align:top;">wsgi_multiprocess</td><td style="vertical-align:top;">:</td><td><div>False</div></td></tr><tr><td style="font-weight:bold;vertical-align:top;">wsgi_multithread</td><td style="vertical-align:top;">:</td><td><div>True</div></td></tr><tr><td style="font-weight:bold;vertical-align:top;">wsgi_run_once</td><td style="vertical-align:top;">:</td><td><div>False</div></td></tr><tr><td style="font-weight:bold;vertical-align:top;">wsgi_url_scheme</td><td style="vertical-align:top;">:</td><td><div>http</div></td></tr><tr><td style="font-weight:bold;vertical-align:top;">wsgi_version</td><td style="vertical-align:top;">:</td><td><div><table><tr><td><div>1</div></td></tr><tr><td><div>0</div></td></tr></table></div></td></tr></table></div></td></tr><tr><td style="font-weight:bold;vertical-align:top;">extension</td><td style="vertical-align:top;">:</td><td><div>html</div></td></tr><tr><td style="font-weight:bold;vertical-align:top;">folder</td><td style="vertical-align:top;">:</td><td><div>C:\\Users\\F6\\Downloads\\bahadi\\9026-py2\\applications\\cms\\</div></td></tr><tr><td style="font-weight:bold;vertical-align:top;">function</td><td style="vertical-align:top;">:</td><td><div>folder</div></td></tr><tr><td style="font-weight:bold;vertical-align:top;">global_settings</td><td style="vertical-align:top;">:</td><td><div><table><tr><td style="font-weight:bold;vertical-align:top;">app_folders</td><td style="vertical-align:top;">:</td><td><div>set([&#x27;C:\\\\Users\\\\F6\\\\Downloads\\\\bahadi\\\\9026-py2\\\\applications\\\\cms\\\\&#x27;])</div></td></tr><tr><td style="font-weight:bold;vertical-align:top;">applications_parent</td><td style="vertical-align:top;">:</td><td><div>C:\\Users\\F6\\Downloads\\bahadi\\9026-py2</div></td></tr><tr><td style="font-weight:bold;vertical-align:top;">cmd_args</td><td style="vertical-align:top;">:</td><td><div><table></table></div></td></tr><tr><td style="font-weight:bold;vertical-align:top;">cmd_options</td><td style="vertical-align:top;">:</td><td><div>&lt;Values at 0x3f42468: {&#x27;verbose&#x27;: False, &#x27;ip&#x27;: &#x27;127.0.0.1&#x27;, &#x27;debuglevel&#x27;: 30, &#x27;with_scheduler&#x27;: False, &#x27;shutdown_timeout&#x27;: 5, &#x27;taskbar&#x27;: False, &#x27;with_coverage&#x27;: False, &#x27;pid_filename&#x27;: &#x27;httpserver.pid&#x27;, &#x27;maxthreads&#x27;: None, &#x27;softcron&#x27;: False, &#x27;server_name&#x27;: &#x27;DESKTOP-GUAHLA8&#x27;, &#x27;bpython&#x27;: False, &#x27;nogui&#x27;: False, &#x27;port&#x27;: 8000, &#x27;print_errors&#x27;: False, &#x27;extcron&#x27;: False, &#x27;runcron&#x27;: False, &#x27;run_system_tests&#x27;: False, &#x27;test&#x27;: None, &#x27;folder&#x27;: &#x27;C:\\\\Users\\\\F6\\\\Downloads\\\\bahadi\\\\9026-py2&#x27;, &#x27;config&#x27;: &#x27;&#x27;, &#x27;minthreads&#x27;: None, &#x27;shell&#x27;: None, &#x27;run&#x27;: &#x27;&#x27;, &#x27;log_filename&#x27;: &#x27;httpserver.log&#x27;, &#x27;profiler_dir&#x27;: None, &#x27;args&#x27;: [&#x27;&#x27;], &#x27;socket_timeout&#x27;: 5, &#x27;ssl_ca_certificate&#x27;: None, &#x27;scheduler&#x27;: None, &#x27;interfaces&#x27;: None, &#x27;ssl_private_key&#x27;: &#x27;&#x27;, &#x27;gae&#x27;: None, &#x27;password&#x27;: &#x27;******&#x27;, &#x27;request_queue_size&#x27;: 5, &#x27;ssl_certificate&#x27;: &#x27;&#x27;, &#x27;cronjob&#x27;: False, &#x27;numthreads&#x27;: None, &#x27;quiet&#x27;: False, &#x27;import_models&#x27;: False, &#x27;timeout&#x27;: 10, &#x27;plain&#x27;: False, &#x27;nobanner&#x27;: False}&gt;</div></td></tr><tr><td style="font-weight:bold;vertical-align:top;">db_sessions</td><td style="vertical-align:top;">:</td><td><div>set([])</div></td></tr><tr><td style="font-weight:bold;vertical-align:top;">debugging</td><td style="vertical-align:top;">:</td><td><div>False</div></td></tr><tr><td style="font-weight:bold;vertical-align:top;">gluon_parent</td><td style="vertical-align:top;">:</td><td><div>C:\\Users\\F6\\Downloads\\bahadi\\9026-py2</div></td></tr><tr><td style="font-weight:bold;vertical-align:top;">is_jython</td><td style="vertical-align:top;">:</td><td><div>False</div></td></tr><tr><td style="font-weight:bold;vertical-align:top;">is_pypy</td><td style="vertical-align:top;">:</td><td><div>False</div></td></tr><tr><td style="font-weight:bold;vertical-align:top;">is_source</td><td style="vertical-align:top;">:</td><td><div>True</div></td></tr><tr><td style="font-weight:bold;vertical-align:top;">local_hosts</td><td style="vertical-align:top;">:</td><td><div><table><tr><td><div>192.168.1.93</div></td></tr><tr><td><div>fe80::7fed:a3c0:ee6e:c02e%3</div></td></tr><tr><td><div>::ffff:127.0.0.1</div></td></tr><tr><td><div>::1</div></td></tr><tr><td><div>DESKTOP-GUAHLA8</div></td></tr><tr><td><div>192.168.186.1</div></td></tr><tr><td><div>169.254.226.3</div></td></tr><tr><td><div>127.0.0.1</div></td></tr><tr><td><div>fe80::d487:29a4:871:bc6e%16</div></td></tr></table></div></td></tr><tr><td style="font-weight:bold;vertical-align:top;">web2py_version</td><td style="vertical-align:top;">:</td><td><div>2.21.1-stable+timestamp.2020.11.28.04.10.44</div></td></tr></table></div></td></tr><tr><td style="font-weight:bold;vertical-align:top;">is_https</td><td style="vertical-align:top;">:</td><td><div>False</div></td></tr><tr><td style="font-weight:bold;vertical-align:top;">is_local</td><td style="vertical-align:top;">:</td><td><div>True</div></td></tr><tr><td style="font-weight:bold;vertical-align:top;">is_restful</td><td style="vertical-align:top;">:</td><td><div>False</div></td></tr><tr><td style="font-weight:bold;vertical-align:top;">is_scheduler</td><td style="vertical-align:top;">:</td><td><div>False</div></td></tr><tr><td style="font-weight:bold;vertical-align:top;">is_shell</td><td style="vertical-align:top;">:</td><td><div>False</div></td></tr><tr><td style="font-weight:bold;vertical-align:top;">now</td><td style="vertical-align:top;">:</td><td><div>datetime.datetime(2024, 8, 20, 15, 24, 1, 606000)</div></td></tr><tr><td style="font-weight:bold;vertical-align:top;">url</td><td style="vertical-align:top;">:</td><td><div>/sendmail</div></td></tr><tr><td style="font-weight:bold;vertical-align:top;">utcnow</td><td style="vertical-align:top;">:</td><td><div>datetime.datetime(2024, 8, 20, 8, 24, 1, 606000)</div></td></tr><tr><td style="font-weight:bold;vertical-align:top;">wsgi</td><td style="vertical-align:top;">:</td><td><div>&lt;gluon.main.LazyWSGI object at 0x0AFBB230&gt;</div></td></tr></table></div>'
tRp64
sS'frames'
p65
(lp66
(dp67
S'file'
p68
S'C:\\Users\\F6\\Downloads\\bahadi\\9026-py2\\gluon\\restricted.py'
p69
sS'dump'
p70
(dp71
S'environment'
p72
S"{'A': <class 'gluon.html.A'>, 'ANY_OF': <class 'gluon.validators.ANY_OF'>, 'ASSIGNJS': <function ASSIGNJS>, 'AppConfig': <function AppConfig>, 'Auth': <class 'gluon.tools.Auth'>, 'B': <class 'gluon.html.B'>, 'BEAUTIFY': <class 'gluon.html.BEAUTIFY'>, 'BODY': <class 'gluon.html.BODY'>, 'BR': <class 'gluon.html.BR'>, 'BUTTON': <class 'gluon.html.BUTTON'>, ...}"
p73
sS'ccode'
p74
S'<code object <module> at 0B06C9B0, file "C:\\User...ms\\views\\site/ghephang/default/404.html", line 1>'
p75
ssS'lnum'
p76
I227
sS'lines'
p77
(dp78
I224
S'            ccode = code'
p79
sI225
S'        else:'
p80
sI226
S'            ccode = compile2(code, layer)'
p81
sI227
S'        exec ccode in environment'
p82
sI228
S'    except HTTP:'
p83
sI229
S'        raise'
p84
sI230
S'    except RestrictedError:'
p85
sI231
S'        # do not encapsulate (obfuscate) the original RestrictedError'
p86
sI222
S'    try:'
p87
sI223
S'        if isinstance(code, types.CodeType):'
p88
ssS'call'
p89
S'(code="response.write(\' \', escape=False)\\nresponse.write...write(\'\\\\r\\\\n</body>\\\\r\\\\n\\\\r\\\\n</html>\', escape=False)", environment={\'A\': <class \'gluon.html.A\'>, \'ANY_OF\': <class \'gluon.validators.ANY_OF\'>, \'ASSIGNJS\': <function ASSIGNJS>, \'AppConfig\': <function AppConfig>, \'Auth\': <class \'gluon.tools.Auth\'>, \'B\': <class \'gluon.html.B\'>, \'BEAUTIFY\': <class \'gluon.html.BEAUTIFY\'>, \'BODY\': <class \'gluon.html.BODY\'>, \'BR\': <class \'gluon.html.BR\'>, \'BUTTON\': <class \'gluon.html.BUTTON\'>, ...}, layer=r\'C:\\Users\\F6\\Downloads\\bahadi\\9026-py2\\applications\\cms\\views\\site/ghephang/default/404.html\')'
p90
sS'func'
p91
S'restricted'
p92
sa(dp93
g68
S'C:\\Users\\F6\\Downloads\\bahadi\\9026-py2\\applications\\cms\\views\\site\\ghephang\\default\\404.html'
p94
sg70
(dp95
S'viewBox'
p96
S'undefined'
p97
ssg76
I13
sg77
(dp98
I4
S"response.write('\\r\\n', escape=False)"
p99
sI5
S"static_view='site/ghephang/default'"
p100
sI6
S"response.write('\\r\\n', escape=False)"
p101
sI7
S"response.write('\\r\\n    ', escape=False)"
p102
sI8
S'is_page = "page"'
p103
sI9
S"response.write('\\r\\n    ', escape=False)"
p104
sI10
S'class_top = ""'
p105
sI11
S"response.write('\\r\\n', escape=False)"
p106
sI12
S'response.write(\'\\r\\n\\r\\n<head>\\r\\n    <!-- Required meta tags -->\\r\\n    <meta charset="utf-8">\\r\\n    <meta name="viewport" content="width=device-width, initial-scale=1, shrink-to-fit=no">\\r\\n    \', escape=False)'
p107
sI13
S'response.write(cms.metadc())'
p108
sI14
S'response.write(\'\\r\\n    <!-- Bootstrap Min CSS -->\\r\\n    <link rel="stylesheet" href="\', escape=False)'
p109
sI15
S"response.write(URL('static','%s/css')%(static_default))"
p110
sI16
S'response.write(\'/bootstrap.min.css">\\r\\n    <!-- Owl Theme Default Min CSS -->\\r\\n    <link rel="stylesheet" href="\', escape=False)'
p111
sI17
S"response.write(URL('static','%s/css')%(static_default))"
p112
sI18
S'response.write(\'/owl.theme.default.min.css">\\r\\n    <!-- Owl Carousel Min CSS -->\\r\\n    <link rel="stylesheet" href="\', escape=False)'
p113
sI19
S"response.write(URL('static','%s/css')%(static_default))"
p114
sI20
S'response.write(\'/owl.carousel.min.css">\\r\\n    <!-- Owl Magnific Min CSS -->\\r\\n    <link rel="stylesheet" href="\', escape=False)'
p115
sI21
S"response.write(URL('static','%s/css')%(static_default))"
p116
sI22
S'response.write(\'/magnific-popup.min.css">\\r\\n    <!-- Animate Min CSS -->\\r\\n    <link rel="stylesheet" href="\', escape=False)'
p117
sI23
S"response.write(URL('static','%s/css')%(static_default))"
p118
ssg89
S'()'
p119
sg91
S'<module>'
p120
sa(dp121
g68
S'C:\\Users\\F6\\Downloads\\bahadi\\9026-py2\\applications\\cms\\modules\\plugin_cms.py'
p122
sg70
(dp123
S'e'
S'AttributeError("\'NoneType\' object has no attribute \'description\'",)'
p124
ssg76
I1249
sg77
(dp125
I1248
S'\t\texcept Exception, e:'
p126
sI1249
S'\t\t\tprint e'
p127
sI1250
S"\t\t\treturn ''"
p128
sI1251
S''
sI1252
S'\tdef metadc_van_tai(self):'
p129
sI1253
S'\t\ttry:'
p130
sI1244
S'\t\t\t<meta property="og:site_name" content="%s" />'
p131
sI1245
S'\t\t\t<meta property="article:published_time" content="%s" />'
p132
sI1246
S'\t\t\t<meta property="article:section" content="%s" />\'\'\' %(meta_title ,Configsite().page_icon,meta_title,row.creator,row.created_on,row.modified_on,row.publish_on,row.publish_on,row.publisher,meta_description,indeitifier,row.languague,source,row.folder.label,meta_title,indeitifier,avatar,meta_description,self.metatile() ,row.publish_on,row.folder.label)'
p133
sI1247
S'\t\t\treturn XML(meta)'
p134
ssg89
S'(self=<applications.cms.modules.plugin_cms.Cms instance>)'
p135
sg91
S'metadc'
p136
sasS'pyver'
p137
S'Python 2.7.18: C:\\Python27\\python.exe (prefix: C:\\Python27)'
p138
sS'session'
p139
g63
(S's\x1a\x00\x00\x00<div><table></table></div>'
tRp140
sS'etype'
p141
S"<type 'exceptions.IOError'>"
p142
sS'date'
p143
S'Tue Aug 20 15:24:01 2024'
p144
sS'response'
p145
g63
(S's3\x16\x00\x00<div><table><tr><td style="font-weight:bold;vertical-align:top;">body</td><td style="vertical-align:top;">:</td><td><div>&lt;cStringIO.StringO object at 0x0AFBB7A0&gt;</div></td></tr><tr><td style="font-weight:bold;vertical-align:top;">cookies</td><td style="vertical-align:top;">:</td><td><div><table><tr><td style="font-weight:bold;vertical-align:top;">session_id_cms</td><td style="vertical-align:top;">:</td><td><div>127.0.0.1-3e2d7842-7907-4db4-a939-a54e1bdca08a<table><tr><td style="font-weight:bold;vertical-align:top;">comment</td><td style="vertical-align:top;">:</td><td><div></div></td></tr><tr><td style="font-weight:bold;vertical-align:top;">domain</td><td style="vertical-align:top;">:</td><td><div></div></td></tr><tr><td style="font-weight:bold;vertical-align:top;">expires</td><td style="vertical-align:top;">:</td><td><div></div></td></tr><tr><td style="font-weight:bold;vertical-align:top;">httponly</td><td style="vertical-align:top;">:</td><td><div></div></td></tr><tr><td style="font-weight:bold;vertical-align:top;">max-age</td><td style="vertical-align:top;">:</td><td><div></div></td></tr><tr><td style="font-weight:bold;vertical-align:top;">path</td><td style="vertical-align:top;">:</td><td><div>/</div></td></tr><tr><td style="font-weight:bold;vertical-align:top;">secure</td><td style="vertical-align:top;">:</td><td><div></div></td></tr><tr><td style="font-weight:bold;vertical-align:top;">version</td><td style="vertical-align:top;">:</td><td><div></div></td></tr></table></div></td></tr></table></div></td></tr><tr><td style="font-weight:bold;vertical-align:top;">delimiters</td><td style="vertical-align:top;">:</td><td><div><table><tr><td><div>{{</div></td></tr><tr><td><div>}}</div></td></tr></table></div></td></tr><tr><td style="font-weight:bold;vertical-align:top;">files</td><td style="vertical-align:top;">:</td><td><div><table></table></div></td></tr><tr><td style="font-weight:bold;vertical-align:top;">flash</td><td style="vertical-align:top;">:</td><td><div></div></td></tr><tr><td style="font-weight:bold;vertical-align:top;">form_label_separator</td><td style="vertical-align:top;">:</td><td><div></div></td></tr><tr><td style="font-weight:bold;vertical-align:top;">formstyle</td><td style="vertical-align:top;">:</td><td><div>bootstrap3_inline</div></td></tr><tr><td style="font-weight:bold;vertical-align:top;">generic_patterns</td><td style="vertical-align:top;">:</td><td><div><table><tr><td><div>*</div></td></tr></table></div></td></tr><tr><td style="font-weight:bold;vertical-align:top;">headers</td><td style="vertical-align:top;">:</td><td><div><table><tr><td style="font-weight:bold;vertical-align:top;">X-Powered-By</td><td style="vertical-align:top;">:</td><td><div>web2py</div></td></tr></table></div></td></tr><tr><td style="font-weight:bold;vertical-align:top;">menu</td><td style="vertical-align:top;">:</td><td><div><table></table></div></td></tr><tr><td style="font-weight:bold;vertical-align:top;">meta</td><td style="vertical-align:top;">:</td><td><div><table></table></div></td></tr><tr><td style="font-weight:bold;vertical-align:top;">models_to_run</td><td style="vertical-align:top;">:</td><td><div><table><tr><td><div>^\\w+\\.py$</div></td></tr><tr><td><div>^portal/\\w+\\.py$</div></td></tr><tr><td><div>^portal/folder/\\w+\\.py$</div></td></tr></table></div></td></tr><tr><td style="font-weight:bold;vertical-align:top;">postprocessing</td><td style="vertical-align:top;">:</td><td><div><table></table></div></td></tr><tr><td style="font-weight:bold;vertical-align:top;">session_client</td><td style="vertical-align:top;">:</td><td><div>127.0.0.1</div></td></tr><tr><td style="font-weight:bold;vertical-align:top;">session_cookie_compression_level</td><td style="vertical-align:top;">:</td><td><div>None</div></td></tr><tr><td style="font-weight:bold;vertical-align:top;">session_cookie_expires</td><td style="vertical-align:top;">:</td><td><div>None</div></td></tr><tr><td style="font-weight:bold;vertical-align:top;">session_data_name</td><td style="vertical-align:top;">:</td><td><div>session_data_cms</div></td></tr><tr><td style="font-weight:bold;vertical-align:top;">session_file</td><td style="vertical-align:top;">:</td><td><div>None</div></td></tr><tr><td style="font-weight:bold;vertical-align:top;">session_filename</td><td style="vertical-align:top;">:</td><td><div>C:\\Users\\F6\\Downloads\\bahadi\\9026-py2\\applications\\cms\\sessions\\127.0.0.1-3e2d7842-7907-4db4-a939-a54e1bdca08a</div></td></tr><tr><td style="font-weight:bold;vertical-align:top;">session_hash</td><td style="vertical-align:top;">:</td><td><div>c0762cbf4baf7f9af97c051e7fcb8083</div></td></tr><tr><td style="font-weight:bold;vertical-align:top;">session_id</td><td style="vertical-align:top;">:</td><td><div>127.0.0.1-3e2d7842-7907-4db4-a939-a54e1bdca08a</div></td></tr><tr><td style="font-weight:bold;vertical-align:top;">session_id_name</td><td style="vertical-align:top;">:</td><td><div>session_id_cms</div></td></tr><tr><td style="font-weight:bold;vertical-align:top;">session_masterapp</td><td style="vertical-align:top;">:</td><td><div>cms</div></td></tr><tr><td style="font-weight:bold;vertical-align:top;">session_new</td><td style="vertical-align:top;">:</td><td><div>True</div></td></tr><tr><td style="font-weight:bold;vertical-align:top;">session_storage_type</td><td style="vertical-align:top;">:</td><td><div>file</div></td></tr><tr><td style="font-weight:bold;vertical-align:top;">status</td><td style="vertical-align:top;">:</td><td><div>200</div></td></tr><tr><td style="font-weight:bold;vertical-align:top;">view</td><td style="vertical-align:top;">:</td><td><div>site/ghephang/default/404.html</div></td></tr></table></div>'
tRp146
sS'locals'
p147
(dp148
S'e'
S'AttributeError("\'NoneType\' object has no attribute \'description\'",)'
p149
sS'Configsite'
p150
S'<class applications.cms.modules.plugin_config.Configsite>'
p151
sS'tablename'
p152
S'None'
p153
sS'self'
p154
S'<applications.cms.modules.plugin_cms.Cms instance>'
p155
sg62
S"<Storage {'_vars': None, 'function': 'folder', '...wnloads\\\\bahadi\\\\9026-py2\\\\applications\\\\cms\\\\'}>"
p156
sS'link'
p157
S'None'
p158
sS'table'
p159
S'<Table dcontent (id, folder, dtable, table_id, l...ue, publisher, creator, created_on, modified_on)>'
p160
sS'row'
p161
S'None'
p162
sssS'traceback'
p163
S'Traceback (most recent call last):\n  File "C:\\Users\\F6\\Downloads\\bahadi\\9026-py2\\gluon\\restricted.py", line 227, in restricted\n    exec ccode in environment\n  File "C:\\Users\\F6\\Downloads\\bahadi\\9026-py2\\applications\\cms\\views\\site/ghephang/default/404.html", line 13, in <module>\n    viewBox="0 0 800 600">\n  File "applications\\cms\\modules\\plugin_cms.py", line 1249, in metadc\n    print e\nIOError: [Errno 22] Invalid argument\n'
p164
s.