(dp1
S'output'
p2
S'missing "pass" in view'
p3
sS'layer'
p4
S'ParserContainer'
p5
sS'code'
p6
S'response.write(\'<!doctype html>\\r\\n<html lang="en">\\r\\n\\r\\n\', escape=False)\nstatic_default=\'site/ghephang/template/default\'\nresponse.write(\'\\r\\n\', escape=False)\nstatic_view=\'site/ghephang/default\'\nresponse.write(\'\\r\\n\', escape=False)\nresponse.write(\'\\r\\n    \', escape=False)\nis_page = "page"\nresponse.write(\'\\r\\n    \', escape=False)\nclass_top = ""\nresponse.write(\'\\r\\n\', escape=False)\nresponse.write(\'\\r\\n\\r\\n<head>\\r\\n    <!-- Required meta tags -->\\r\\n    <meta charset="utf-8">\\r\\n    <meta name="viewport" content="width=device-width, initial-scale=1, shrink-to-fit=no">\\r\\n    \', escape=False)\nresponse.write(cms.metadc())\nresponse.write(\'\\r\\n    <!-- Bootstrap Min CSS -->\\r\\n    <link rel="stylesheet" href="\', escape=False)\nresponse.write(URL(\'static\',\'%s/css\')%(static_default))\nresponse.write(\'/bootstrap.min.css">\\r\\n    <!-- Owl Theme Default Min CSS -->\\r\\n    <link rel="stylesheet" href="\', escape=False)\nresponse.write(URL(\'static\',\'%s/css\')%(static_default))\nresponse.write(\'/owl.theme.default.min.css">\\r\\n    <!-- Owl Carousel Min CSS -->\\r\\n    <link rel="stylesheet" href="\', escape=False)\nresponse.write(URL(\'static\',\'%s/css\')%(static_default))\nresponse.write(\'/owl.carousel.min.css">\\r\\n    <!-- Owl Magnific Min CSS -->\\r\\n    <link rel="stylesheet" href="\', escape=False)\nresponse.write(URL(\'static\',\'%s/css\')%(static_default))\nresponse.write(\'/magnific-popup.min.css">\\r\\n    <!-- Animate Min CSS -->\\r\\n    <link rel="stylesheet" href="\', escape=False)\nresponse.write(URL(\'static\',\'%s/css\')%(static_default))\nresponse.write(\'/animate.min.css">\\r\\n    <!-- Boxicons Min CSS -->\\r\\n    <link rel="stylesheet" href="\', escape=False)\nresponse.write(URL(\'static\',\'%s/css\')%(static_default))\nresponse.write(\'/boxicons.min.css">\\r\\n    <!-- Flaticon CSS -->\\r\\n    <link rel="stylesheet" href="\', escape=False)\nresponse.write(URL(\'static\',\'%s/css\')%(static_default))\nresponse.write(\'/flaticon.css">\\r\\n    <!-- Meanmenu Min CSS -->\\r\\n    <link rel="stylesheet" href="\', escape=False)\nresponse.write(URL(\'static\',\'%s/css\')%(static_default))\nresponse.write(\'/meanmenu.min.css">\\r\\n    <!-- Nice Select Min CSS -->\\r\\n    <!-- <link rel="stylesheet" href="\', escape=False)\nresponse.write(URL(\'static\',\'%s/css\')%(static_default))\nresponse.write(\'/nice-select.min.css"> -->\\r\\n    <!-- Odometer Min CSS-->\\r\\n    <link rel="stylesheet" href="\', escape=False)\nresponse.write(URL(\'static\',\'%s/css\')%(static_default))\nresponse.write(\'/odometer.min.css">\\r\\n    <!-- Style CSS -->\\r\\n    <link rel="stylesheet" href="\', escape=False)\nresponse.write(URL(\'static\',\'%s/css\')%(static_default))\nresponse.write(\'/style.css">\\r\\n    <!-- Dark CSS -->\\r\\n    <link rel="stylesheet" href="\', escape=False)\nresponse.write(URL(\'static\',\'%s/css\')%(static_default))\nresponse.write(\'/dark.css">\\r\\n    <!-- Responsive CSS -->\\r\\n    <link rel="stylesheet" href="\', escape=False)\nresponse.write(URL(\'static\',\'%s/css\')%(static_default))\nresponse.write(\'/responsive.css">\\r\\n    \', escape=False)\nresponse.write(\'\\r\\n    \', escape=False)\nresponse.write(\'\\r\\n    \', escape=False)\nresponse.write(\'\\n<script type="text/javascript"><!--\\n    // These variables are used by the web2py_ajax_init function in web2py_ajax.js (which is loaded below).\\n    var w2p_ajax_confirm_message = "\', escape=False)\nresponse.write(T(\'Are you sure you want to delete this object?\'))\nresponse.write(\'";\\n    var w2p_ajax_disable_with_message = "\', escape=False)\nresponse.write(T(\'Working...\'))\nresponse.write(\'";\\n    var w2p_ajax_date_format = "\', escape=False)\nresponse.write(T(\'%d/%m/%Y\'))\nresponse.write(\'";\\n    var w2p_ajax_datetime_format = "\', escape=False)\nresponse.write(T(\'%d/%m/%Y %H:%M:%S\'))\nresponse.write(\'";\\n    var ajax_error_500 = \\\'\', escape=False)\nresponse.write(T.M(\'An error occured, please [[reload %s]] the page\') % URL(args=request.args, vars=request.get_vars))\nresponse.write("\'\\n    //--></script>\\n", escape=False)\nresponse.files.insert(0,URL(\'static\',\'js/jquery.js\'))\nresponse.files.insert(1,URL(\'static\',\'css/calendar.css\'))\nresponse.files.insert(2,URL(\'static\',\'js/calendar.js\'))\nresponse.files.insert(3,URL(\'static\',\'js/web2py.js\'))\nresponse.files.insert(3,URL(\'static\',\'js/jquery.browser.min.js\'))\nresponse.include_meta()\nresponse.include_files()\nresponse.write(\'\\n\', escape=False)\nresponse.write(\'\\r\\n    <!-- Favicon -->\\r\\n    <!-- Title -->\\r\\n    <style>\\r\\n        .app-form{\\r\\n            display: flex;\\r\\n            justify-content: center;\\r\\n            align-items: center;\\r\\n        }\\r\\n        .app-form-1{\\r\\n            display: flex;\\r\\n    flex-direction: column;\\r\\n    justify-content: center;\\r\\n    align-items: center;\\r\\n    padding: 15px 0;\\r\\n    width: 600px;\\r\\n    background-color: rgba(241, 243, 244, 0.8);\\r\\n    margin: 20px;\\r\\n    box-sizing: border-box;\\r\\n            flex-shrink: 0;\\r\\n\\r\\n        }\\r\\n        .text-1{\\r\\n            text-align: center;\\r\\n            display: block;\\r\\n            margin: auto;\\r\\n            font-family: \\\'Cabin\\\', sans-serif;\\r\\n            font-size:30px ;\\r\\n            color:#3C3C3B;\\r\\n        }\\r\\n        .icon-button{\\r\\n            display: flex;\\r\\n            justify-content: center;\\r\\n            align-items: center;\\r\\n            margin: 15px;\\r\\n            }\\r\\n        .images-logo{\\r\\n            width: 150px;\\r\\n            border-radius:20%;\\r\\n            display: block;\\r\\n            margin: auto;\\r\\n            overflow: hidden;\\r\\n        }\\r\\n        .images-logo img {\\r\\n            width: 100%;\\r\\n            height: auto;\\r\\n            border-radius: 23%;\\r\\n        }\\r\\n        .icon-button-app{\\r\\n\\r\\n    width: 150px;\\r\\n    margin: 0 5px;\\r\\n\\r\\n        }\\r\\n\\r\\n        .search-wrap .container {\\r\\n            margin-top: 50px;\\r\\n            padding: 60px 40px;\\r\\n            transform: translatey(0);\\r\\n            background: white;\\r\\n        }\\r\\n\\r\\n        .form:not(.open) iframe {\\r\\n            display: none\\r\\n        }\\r\\n\\r\\n        #overlay {\\r\\n            position: fixed;\\r\\n            display: none;\\r\\n            width: 100%;\\r\\n            height: 100%;\\r\\n            top: 0;\\r\\n            left: 0;\\r\\n            right: 0;\\r\\n            bottom: 0;\\r\\n            background-color: rgba(0, 0, 0, 0.5);\\r\\n            z-index: 2;\\r\\n            cursor: pointer;\\r\\n        }\\r\\n\\r\\n        .floating-action-menu {\\r\\n            bottom: 10px;\\r\\n            right: 10px;\\r\\n            z-index: 999;\\r\\n        }\\r\\n\\r\\n        .text-right {\\r\\n            text-align: right !important;\\r\\n        }\\r\\n\\r\\n        .floating-action-menu>.action-menu {\\r\\n            visibility: hidden;\\r\\n            -webkit-transform: translateY(65px);\\r\\n            transform: translateY(65px);\\r\\n            opacity: 0;\\r\\n            max-height: 0;\\r\\n            overflow: hidden;\\r\\n            -webkit-transition: all 300ms linear;\\r\\n            transition: all 300ms linear;\\r\\n        }\\r\\n\\r\\n        .floating-action {\\r\\n            background-color: #fff;\\r\\n            border-radius: 28px;\\r\\n            margin-top: 5px;\\r\\n            width: -webkit-fit-content;\\r\\n            width: -moz-fit-content;\\r\\n            width: fit-content;\\r\\n            float: right;\\r\\n            clear: both;\\r\\n        }\\r\\n\\r\\n        .floating-action:hover {\\r\\n            background-color: #fff4f3;\\r\\n        }\\r\\n\\r\\n        .floating-action-menu.active>.action-menu {\\r\\n            visibility: visible;\\r\\n            -webkit-transform: translate(0);\\r\\n            transform: translate(0);\\r\\n            opacity: 1;\\r\\n            padding-bottom: 5px;\\r\\n            max-height: 1000px;\\r\\n        }\\r\\n\\r\\n        .floating-action .badge {\\r\\n            font-weight: 400;\\r\\n            font-size: 15px;\\r\\n            line-height: 18px;\\r\\n            color: #1a1a1a;\\r\\n        }\\r\\n\\r\\n        .badge {\\r\\n            display: inline-block;\\r\\n            padding: 0.25em 0.4em;\\r\\n            font-size: 75%;\\r\\n            font-weight: 500;\\r\\n            line-height: 1;\\r\\n            text-align: center;\\r\\n            white-space: nowrap;\\r\\n            vertical-align: baseline;\\r\\n            border-radius: 0.25rem;\\r\\n        }\\r\\n\\r\\n        a.floating-action:hover .badge {\\r\\n            color: #fa4612;\\r\\n        }\\r\\n\\r\\n\\r\\n\\r\\n        .floating-action-menu.active>.action-menu .btn-floating,\\r\\n        .floating-action-menu.active>.action-menu .badge {\\r\\n            -webkit-transform: scale(1);\\r\\n            transform: scale(1);\\r\\n        }\\r\\n\\r\\n        .floating-action-menu>.action-menu .btn-floating,\\r\\n        .floating-action-menu>.action-menu .badge {\\r\\n            -webkit-transform: scale(0.4);\\r\\n            transform: scale(0.4);\\r\\n            -webkit-transition: all 300ms ease-in-out;\\r\\n            transition: all 300ms ease-in-out;\\r\\n        }\\r\\n    </style>\\r\\n    <meta name="zalo-platform-site-verification" content="EFQQUBBhINfPxUCbXUDg65AIxZo-x3LaD3O" />\\r\\n</head>\\r\\n\\r\\n<body>\\r\\n    <!-- Start Preloader Area -->\\r\\n    <div class="preloader">\\r\\n        <div class="lds-ripple">\\r\\n            <div></div>\\r\\n            <div></div>\\r\\n        </div>\\r\\n    </div>\\r\\n    <!-- End Preloader Area -->\\r\\n    \', escape=False)\nresponse.write(\' \', escape=False)\nresponse.write(\'\\r\\n    \', escape=False)\nresponse.write(\'<header class="header-area-four \', escape=False)\nresponse.write(class_top)\nresponse.write(\'">\\r\\n    <!-- Start Top Header Area -->\\r\\n    <div class="header-style-four">\\r\\n        <div class="container">\\r\\n            <div class="row align-items-center">\\r\\n                <div class="col-lg-4 col-md-5">\\r\\n                    <div class="header-left-content">\\r\\n                        <ul>\\r\\n                            <li>\\r\\n                                <a href="tel:1900888678">\\r\\n                                    <i class="bx bx-phone-call"></i>\\r\\n                                    1900.888.678\\r\\n                                </a>\\r\\n                            </li>\\r\\n                            <li>\\r\\n                                <a href="mailto:info@ghephang.com">\\r\\n                                    <i class="bx bx-envelope"></i>\\r\\n                                    [info@ghephang.com]\\r\\n                                </a>\\r\\n                            </li>\\r\\n                        </ul>\\r\\n                    </div>\\r\\n                </div>\\r\\n                <div class="col-lg-8 col-md-7">\\r\\n                    <div class="header-right-content">\\r\\n                        <ul class="additional-link">\\r\\n                            <li>\\r\\n                                <a href="/uu-dai">\\xc6\\xafu \\xc4\\x91\\xc3\\xa3i</a>\\r\\n                            </li>\\r\\n                            <li>\\r\\n                                <a href="/tuyen-dung">Tuy\\xe1\\xbb\\x83n d\\xe1\\xbb\\xa5ng</a>\\r\\n                            </li>\\r\\n                            <li>\\r\\n                                <a href="/faq">C\\xc3\\xa2u h\\xe1\\xbb\\x8fi th\\xc6\\xb0\\xe1\\xbb\\x9dng g\\xe1\\xba\\xb7p</a>\\r\\n                            </li>\\r\\n                        </ul>\\r\\n                        <ul class="social-links">\\r\\n                             \', escape=False)\nresponse.write(\'<li>\\r\\n    <a href="#">\\r\\n        <i class=\\\'bx bxl-twitter\\\'></i>\\r\\n    </a>\\r\\n</li>\\r\\n<li>\\r\\n    <a href="#">\\r\\n        <i class=\\\'bx bxl-facebook\\\'></i>\\r\\n    </a>\\r\\n</li>\\r\\n<li>\\r\\n    <a href="#">\\r\\n        <i class=\\\'bx bxl-instagram\\\'></i>\\r\\n    </a>\\r\\n</li>\\r\\n<li>\\r\\n    <a href="#">\\r\\n        <i class=\\\'bx bxl-linkedin\\\'></i>\\r\\n    </a>\\r\\n</li>\\r\\n\', escape=False)\nresponse.write(\'\\r\\n                        </ul>\\r\\n                    </div>\\r\\n                </div>\\r\\n            </div>\\r\\n        </div>\\r\\n    </div>\\r\\n    <!-- End Top Header Area -->\\r\\n\\r\\n    <!-- Start Prevoz Navbar Area -->\\r\\n    <div class="prevoz-nav-style prevoz-nav-style-four">\\r\\n        <div class="navbar-area">\\r\\n            <!-- Menu For Mobile Device -->\\r\\n            <div class="mobile-nav">\\r\\n                <a href="/trang-chu" class="logo">\\r\\n                    <img src="\', escape=False)\nresponse.write(URL(\'static\',\'%s/img\')%(static_default))\nresponse.write(\'/logo.png" alt="Logo">\\r\\n                </a>\\r\\n            </div>\\r\\n            <!-- Menu For Desktop Device -->\\r\\n            <div class="main-nav">\\r\\n                <nav class="navbar navbar-expand-md navbar-light">\\r\\n                    <div class="container">\\r\\n                        <a class="navbar-brand" href="/trang-chu">\\r\\n                            <img src="\', escape=False)\nresponse.write(URL(\'static\',\'%s/img\')%(static_default))\nresponse.write(\'/logo.png" alt="Logo">\\r\\n                        </a>\\r\\n                        <div class="collapse navbar-collapse mean-menu" id="navbarSupportedContent">\\r\\n                            \', escape=False)\nresponse.write(\'<ul class="navbar-nav mr-auto">\\r\\n    <li class="nav-item">\\r\\n        <a href="/khach-hang" class="nav-link">Kh\\xc3\\xa1ch h\\xc3\\xa0ng</a>\\r\\n    </li>\\r\\n    \\r\\n    <li class="nav-item">\\r\\n        <a href="/buu-cuc" class="nav-link">B\\xc6\\xb0u c\\xe1\\xbb\\xa5c</a>\\r\\n    </li>\\r\\n    \\r\\n    <li class="nav-item">\\r\\n        <a href="/tai-xe" class="nav-link">T\\xc3\\xa0i x\\xe1\\xba\\xbf</a>\\r\\n    </li>\\r\\n      \\r\\n\\t<li class="nav-item">\\r\\n        <a href="/gioi-thieu" class="nav-link dropdown-toggle">\\r\\n            Ti\\xe1\\xbb\\x87n \\xc3\\xadch\\r\\n            <i class=\\\'bx bx-chevron-down\\\'></i>\\r\\n        </a>\\r\\n        <ul class="dropdown-menu">\\r\\n            <li class="nav-item">\\r\\n\\t\\t\\t\\t<a href="/tra-van-don" class="nav-link">Tra c\\xe1\\xbb\\xa9u v\\xe1\\xba\\xadn \\xc4\\x91\\xc6\\xa1n</a>\\r\\n            </li>\\r\\n            <li class="nav-item">\\r\\n\\t\\t\\t\\t<a href="/tim-buu-cuc" class="nav-link">T\\xc3\\xacm b\\xc6\\xb0u c\\xe1\\xbb\\xa5c</a>\\r\\n            </li>\\r\\n\\t\\t\\t\\r\\n        </ul>\\r\\n    </li>\\r\\n \\r\\n\\t<li class="nav-item">\\r\\n        <a href="/gioi-thieu" class="nav-link dropdown-toggle">\\r\\n            V\\xe1\\xbb\\x81 ch\\xc3\\xbang t\\xc3\\xb4i\\r\\n            <i class=\\\'bx bx-chevron-down\\\'></i>\\r\\n        </a>\\r\\n        <ul class="dropdown-menu">\\r\\n            <li class="nav-item">\\r\\n                <a href="/gioi-thieu" class="nav-link">V\\xe1\\xbb\\x81 ch\\xc3\\xbang t\\xc3\\xb4i</a>\\r\\n            </li>\\r\\n            <li class="nav-item">\\r\\n                <a href="/faq" class="nav-link">C\\xc3\\xa2u h\\xe1\\xbb\\x8fi th\\xc6\\xb0\\xe1\\xbb\\x9dng g\\xe1\\xba\\xb7p</a>\\r\\n            </li>\\r\\n\\t\\t\\t<li class="nav-item">\\r\\n\\t\\t\\t\\t<a href="/tin-tuc-su-kien" class="nav-link">Tin t\\xe1\\xbb\\xa9c s\\xe1\\xbb\\xb1 ki\\xe1\\xbb\\x87n</a>\\r\\n\\t\\t\\t</li>\\r\\n\\t\\t\\t<li class="nav-item">\\r\\n\\t\\t\\t\\t<a href="/lien-he" class="nav-link">Li\\xc3\\xaan h\\xe1\\xbb\\x87</a>\\r\\n\\t\\t\\t</li>\\r\\n        </ul>\\r\\n    </li>\\r\\n \\r\\n    \\r\\n</ul>\', escape=False)\nresponse.write(\'\\r\\n                            <!-- Start Other Option -->\\r\\n                            <div class="others-option">\\r\\n                                <div class="search-wrap">\\r\\n                                    <a href=".search">\\r\\n                                        <i class=\\\'bx bx-search\\\'></i>\\r\\n                                    </a>\\r\\n                                </div>\\r\\n                                <!-- <button type="button" class="sidebar-menu" data-bs-toggle="modal"\\r\\n                                    data-bs-target="#myModal2">\\r\\n                                    <i class="flaticon-menu"></i>\\r\\n                                </button> -->\\r\\n                                <!-- <a class="default-btn" href="/tao-don"> -->\\r\\n                                    <!-- T\\xe1\\xba\\xa1o \\xc4\\x91\\xc6\\xa1n -->\\r\\n                                <!-- </a> -->\\r\\n<!-- \\r\\n                                <div class="dark-switch">\\r\\n                                    <div class="switch-box">\\r\\n                                        <label id="switch" class="switch">\\r\\n                                            <input type="checkbox" onchange="toggleTheme()" id="slider">\\r\\n                                            <span class="slider round"></span>\\r\\n                                        </label>\\r\\n                                    </div>\\r\\n                                </div> -->\\r\\n                            </div>\\r\\n                            <!-- End Other Option -->\\r\\n                        </div>\\r\\n                    </div>\\r\\n                </nav>\\r\\n            </div>\\r\\n        </div>\\r\\n    </div>\\r\\n    <!-- End Prevoz Navbar Area -->\\r\\n</header>\', escape=False)\nresponse.write(\'\\r\\n    <!-- Start Header Area -->\\r\\n    \', escape=False)\nresponse.write(\'<!-- Start Sidebar Modal -->\\r\\n<div class="sidebar-modal">\\r\\n    <div class="modal right fade" id="myModal2" tabindex="-1" role="dialog" aria-labelledby="myModalLabel2">\\r\\n        <div class="modal-dialog" role="document">\\r\\n            <div class="modal-content">\\r\\n                <div class="modal-header">\\r\\n                    <button type="button" class="close" data-bs-dismiss="modal" aria-label="Close">\\r\\n                        <span aria-hidden="true">\\r\\n                            <i class="bx bx-x"></i>\\r\\n                        </span>\\r\\n                    </button>\\r\\n                    </button>\\r\\n                    <h2 class="modal-title" id="myModalLabel2">\\r\\n                        <a href="/trang-chu">\\r\\n                            <img src="\', escape=False)\nresponse.write(URL(\'static\',\'%s/img\')%(static_default))\nresponse.write(\'/logo.png" alt="Logo">\\r\\n                        </a>\\r\\n                    </h2>\\r\\n                </div>\\r\\n                <div class="modal-body">\\r\\n                    <div class="sidebar-modal-widget">\\r\\n                        <h3 class="title">Th\\xc3\\xb4ng tin v\\xe1\\xbb\\x81 ch\\xc3\\xbang t\\xc3\\xb4i</h3>\\r\\n                        <p><b>Ghephang.com</b> v\\xe1\\xbb\\x9bi mong mu\\xe1\\xbb\\x91n \\xc4\\x91\\xc6\\xa1n gi\\xe1\\xba\\xa3n h\\xc3\\xb3a vi\\xe1\\xbb\\x87c giao h\\xc3\\xa0ng, gi\\xc3\\xbap c\\xc3\\xa1c ch\\xe1\\xbb\\xa7 c\\xe1\\xbb\\xada h\\xc3\\xa0ng, c\\xc3\\xa1c nh\\xc3\\xa0 h\\xc3\\xa0ng \\xc4\\x91\\xe1\\xba\\xbfn c\\xc3\\xa1c c\\xc3\\xb4ng ty t\\xe1\\xba\\xa1i Vi\\xe1\\xbb\\x87t Nam\\r\\n                        c\\xc3\\xb3 th\\xe1\\xbb\\x83 t\\xe1\\xba\\xadn h\\xc6\\xb0\\xe1\\xbb\\x9fng m\\xe1\\xbb\\x99t d\\xe1\\xbb\\x8bch v\\xe1\\xbb\\xa5 cao c\\xe1\\xba\\xa5p ti\\xe1\\xbb\\x87n l\\xe1\\xbb\\xa3i nh\\xc6\\xb0ng v\\xe1\\xbb\\x9bi gi\\xe1\\xba\\xa3 c\\xe1\\xba\\xa3 h\\xe1\\xbb\\xa3p l\\xc3\\xbd.</p>\\r\\n                    </div>\\r\\n                    <div class="sidebar-modal-widget">\\r\\n                        <h3 class="title">Li\\xc3\\xaan k\\xe1\\xba\\xbft b\\xe1\\xbb\\x95 sung</h3>\\r\\n                        <ul>\\r\\n                            <li>\\r\\n                                <a href="#">\\xc4\\x90\\xc4\\x83ng nh\\xe1\\xba\\xadp</a>\\r\\n                            </li>\\r\\n                            <li>\\r\\n                                <a href="#">\\xc4\\x90\\xc4\\x83ng k\\xc3\\xbd ngay</a>\\r\\n                            </li>\\r\\n                            <li>\\r\\n                                <a href="/faq">FAQ</a>\\r\\n                            </li>\\r\\n                            <li>\\r\\n                                <a href="#">\\xc4\\x90\\xc4\\x83ng xu\\xe1\\xba\\xa5t</a>\\r\\n                            </li>\\r\\n                        </ul>\\r\\n                    </div>\\r\\n                    <div class="sidebar-modal-widget">\\r\\n                        <h3 class="title">Contact Info</h3>\\r\\n                        <ul class="contact-info">\\r\\n                            <li>\\r\\n                                <i class="bx bx-location-plus"></i>\\r\\n                                \\xc4\\x90\\xe1\\xbb\\x8ba ch\\xe1\\xbb\\x89\\r\\n                                <span>New York - 1060, Str. First 78 Great Western Road</span>\\r\\n                            </li>\\r\\n                            <li>\\r\\n                                <i class="bx bx-envelope"></i>\\r\\n                                Email\\r\\n                                <a\\r\\n                                    href="mailto:info@ghephang.com"><span\\r\\n                                        class="__cf_email__">[info@ghephang.com]</span></a>\\r\\n                                <a\\r\\n                                    href="mailto:info@ghephang.com"><span\\r\\n                                        class="__cf_email__" >[info@ghephang.com]</span></a>\\r\\n                            </li>\\r\\n                            <li>\\r\\n                                <i class="bx bxs-phone-call"></i>\\r\\n                                Phone\\r\\n                                <a href="tel:0356 656 777">0356 656 777</a>\\r\\n                                <a href="tel:0356 656 777">0356 656 777</a>\\r\\n                            </li>\\r\\n                        </ul>\\r\\n                    </div>\\r\\n                    <div class="sidebar-modal-widget">\\r\\n                        <h3 class="title">K\\xe1\\xba\\xbft n\\xe1\\xbb\\x91i v\\xe1\\xbb\\x9bi ch\\xc3\\xbang t\\xc3\\xb4i</h3>\\r\\n                        <ul class="social-list">\\r\\n                            \', escape=False)\nresponse.write(\'<li>\\r\\n    <a href="#">\\r\\n        <i class=\\\'bx bxl-twitter\\\'></i>\\r\\n    </a>\\r\\n</li>\\r\\n<li>\\r\\n    <a href="#">\\r\\n        <i class=\\\'bx bxl-facebook\\\'></i>\\r\\n    </a>\\r\\n</li>\\r\\n<li>\\r\\n    <a href="#">\\r\\n        <i class=\\\'bx bxl-instagram\\\'></i>\\r\\n    </a>\\r\\n</li>\\r\\n<li>\\r\\n    <a href="#">\\r\\n        <i class=\\\'bx bxl-linkedin\\\'></i>\\r\\n    </a>\\r\\n</li>\\r\\n\', escape=False)\nresponse.write(\'\\r\\n                        </ul>\\r\\n                    </div>\\r\\n                </div>\\r\\n            </div>\\r\\n        </div>\\r\\n    </div>\\r\\n</div>\\r\\n<!-- End Sidebar Modal -->\', escape=False)\nresponse.write(\'\\r\\n\\r\\n    <!-- Start Search Box Modal -->\\r\\n    \', escape=False)\nresponse.write(\'<!-- Start Search Box Modal -->\\r\\n<div class="search-wrap hiden-load"  style="display: none;">\\r\\n    <div class="search">\\r\\n        <button type="button" class="close">\\xc3\\x97</button>\\r\\n        <form>\\r\\n            <input type="search" value="" class="form-control" placeholder="Type Here..." />\\r\\n            <button type="submit" class="default-btn">\\r\\n                Search\\r\\n            </button>\\r\\n        </form>\\r\\n    </div>\\r\\n</div>\\r\\n<!-- End Search Box Modal -->\\r\\n\\r\\n\\r\\n\', escape=False)\nresponse.write(\'\\r\\n    <!-- End Search Box Modal -->\\r\\n\\r\\n    <div>\\r\\n        \', escape=False)\nresponse.write(\'\\r\\n\', escape=False)\npage_title =\'T\xc3\xa0i x\xe1\xba\xbf\'\nresponse.write(\'\\r\\n\', escape=False)\ndata = {\n\'dis\': \'\xc4\x90\xe1\xbb\x91i t\xc3\xa1c giao h\xc3\xa0ng \xc4\x91\xc3\xa1ng tin c\xe1\xba\xady c\xe1\xbb\xa7a b\xe1\xba\xa1n\',\n\'title\': \'Tr\xe1\xbb\x9f th\xc3\xa0nh \xc4\x91\xe1\xbb\x91i t\xc3\xa1c t\xc3\xa0i x\xe1\xba\xbf c\xe1\xbb\xa7a GhepHang.\',\n\'content\': P(\'Th\xc3\xaam thu nh\xe1\xba\xadp, ch\xe1\xbb\xa7 \xc4\x91\xe1\xbb\x99ng c\xc3\xb4ng vi\xe1\xbb\x87c, linh ho\xe1\xba\xa1t th\xe1\xbb\x9di gian khi tr\xe1\xbb\x9f th\xc3\xa0nh \xc4\x91\xe1\xbb\x91i t\xc3\xa1c t\xc3\xa0i x\xe1\xba\xbf Ghephang. H\xc3\xa3y \xc4\x91i\xe1\xbb\x81n th\xc3\xb4ng tin c\xe1\xbb\xa7a b\xe1\xba\xa1n \xc4\x91\xe1\xbb\x83 \xc4\x91\xc4\x83ng k\xc3\xad ngay nh\xc3\xa9!\')+\nP(\'H\xc3\xa3y bi\xe1\xba\xbfn chi\xe1\xba\xbfc xe c\xe1\xbb\xa7a b\xe1\xba\xa1n tr\xe1\xbb\x9f th\xc3\xa0nh c\xc3\xb4ng c\xe1\xbb\xa5 ki\xe1\xba\xbfm ti\xe1\xbb\x81n hi\xe1\xbb\x87u qu\xe1\xba\xa3. V\xe1\xbb\x9bi s\xe1\xbb\xb1 ph\xc3\xa1t tri\xe1\xbb\x83n nhanh ch\xc3\xb3ng v\xe1\xbb\x81 s\xe1\xbb\x91 l\xc6\xb0\xe1\xbb\xa3ng ng\xc6\xb0\xe1\xbb\x9di mua s\xe1\xba\xafm tr\xe1\xbb\xb1c tuy\xe1\xba\xbfn tr\xc3\xaan to\xc3\xa0n th\xc3\xa0nh ph\xe1\xbb\x91, nhu c\xe1\xba\xa7u giao nh\xe1\xba\xadn h\xc3\xa0ng ho\xc3\xa1 c\xc5\xa9ng v\xc3\xac v\xe1\xba\xady m\xc3\xa0 t\xc4\x83ng cao h\xc6\xa1n bao gi\xe1\xbb\x9d h\xe1\xba\xbft. Ghephang gi\xc3\xbap b\xe1\xba\xa1n c\xc3\xb3 \xc4\x91\xc6\xb0\xe1\xbb\xa3c thu nh\xe1\xba\xadp t\xe1\xbb\x91t khi giao nh\xe1\xba\xadn h\xc3\xa0ng ho\xc3\xa1 cho ch\xc3\xbang t\xc3\xb4i.\'),\n\'img\': \'about-img-six.png\',\n\'video\': \'https://www.youtube.com/watch?v=cTxCqUwnLg4\',\n\'benefit\': [\n{\n\'title\': \'T\xc4\x83ng th\xc3\xaam thu nh\xe1\xba\xadp\',\n\'content\': \'T\xc4\x83ng th\xc3\xaam thu nh\xe1\xba\xadp m\xe1\xbb\x97i th\xc3\xa1ng t\xe1\xbb\xab nh\xe1\xbb\xafng \xc4\x91\xc6\xa1n giao h\xc3\xa0ng. Nh\xe1\xba\xadn ti\xe1\xbb\x81n ngay sau m\xe1\xbb\x97i \xc4\x91\xc6\xa1n ho\xc3\xa0n th\xc3\xa0nh.\',\n\'img\':\n    },\n    {\n    \'title\': \'Ch\xe1\xbb\xa7 \xc4\x91\xe1\xbb\x99ng c\xc3\xb4ng vi\xe1\xbb\x87c\',\n    \'content\': \'T\xe1\xbb\xb1 do l\xe1\xbb\xb1a ch\xe1\xbb\x8dn bao nhi\xc3\xaau \xc4\x91\xc6\xa1n h\xc3\xa0ng t\xc3\xb9y th\xc3\xadch b\xe1\xba\xb1ng c\xc3\xa1ch l\xc3\xa0m vi\xe1\xbb\x87c trong th\xe1\xbb\x9di gian r\xe1\xba\xa3nh.\',\n    \'img\': I(_class=\'bx bxs-briefcase-alt-2\')\n    },\n    {\n    \'title\': \'Linh \xc4\x91\xe1\xbb\x99ng th\xe1\xbb\x9di gian\',\n    \'content\': \'Linh \xc4\x91\xe1\xbb\x99ng l\xe1\xbb\xb1a ch\xe1\xbb\x8dn th\xe1\xbb\x9di gian b\xe1\xba\xa1n mu\xe1\xbb\x91n l\xc3\xa0m vi\xe1\xbb\x87c v\xc3\xa0 \xc4\x91\xc6\xa1n h\xc3\xa0ng m\xc3\xa0 b\xe1\xba\xa1n mu\xe1\xbb\x91n giao.\',\n    \'img\': I(_class=\'bx bxs-calendar\')\n    }\n    ]\n    }\n    response.write(\'\\r\\n\\r\\n\', escape=False)\n    response.write(\'<!-- Start Page Title Area -->\\r\\n<div class="page-title-area item-bg-1 jarallax" data-jarallax=\\\'{"speed": 0.3}\\\'>\\r\\n    <div class="container">\\r\\n        <div class="page-title-content">\\r\\n            <div class="row align-items-center">\\r\\n                <div class="col-lg-6 col-sm-6">\\r\\n                    <h2>\', escape=False)\n    response.write(page_title)\n    response.write(\'</h2>\\r\\n                </div>\\r\\n                <div class="col-lg-6 col-sm-6">\\r\\n                    <ul>\\r\\n                        <li>\\r\\n                            <a href="/">\\r\\n                                Trang ch\\xe1\\xbb\\xa7\\r\\n                            </a>\\r\\n                        </li>\\r\\n                        <li>\', escape=False)\n    response.write(page_title)\n    response.write(\'</li>\\r\\n                    </ul>\\r\\n                </div>\\r\\n            </div>\\r\\n        </div>\\r\\n    </div>\\r\\n</div>\\r\\n<!-- End Page Title Area -->\', escape=False)\n    response.write(\'\\r\\n\\r\\n\\r\\n<section class="about-area about-area-two about-area-four about-area-six bg-f7f7f7 ptb-100">\\r\\n    <div class="container">\\r\\n        <div class="row align-items-center">\\r\\n            <div class="col-lg-6">\\r\\n                <div class="about-content">\\r\\n                    <span>\', escape=False)\n    response.write(data[\'dis\'])\n    response.write(\'</span>\\r\\n                    <h2>\', escape=False)\n    response.write(data[\'title\'])\n    response.write(\'</h2>\\r\\n                    <p>\', escape=False)\n    response.write(data[\'content\'])\n    response.write(\'</p>\\r\\n                    <a class="default-btn" href=".form">\\r\\n                        \\xc4\\x90\\xc4\\x82NG K\\xc3\\x9d L\\xc3\\x80M \\xc4\\x90\\xe1\\xbb\\x90I T\\xc3\\x81C T\\xc3\\x80I X\\xe1\\xba\\xbe\\r\\n                    </a>\\r\\n                    <a class="white video-btn popup-youtube" href="\', escape=False)\n    response.write(data[\'video\'])\n    response.write(\'">\\r\\n                        <i class=\\\'bx bx-play\\\'></i>\\r\\n                    </a>\\r\\n                </div>\\r\\n            </div>\\r\\n\\r\\n\\r\\n           \\r\\n\\r\\n            <div class="col-lg-6">\\r\\n    <div class="about-img-six">\\r\\n        <img src="\', escape=False)\n    response.write(URL(\'static\',\'%s/img\')%(static_default))\n    response.write(\'/\', escape=False)\n    response.write(data[\'img\'])\n    response.write(\'" alt="image">\\r\\n\\r\\n    </div>\\r\\n</div>\\r\\n        </div>\\r\\n    </div>\\r\\n    <div class="lines">\\r\\n        <div class="line-two"></div>\\r\\n        <div class="line-two"></div>\\r\\n        <div class="line-two"></div>\\r\\n    </div>\\r\\n</section>\\r\\n<!-- End About Area -->\\r\\n\\r\\n<!-- Stat Choose Area -->\\r\\n<section class="choose-area pt-100 pb-70">\\r\\n    <div class="container">\\r\\n        <div class="section-title">\\r\\n            <h2>T\\xe1\\xba\\xa1i sao n\\xc3\\xaan l\\xe1\\xbb\\xb1a ch\\xe1\\xbb\\x8dn ch\\xc3\\xbang t\\xc3\\xb4i?</h2>\\r\\n            <p>Chuy\\xe1\\xbb\\x83n ph\\xc3\\xa1t nhanh l\\xc3\\xa0 m\\xe1\\xbb\\x99t d\\xe1\\xbb\\x8bch v\\xe1\\xbb\\xa5 s\\xc3\\xa1ng t\\xe1\\xba\\xa1o l\\xc3\\xa0 gi\\xe1\\xba\\xa3i ph\\xc3\\xa1p h\\xe1\\xba\\xadu c\\xe1\\xba\\xa7n hi\\xe1\\xbb\\x87u qu\\xe1\\xba\\xa3 cho vi\\xe1\\xbb\\x87c v\\xe1\\xba\\xadn chuy\\xe1\\xbb\\x83n h\\xc3\\xa0ng h\\xc3\\xb3a nh\\xe1\\xbb\\x8f.\\r\\n                D\\xe1\\xbb\\x8bch v\\xe1\\xbb\\xa5 n\\xc3\\xa0y r\\xe1\\xba\\xa5t h\\xe1\\xbb\\xafu \\xc3\\xadch cho c\\xc3\\xa1c c\\xc3\\xb4ng ty kh\\xc3\\xa1c nhau...</p>\\r\\n        </div>\\r\\n\\r\\n        <div class="row">\\r\\n            \', escape=False)\n    for item in data[\'benefit\'] :\n        response.write(\'\\r\\n            <div class="col-lg-4 col-sm-6">\\r\\n                <div class="single-choose text-center">\\r\\n                    <div class="choose-head">\\r\\n                        \', escape=False)\n        response.write(item[\'img\'])\n        response.write(\'\\r\\n                        <h3>\', escape=False)\n        response.write(item[\'title\'])\n        response.write(\'</h3>\\r\\n                    </div>\\r\\n                    <div class="choose-content">\\r\\n                        <p class="ellipsis-hidden-3">\', escape=False)\n        response.write(item[\'content\'])\n        response.write(\'</p>\\r\\n                        <a href="#" class="read-more">\\r\\n                            Xem th\\xc3\\xaam\\r\\n                            <i class="bx bx-right-arrow-alt"></i>\\r\\n                        </a>\\r\\n                    </div>\\r\\n                </div>\\r\\n            </div>\\r\\n            \', escape=False)\n        pass\n    response.write(\'\\r\\n        </div>\\r\\n    </div>\\r\\n</section>\\r\\n\\r\\n\\r\\n<!-- Start Counter Area -->\\r\\n<section class="counter-area counter-area-two pt-100 pb-70 jarallax" data-jarallax=\\\'{"speed": 0.3}\\\'\\r\\n    style="margin-bottom: 100px;">\\r\\n    <div class="container">\\r\\n        <div class="row">\\r\\n            <div class="col-lg-3 col-md-6 col-sm-6">\\r\\n                <div class="single-counter">\\r\\n                    <i class="flaticon-box"></i>\\r\\n                    <h2>\\r\\n                        <span class="odometer" data-count="8845">00</span> <span class="traget">K</span>\\r\\n                    </h2>\\r\\n                    <p>\\xc4\\x90\\xc6\\xa1n h\\xc3\\xa0ng \\xc4\\x91\\xc3\\xa3 giao</p>\\r\\n                </div>\\r\\n            </div>\\r\\n            <div class="col-lg-3 col-md-6 col-sm-6">\\r\\n                <div class="single-counter">\\r\\n                    <i class="flaticon-planet-earth"></i>\\r\\n                    <h2>\\r\\n                        <span class="odometer" data-count="1507">00</span> <span class="traget">M</span>\\r\\n                    </h2>\\r\\n                    <p>\\xc4\\x90i\\xe1\\xbb\\x83m nh\\xe1\\xba\\xadn h\\xc3\\xa0ng</p>\\r\\n                </div>\\r\\n            </div>\\r\\n            <div class="col-lg-3 col-md-6 col-sm-6">\\r\\n                <div class="single-counter">\\r\\n                    <i class="flaticon-support"></i>\\r\\n                    <h2>\\r\\n                        <span class="odometer" data-count="1000">00</span> <span class="traget">K</span>\\r\\n                    </h2>\\r\\n                    <p>\\xc4\\x90\\xe1\\xbb\\x91i t\\xc3\\xa1c doanh ngi\\xe1\\xbb\\x87p</p>\\r\\n                </div>\\r\\n            </div>\\r\\n            <div class="col-lg-3 col-md-6 col-sm-6">\\r\\n                <div class="single-counter">\\r\\n                    <i class="flaticon-product-realise"></i>\\r\\n                    <h2>\\r\\n                        <span class="odometer" data-count="4586">00</span> <span class="traget">M</span>\\r\\n                    </h2>\\r\\n                    <p>\\xc4\\x90\\xe1\\xbb\\x91i t\\xc3\\xa1c t\\xc3\\xa0i x\\xe1\\xba\\xbf</p>\\r\\n                </div>\\r\\n            </div>\\r\\n        </div>\\r\\n    </div>\\r\\n</section>\\r\\n<!-- End Counter Area -->\\r\\n\\r\\n<!-- Start What We Offer Area -->\\r\\n<section class="what-offer-area-two what-offer-area-four pt-100">\\r\\n    <div class="container">\\r\\n        <div class="row align-items-center">\\r\\n            <div class="col-lg-6">\\r\\n                <div class="row">\\r\\n                    <div class="col-lg-6 col-sm-6">\\r\\n                        <div class="single-offer">\\r\\n                            <i class="icon flaticon-server"></i>\\r\\n                            <h3>T\\xe1\\xba\\xadn h\\xc6\\xb0\\xe1\\xbb\\x9fng thu nh\\xe1\\xba\\xadp h\\xe1\\xba\\xa5p d\\xe1\\xba\\xabn</h3>\\r\\n                            <p>B\\xe1\\xba\\xa1n s\\xe1\\xba\\xbd nh\\xe1\\xba\\xadn \\xc4\\x91\\xc6\\xb0\\xe1\\xbb\\xa3c ti\\xe1\\xbb\\x81n sau m\\xe1\\xbb\\x97i chuy\\xe1\\xba\\xbfn \\xc4\\x91i c\\xc3\\xb9ng v\\xe1\\xbb\\x9bi m\\xe1\\xbb\\x99t lo\\xe1\\xba\\xa1t c\\xc3\\xa1c ch\\xc6\\xb0\\xc6\\xa1ng tr\\xc3\\xacnh th\\xc6\\xb0\\xe1\\xbb\\x9fng h\\xe1\\xba\\xa5p d\\xe1\\xba\\xabn kh\\xc3\\xa1c.</p>\\r\\n                        </div>\\r\\n                    </div>\\r\\n                    <div class="col-lg-6 col-sm-6">\\r\\n                        <div class="single-offer">\\r\\n                            <i class="icon flaticon-air-freight"></i>\\r\\n                            <h3>T\\xe1\\xbb\\xb1 do qu\\xe1\\xba\\xa3n l\\xc3\\xbd th\\xe1\\xbb\\x9di gian</h3>\\r\\n                            <p>B\\xe1\\xba\\xa1n s\\xe1\\xba\\xbd c\\xc3\\xb3 quy\\xe1\\xbb\\x81n t\\xe1\\xbb\\xb1 do nh\\xe1\\xba\\xadn c\\xc3\\xa1c \\xc4\\x91\\xc6\\xa1n h\\xc3\\xa0ng \\xc4\\x91\\xe1\\xbb\\x83 ki\\xe1\\xba\\xbfm th\\xc3\\xaam thu nh\\xe1\\xba\\xadp m\\xe1\\xbb\\x97i khi b\\xe1\\xba\\xa1n mu\\xe1\\xbb\\x91n.</p>\\r\\n                        </div>\\r\\n                    </div>\\r\\n                    <div class="col-lg-6 col-sm-6">\\r\\n                        <div class="single-offer">\\r\\n                            <i class="icon flaticon-plastic-bottle"></i>\\r\\n                            <h3>\\xc4\\x90\\xc4\\x83ng k\\xc3\\xbd nhanh ch\\xc3\\xb3ng v\\xc3\\xa0 d\\xe1\\xbb\\x85 d\\xc3\\xa0ng</h3>\\r\\n                            <p>Ch\\xe1\\xbb\\x89 c\\xe1\\xba\\xa7n \\xc4\\x91i\\xe1\\xbb\\x81n th\\xc3\\xb4ng tin c\\xe1\\xbb\\xa7a b\\xe1\\xba\\xa1n, ch\\xc3\\xbang t\\xc3\\xb4i s\\xe1\\xba\\xbd li\\xc3\\xaan h\\xe1\\xbb\\x87 ngay \\xc4\\x91\\xe1\\xbb\\x83 h\\xe1\\xbb\\x97 tr\\xe1\\xbb\\xa3 b\\xe1\\xba\\xa1n trong qu\\xc3\\xa1 tr\\xc3\\xacnh \\xc4\\x91\\xc4\\x83ng k\\xc3\\xbd.\\r\\n                            H\\xc3\\xa3y \\xc4\\x91\\xe1\\xbb\\x83 Ghephang tr\\xe1\\xbb\\x9f th\\xc3\\xa0nh \\xc4\\x91\\xe1\\xbb\\x91i t\\xc3\\xa1c \\xc4\\x91\\xc3\\xa1ng tin c\\xe1\\xba\\xady c\\xe1\\xbb\\xa7a b\\xe1\\xba\\xa1n v\\xc3\\xa0 gi\\xc3\\xbap b\\xe1\\xba\\xa1n t\\xe1\\xba\\xadn d\\xe1\\xbb\\xa5ng t\\xe1\\xbb\\x91i \\xc4\\x91a ti\\xe1\\xbb\\x81m n\\xc4\\x83ng thu nh\\xe1\\xba\\xadp c\\xe1\\xbb\\xa7a m\\xc3\\xacnh.</p>\\r\\n                        </div>\\r\\n                    </div>\\r\\n                    <div class="col-lg-6 col-sm-6">\\r\\n                        <div class="single-offer">\\r\\n                            <i class="icon flaticon-street"></i>\\r\\n                            <h3>\\xc6\\xafu \\xc4\\x91\\xc3\\xa3i & \\xc4\\x91\\xe1\\xba\\xb7c quy\\xe1\\xbb\\x81n</h3>\\r\\n                            <p>Nh\\xe1\\xba\\xadn th\\xc3\\xaam qu\\xc3\\xa0 t\\xe1\\xba\\xb7ng c\\xc3\\xb9ng \\xc6\\xb0u \\xc4\\x91\\xc3\\xa3i h\\xe1\\xba\\xa5p d\\xe1\\xba\\xabn cho c\\xc3\\xa1c th\\xc3\\xa0nh vi\\xc3\\xaan GhepHang, bao g\\xe1\\xbb\\x93m g\\xc3\\xb3i b\\xe1\\xba\\xa3o hi\\xe1\\xbb\\x83m, g\\xc3\\xb3i c\\xe1\\xbb\\xa9u h\\xe1\\xbb\\x99 xe m\\xc3\\xa1y, th\\xe1\\xba\\xbb c\\xc3\\xa0o\\r\\n                            \\xc4\\x91i\\xe1\\xbb\\x87n tho\\xe1\\xba\\xa1i,...</p>\\r\\n                        </div>\\r\\n                    </div>\\r\\n                </div>\\r\\n            </div>\\r\\n            <div class="col-lg-6">\\r\\n                <div class="what-offer-content">\\r\\n                    <span>Quy\\xe1\\xbb\\x81n l\\xe1\\xbb\\xa3i \\xc4\\x91\\xe1\\xbb\\x91i t\\xc3\\xa1c t\\xc3\\xa0i x\\xe1\\xba\\xbf</span>\\r\\n                    <h2>TR\\xe1\\xbb\\x9e TH\\xc3\\x80NH \\xc4\\x90\\xe1\\xbb\\x90I T\\xc3\\x81C T\\xc3\\x80I X\\xe1\\xba\\xbe C\\xe1\\xbb\\xa6A GHEPHANG</h2>\\r\\n                    <p>Nh\\xe1\\xba\\xadn th\\xc3\\xaam qu\\xc3\\xa0 t\\xe1\\xba\\xb7ng c\\xc3\\xb9ng \\xc6\\xb0u \\xc4\\x91\\xc3\\xa3i h\\xe1\\xba\\xa5p d\\xe1\\xba\\xabn cho c\\xc3\\xa1c th\\xc3\\xa0nh vi\\xc3\\xaan GhepHang, bao g\\xe1\\xbb\\x93m g\\xc3\\xb3i b\\xe1\\xba\\xa3o hi\\xe1\\xbb\\x83m, g\\xc3\\xb3i c\\xe1\\xbb\\xa9u h\\xe1\\xbb\\x99 xe m\\xc3\\xa1y, th\\xe1\\xba\\xbb c\\xc3\\xa0o\\r\\n                        \\xc4\\x91i\\xe1\\xbb\\x87n tho\\xe1\\xba\\xa1i,...</p>\\r\\n                    <a class="default-btn" href="#">\\r\\n                        T\\xe1\\xba\\xa5t c\\xe1\\xba\\xa3 d\\xe1\\xbb\\x8bch v\\xe1\\xbb\\xa5\\r\\n                    </a>\\r\\n                </div>\\r\\n            </div>\\r\\n\\r\\n        </div>\\r\\n    </div>\\r\\n</section>\\r\\n<!-- End What We Offer Area -->\\r\\n\\r\\n<div class="pt-70"></div>\\r\\n\\r\\n<!-- start Service Area -->\\r\\n<section class="service-area service-area-two pb-100">\\r\\n    <div class="container">\\r\\n        <div class="section-title">\\r\\n            <span>\\xc4\\x90\\xe1\\xbb\\x93ng h\\xc3\\xa0nh c\\xc3\\xb9ng ch\\xc3\\xbang t\\xc3\\xb4i </span>\\r\\n            <h2>\\xc4\\x90i\\xe1\\xbb\\x81u ki\\xe1\\xbb\\x87n \\xc4\\x91\\xe1\\xbb\\x83 tr\\xe1\\xbb\\x9f th\\xc3\\xa0nh t\\xc3\\xa0i x\\xe1\\xba\\xbf giao h\\xc3\\xa0ng GhepHang</h2>\\r\\n        </div>\\r\\n        <div class="row">\\r\\n            <div class="col-lg-4 col-sm-6">\\r\\n                <div class="single-service">\\r\\n                    <div class="service-content-wrap">\\r\\n                        <i class="icon flaticon-home"></i>\\r\\n                        <h3 class="ellipsis-hidden-2">C\\xc3\\xb3 ph\\xc6\\xb0\\xc6\\xa1ng ti\\xe1\\xbb\\x87n di chuy\\xe1\\xbb\\x83n</h3>\\r\\n                        <p class="ellipsis-hidden-3">S\\xe1\\xbb\\x9f h\\xe1\\xbb\\xafu (ho\\xe1\\xba\\xb7c thu\\xc3\\xaa) xe m\\xc3\\xa1y, xe b\\xc3\\xa1n t\\xe1\\xba\\xa3i / xe van / xe t\\xe1\\xba\\xa3i d\\xc6\\xb0\\xe1\\xbb\\x9bi 2.5 t\\xe1\\xba\\xa5n (kh\\xc3\\xb4ng c\\xe1\\xba\\xa7n ch\\xc3\\xadnh ch\\xe1\\xbb\\xa7).</p>\\r\\n                    </div>\\r\\n                    <div class="service-heading">\\r\\n                        <a class="circle-read-more" href="service-details.html">\\r\\n                            <h3>C\\xc3\\xb3 ph\\xc6\\xb0\\xc6\\xa1ng ti\\xe1\\xbb\\x87n di chuy\\xe1\\xbb\\x83n</h3>\\r\\n                            <i class="flaticon-right-1"></i>\\r\\n                        </a>\\r\\n                    </div>\\r\\n                </div>\\r\\n            </div>\\r\\n            <div class="col-lg-4 col-sm-6">\\r\\n                <div class="single-service">\\r\\n                    <div class="service-content-wrap">\\r\\n                        <i class="icon flaticon-package"></i>\\r\\n                        <h3 class="ellipsis-hidden-2">C\\xc3\\xb3 \\xc4\\x91i\\xe1\\xbb\\x87n tho\\xe1\\xba\\xa1i th\\xc3\\xb4ng minh</h3>\\r\\n                        <p class="ellipsis-hidden-3">S\\xe1\\xbb\\x9f h\\xe1\\xbb\\xafu \\xc4\\x91i\\xe1\\xbb\\x87n tho\\xe1\\xba\\xa1i th\\xc3\\xb4ng minh IOS ho\\xe1\\xba\\xb7c Android</p>\\r\\n                    </div>\\r\\n                    <div class="service-heading">\\r\\n                        <a class="circle-read-more" href="service-details.html">\\r\\n                            <h3>C\\xc3\\xb3 \\xc4\\x91i\\xe1\\xbb\\x87n tho\\xe1\\xba\\xa1i th\\xc3\\xb4ng minh</h3>\\r\\n                            <i class="flaticon-right-1"></i>\\r\\n                        </a>\\r\\n                    </div>\\r\\n                </div>\\r\\n            </div>\\r\\n            <div class="col-lg-4 col-sm-6 offset-sm-3 offset-lg-0">\\r\\n                <div class="single-service">\\r\\n                    <div class="service-content-wrap">\\r\\n                        <i class="icon flaticon-server"></i>\\r\\n                        <h3 class="ellipsis-hidden-2">C\\xc3\\xb3 gi\\xe1\\xba\\xa5y ph\\xc3\\xa9p c\\xc6\\xb0 tr\\xc3\\xba v\\xc3\\xa0 ch\\xe1\\xbb\\xa9ng nh\\xe1\\xba\\xadn qu\\xe1\\xbb\\x91c t\\xe1\\xbb\\x8bch</h3>\\r\\n                        <p class="ellipsis-hidden-3">L\\xc3\\xa0 c\\xc3\\xb4ng d\\xc3\\xa2n Vi\\xe1\\xbb\\x87t Nam c\\xc3\\xb3 \\xc4\\x91\\xe1\\xbb\\x99 tu\\xe1\\xbb\\x95i t\\xe1\\xbb\\xab 18 tr\\xe1\\xbb\\x9f l\\xc3\\xaan</p>\\r\\n                    </div>\\r\\n                    <div class="service-heading">\\r\\n                        <a class="circle-read-more" href="service-details.html">\\r\\n                            <h3>C\\xc3\\xb3 gi\\xe1\\xba\\xa5y ph\\xc3\\xa9p c\\xc6\\xb0 tr\\xc3\\xba v\\xc3\\xa0 ch\\xe1\\xbb\\xa9ng nh\\xe1\\xba\\xadn qu\\xe1\\xbb\\x91c t\\xe1\\xbb\\x8bch</h3>\\r\\n                            <i class="flaticon-right-1"></i>\\r\\n                        </a>\\r\\n                    </div>\\r\\n                </div>\\r\\n            </div>\\r\\n            <div class="col-12">\\r\\n                <div class="service-all text-center">\\r\\n                    <p>S\\xe1\\xba\\xb5n s\\xc3\\xa0ng gia nh\\xe1\\xba\\xadp \\xc4\\x91\\xe1\\xbb\\x99i ng\\xc5\\xa9 t\\xc3\\xa0i x\\xe1\\xba\\xbf GhepHang?\\r\\n                    </p>\\r\\n                </div>\\r\\n            </div>\\r\\n        </div>\\r\\n    </div>\\r\\n</section>\\r\\n<!-- End Service Area -->\\r\\n\\r\\n\\r\\n\\r\\n\', escape=False)\n    response.write(\'<!-- Start FAQ Area -->\\r\\n<section class="faq-area ptb-100">\\r\\n    <div class="container">\\r\\n        <div class="section-title">\\r\\n            <span class="pumpkin-color">FAQ</span>\\r\\n            <h2>C\\xc3\\x82U H\\xe1\\xbb\\x8eI TH\\xc6\\xaf\\xe1\\xbb\\x9cNG G\\xe1\\xba\\xb6P</h2>\\r\\n            <p>B\\xe1\\xba\\xa1n c\\xc3\\xb3 th\\xe1\\xbb\\x83 t\\xc3\\xacm hi\\xe1\\xbb\\x83u th\\xc3\\xb4ng tin v\\xe1\\xbb\\x81 ch\\xc3\\xbang t\\xc3\\xb4i</p>\\r\\n        </div>\\r\\n        <div class="row">\\r\\n            <div class="col-lg-6">\\r\\n                <div class="questions-bg-area">\\r\\n                    <div class="row">\\r\\n                        <div class="col-lg-12">\\r\\n                            <div class="faq-accordion">\\r\\n                                <ul class="accordion">\\r\\n                                    <li class="accordion-item">\\r\\n                                        <a class="accordion-title active" href="javascript:void(0)">\\r\\n                                            <span>1</span>\\r\\n                                            GhepHang c\\xc3\\xb3 d\\xe1\\xbb\\x8bch v\\xe1\\xbb\\xa5 giao h\\xc3\\xa0ng cho doanh nghi\\xe1\\xbb\\x87p kh\\xc3\\xb4ng??\\r\\n                                        </a>\\r\\n                                        <p class="accordion-content show">B\\xe1\\xba\\xa1n h\\xc3\\xa3y y\\xc3\\xaan t\\xc3\\xa2m v\\xc3\\xac ch\\xc3\\xbang t\\xc3\\xb4i \\xc4\\x91ang \\xc4\\x91ang ph\\xe1\\xbb\\xa5c v\\xe1\\xbb\\xa5 cho h\\xc6\\xa1n 10,000 doanh nghi\\xe1\\xbb\\x87p v\\xc3\\xa0 h\\xe1\\xbb\\x99 kinh doanh c\\xc3\\xa1 th\\xe1\\xbb\\x83 h\\xc3\\xa0ng ng\\xc3\\xa0y trong nh\\xe1\\xbb\\xafng\\r\\n                                        chuy\\xe1\\xba\\xbfn giao h\\xc3\\xa0ng si\\xc3\\xaau t\\xe1\\xbb\\x91c \\xc4\\x91\\xe1\\xba\\xbfn kh\\xc3\\xa1ch h\\xc3\\xa0ng c\\xe1\\xbb\\xa7a h\\xe1\\xbb\\x8d.\\r\\n                                        Ch\\xc3\\xbang t\\xc3\\xb4i cung c\\xe1\\xba\\xa5p d\\xe1\\xbb\\x8bch v\\xe1\\xbb\\xa5 giao h\\xc3\\xa0ng cho t\\xe1\\xba\\xa5t c\\xe1\\xba\\xa3 doanh nghi\\xe1\\xbb\\x87p thu\\xe1\\xbb\\x99c m\\xe1\\xbb\\x8di quy m\\xc3\\xb4 \\xe1\\xbb\\x9f Vi\\xe1\\xbb\\x87t Nam v\\xe1\\xbb\\x9bi ch\\xe1\\xba\\xa5t l\\xc6\\xb0\\xe1\\xbb\\xa3ng giao h\\xc3\\xa0ng nhanh\\r\\n                                        ch\\xc3\\xb3ng v\\xc3\\xa0 gi\\xc3\\xa1 c\\xe1\\xba\\xa3 c\\xe1\\xba\\xa1nh tranh. GhepHang \\xc4\\x91\\xc3\\xa1p \\xe1\\xbb\\xa9ng tuy\\xe1\\xbb\\x87t \\xc4\\x91\\xe1\\xbb\\x91i nhu c\\xe1\\xba\\xa7u c\\xe1\\xbb\\xa7a b\\xe1\\xba\\xa1n \\xe1\\xbb\\x9f c\\xe1\\xba\\xa3 m\\xc3\\xb9a cao \\xc4\\x91i\\xe1\\xbb\\x83m hay th\\xc6\\xb0\\xe1\\xbb\\x9dng nh\\xe1\\xba\\xadt, d\\xc3\\xb9 doanh\\r\\n                                        nghi\\xe1\\xbb\\x87p c\\xe1\\xbb\\xa7a b\\xe1\\xba\\xa1n s\\xe1\\xbb\\xad d\\xe1\\xbb\\xa5ng giao h\\xc3\\xa0ng ch\\xe1\\xbb\\x89 v\\xe1\\xbb\\x9bi s\\xe1\\xbb\\x91 l\\xc6\\xb0\\xe1\\xbb\\xa3ng \\xc4\\x91\\xc6\\xa1n h\\xc3\\xa0ng \\xc3\\xadt m\\xe1\\xbb\\x97i tu\\xe1\\xba\\xa7n hay s\\xe1\\xbb\\x91 l\\xc6\\xb0\\xe1\\xbb\\xa3ng \\xc4\\x91\\xc6\\xa1n h\\xc3\\xa0ng l\\xe1\\xbb\\x9bn m\\xe1\\xbb\\x97i ng\\xc3\\xa0y, ch\\xc3\\xbang t\\xc3\\xb4i \\xc4\\x91\\xe1\\xbb\\x81u\\r\\n                                        c\\xc3\\xb3 th\\xe1\\xbb\\x83 t\\xe1\\xbb\\x91i \\xc6\\xb0u d\\xe1\\xbb\\x8bch v\\xe1\\xbb\\xa5 theo y\\xc3\\xaau c\\xe1\\xba\\xa7u c\\xe1\\xbb\\xa7a doanh nghi\\xe1\\xbb\\x87p.<br>\\r\\n                                        T\\xc3\\xacm hi\\xe1\\xbb\\x83u th\\xc3\\xaam b\\xe1\\xba\\xb1ng c\\xc3\\xa1ch li\\xc3\\xaan h\\xe1\\xbb\\x87 t\\xe1\\xba\\xa1i \\xc4\\x91\\xc3\\xa2y, t\\xc6\\xb0 v\\xe1\\xba\\xa5n vi\\xc3\\xaan c\\xe1\\xbb\\xa7a ch\\xc3\\xbang t\\xc3\\xb4i s\\xe1\\xba\\xbd li\\xc3\\xaan h\\xe1\\xbb\\x87 s\\xe1\\xbb\\x9bm nh\\xe1\\xba\\xa5t v\\xe1\\xbb\\x9bi b\\xe1\\xba\\xa1n \\xc4\\x91\\xe1\\xbb\\x83 \\xc4\\x91\\xc6\\xb0\\xe1\\xbb\\xa3c h\\xe1\\xbb\\x97 tr\\xe1\\xbb\\xa3.</p>\\r\\n                                    </li>\\r\\n                                    <li class="accordion-item">\\r\\n                                        <a class="accordion-title" href="javascript:void(0)">\\r\\n                                            <span>2</span>\\r\\n                                            C\\xc6\\xb0\\xe1\\xbb\\x9bc ph\\xc3\\xad giao h\\xc3\\xa0ng GhepHang \\xc4\\x91\\xc6\\xb0\\xe1\\xbb\\xa3c t\\xc3\\xadnh nh\\xc6\\xb0 th\\xe1\\xba\\xbf n\\xc3\\xa0o?\\r\\n                                        </a>\\r\\n                                        <p class="accordion-content">Ph\\xc3\\xad d\\xe1\\xbb\\x8bch v\\xe1\\xbb\\xa5 \\xc4\\x91\\xc6\\xb0\\xe1\\xbb\\xa3c d\\xe1\\xbb\\xb1a tr\\xc3\\xaan nhi\\xe1\\xbb\\x81u y\\xe1\\xba\\xbfu t\\xe1\\xbb\\x91 nh\\xc6\\xb0 t\\xc3\\xacnh h\\xc3\\xacnh giao th\\xc3\\xb4ng, k\\xc3\\xadch th\\xc6\\xb0\\xe1\\xbb\\x9bc h\\xc3\\xa0ng h\\xc3\\xb3a, kh\\xe1\\xba\\xa3 n\\xc4\\x83ng nh\\xe1\\xba\\xadn \\xc4\\x91\\xc6\\xa1n c\\xe1\\xbb\\xa7a \\xc4\\x91\\xe1\\xbb\\x91i t\\xc3\\xa1c t\\xc3\\xa0i\\r\\n                                        x\\xe1\\xba\\xbf, ph\\xc3\\xad c\\xe1\\xba\\xa7u \\xc4\\x91\\xc6\\xb0\\xe1\\xbb\\x9dng, c\\xc3\\xa1c ph\\xe1\\xbb\\xa5 ph\\xc3\\xad,... V\\xc3\\xac v\\xe1\\xba\\xady t\\xe1\\xbb\\x95ng gi\\xc3\\xa1 d\\xe1\\xbb\\x8bch v\\xe1\\xbb\\xa5 c\\xc3\\xb3 th\\xe1\\xbb\\x83 thay \\xc4\\x91\\xe1\\xbb\\x95i. Gi\\xc3\\xa1 hi\\xe1\\xbb\\x83n th\\xe1\\xbb\\x8b t\\xe1\\xba\\xa1i th\\xe1\\xbb\\x9di \\xc4\\x91i\\xe1\\xbb\\x83m \\xc4\\x91\\xe1\\xba\\xb7t \\xc4\\x91\\xc6\\xa1n c\\xc3\\xb3 th\\xe1\\xbb\\x83\\r\\n                                        kh\\xc3\\xb4ng gi\\xe1\\xbb\\xaf nguy\\xc3\\xaan n\\xe1\\xba\\xbfu c\\xc3\\xb3 thay \\xc4\\x91\\xe1\\xbb\\x95i v\\xe1\\xbb\\x81 chi ti\\xe1\\xba\\xbft \\xc4\\x91\\xc6\\xa1n h\\xc3\\xa0ng.\\r\\n                                        <br />\\r\\n                                        M\\xe1\\xbb\\x9f \\xe1\\xbb\\xa9ng d\\xe1\\xbb\\xa5ng GhepHang v\\xc3\\xa0 ch\\xe1\\xbb\\x89 c\\xe1\\xba\\xa7n ch\\xe1\\xbb\\x8dn lo\\xe1\\xba\\xa1i xe, \\xc4\\x91i\\xe1\\xbb\\x83m nh\\xe1\\xba\\xadn v\\xc3\\xa0 tr\\xe1\\xba\\xa3 h\\xc3\\xa0ng. B\\xe1\\xba\\xa1n s\\xe1\\xba\\xbd ngay l\\xe1\\xba\\xadp t\\xe1\\xbb\\xa9c \\xc4\\x91\\xc6\\xb0\\xe1\\xbb\\xa3c cung c\\xe1\\xba\\xa5p chi ti\\xe1\\xba\\xbft v\\xe1\\xbb\\x81 gi\\xc3\\xa1\\r\\n                                        tr\\xc6\\xb0\\xe1\\xbb\\x9bc khi quy\\xe1\\xba\\xbft \\xc4\\x91\\xe1\\xbb\\x8bnh \\xc4\\x91\\xe1\\xba\\xb7t \\xc4\\x91\\xc6\\xa1n.</p>\\r\\n                                    </li>\\r\\n                                    <li class="accordion-item">\\r\\n                                        <a class="accordion-title" href="javascript:void(0)">\\r\\n                                            <span>3</span>\\r\\n                                            GhepHang c\\xc3\\xb3 th\\xe1\\xbb\\x83 v\\xe1\\xba\\xadn chuy\\xe1\\xbb\\x83n nh\\xe1\\xbb\\xafng h\\xc3\\xa0ng h\\xc3\\xb3a c\\xe1\\xbb\\x93ng k\\xe1\\xbb\\x81nh v\\xe1\\xbb\\x9bi s\\xe1\\xbb\\x91 l\\xc6\\xb0\\xe1\\xbb\\xa3ng l\\xe1\\xbb\\x9bn hay kh\\xc3\\xb4ng?\\r\\n                                        </a>\\r\\n                                        <p class="accordion-content">B\\xe1\\xba\\xa1n h\\xc3\\xa3y ho\\xc3\\xa0n to\\xc3\\xa0n y\\xc3\\xaan t\\xc3\\xa2m, th\\xe1\\xba\\xbf m\\xe1\\xba\\xa1nh c\\xe1\\xbb\\xa7a ch\\xc3\\xbang t\\xc3\\xb4i c\\xc3\\xb2n l\\xc3\\xa0 chuy\\xc3\\xaan v\\xe1\\xba\\xadn chuy\\xe1\\xbb\\x83n c\\xc3\\xa1c lo\\xe1\\xba\\xa1i h\\xc3\\xa0ng l\\xe1\\xbb\\x9bn, c\\xe1\\xbb\\x93ng k\\xe1\\xbb\\x81nh m\\xc3\\xa0 b\\xe1\\xba\\xa1n kh\\xc3\\xb4ng th\\xe1\\xbb\\x83\\r\\n                                        v\\xe1\\xba\\xadn chuy\\xe1\\xbb\\x83n v\\xe1\\xbb\\xaba tr\\xc3\\xaan c\\xc3\\xa1c ph\\xc6\\xb0\\xc6\\xa1ng ti\\xe1\\xbb\\x87n nh\\xc6\\xb0 xe m\\xc3\\xa1y ho\\xe1\\xba\\xb7c xe \\xc3\\xb4 t\\xc3\\xb4. Ngo\\xc3\\xa0i ph\\xc6\\xb0\\xc6\\xa1ng ti\\xe1\\xbb\\x87n v\\xe1\\xba\\xadn chuy\\xe1\\xbb\\x83n b\\xe1\\xba\\xb1ng xe m\\xc3\\xa1y, ch\\xc3\\xbang t\\xc3\\xb4i c\\xc3\\xb2n c\\xc3\\xb3\\r\\n                                        th\\xc3\\xaam ph\\xc6\\xb0\\xc6\\xa1ng ti\\xe1\\xbb\\x87n v\\xe1\\xba\\xadn chuy\\xe1\\xbb\\x83n: xe b\\xc3\\xa1n t\\xe1\\xba\\xa3i/ xe van/ xe t\\xe1\\xba\\xa3i chuy\\xc3\\xaan d\\xe1\\xbb\\xa5ng v\\xe1\\xbb\\x9bi tr\\xe1\\xbb\\x8dng t\\xe1\\xba\\xa3i t\\xe1\\xbb\\xab 500kg \\xc4\\x91\\xe1\\xba\\xbfn 2 t\\xe1\\xba\\xa5n, \\xc4\\x91\\xc3\\xa1p \\xe1\\xbb\\xa9ng t\\xe1\\xbb\\x91t m\\xe1\\xbb\\x8di\\r\\n                                        nhu c\\xe1\\xba\\xa7u khi b\\xe1\\xba\\xa1n c\\xe1\\xba\\xa7n.</p>\\r\\n                                    </li>\\r\\n                                    <li class="accordion-item">\\r\\n                                        <a class="accordion-title" href="javascript:void(0)">\\r\\n                                            <span>4</span>\\r\\n                                            Tr\\xe1\\xbb\\x9f th\\xc3\\xa0nh \\xc4\\x91\\xe1\\xbb\\x91i t\\xc3\\xa1c t\\xc3\\xa0i x\\xe1\\xba\\xbf c\\xe1\\xbb\\xa7a GhepHang c\\xc3\\xb3 l\\xe1\\xbb\\xa3i \\xc3\\xadch g\\xc3\\xac?\\r\\n                                        </a>\\r\\n                                        <p class="accordion-content">GhepHang l\\xc3\\xa0 \\xe1\\xbb\\xa9ng d\\xe1\\xbb\\xa5ng giao h\\xc3\\xa0ng theo y\\xc3\\xaau c\\xe1\\xba\\xa7u, gi\\xc3\\xbap k\\xe1\\xba\\xbft n\\xe1\\xbb\\x91i v\\xe1\\xbb\\x9bi t\\xc3\\xa0i x\\xe1\\xba\\xbf v\\xe1\\xbb\\x9bi kh\\xc3\\xa1ch h\\xc3\\xa0ng c\\xc3\\xb3 nhu c\\xe1\\xba\\xa7u. B\\xe1\\xba\\xa1n c\\xc3\\xb3 th\\xe1\\xbb\\x83 xem v\\xc3\\xa0 ch\\xe1\\xbb\\x8dn\\r\\n                                        \\xc4\\x91\\xc6\\xa1n \\xc4\\x91\\xe1\\xba\\xb7t h\\xc3\\xa0ng m\\xc3\\xa0 m\\xc3\\xacnh mu\\xe1\\xbb\\x91n giao. B\\xe1\\xba\\xa1n c\\xc5\\xa9ng c\\xc3\\xb3 th\\xe1\\xbb\\x83 nh\\xe1\\xba\\xadn nhi\\xe1\\xbb\\x81u ho\\xe1\\xba\\xb7c \\xc3\\xadt \\xc4\\x91\\xc6\\xa1n h\\xc3\\xa0ng t\\xc3\\xb9y \\xc3\\xbd v\\xc3\\xa0o b\\xe1\\xba\\xa5t k\\xe1\\xbb\\xb3 th\\xe1\\xbb\\x9di \\xc4\\x91i\\xe1\\xbb\\x83m n\\xc3\\xa0o trong ng\\xc3\\xa0y!\\r\\n                                        <br />T\\xc4\\x83ng th\\xc3\\xaam thu nh\\xe1\\xba\\xadp m\\xe1\\xbb\\x97i th\\xc3\\xa1ng t\\xe1\\xbb\\xab nh\\xe1\\xbb\\xafng \\xc4\\x91\\xc6\\xa1n giao h\\xc3\\xa0ng. Nh\\xe1\\xba\\xadn ti\\xe1\\xbb\\x81n ngay sau m\\xe1\\xbb\\x97i \\xc4\\x91\\xc6\\xa1n ho\\xc3\\xa0n th\\xc3\\xa0nh. <br />T\\xe1\\xbb\\xb1 do l\\xe1\\xbb\\xb1a ch\\xe1\\xbb\\x8dn bao nhi\\xc3\\xaau \\xc4\\x91\\xc6\\xa1n h\\xc3\\xa0ng t\\xc3\\xb9y th\\xc3\\xadch b\\xe1\\xba\\xb1ng c\\xc3\\xa1ch l\\xc3\\xa0m vi\\xe1\\xbb\\x87c trong th\\xe1\\xbb\\x9di gian r\\xe1\\xba\\xa3nh\\r\\n                                    </p>\\r\\n                                    </li>\\r\\n                                </ul>\\r\\n                            </div>\\r\\n                        </div>\\r\\n                        <div class="row" style="margin-top: 20px;">\\r\\n                            <div class="col-lg-12 col-md-12">\\r\\n                                <a type="submit" href="/faq" class="default-btn btn-two active">\\r\\n                                    <span class="label">\\xc4\\x90\\xe1\\xba\\xb7t c\\xc3\\xa2u h\\xe1\\xbb\\x8fi</span>\\r\\n                                    <i class=\\\'bx bx-plus\\\'></i>\\r\\n                                </a>\\r\\n                                <div id="msgSubmit" class="h3 text-center hidden"></div>\\r\\n                                <div class="clearfix"></div>\\r\\n                            </div>\\r\\n                        </div>\\r\\n                    </div>\\r\\n                </div>\\r\\n            </div>\\r\\n            <div class="col-lg-6">\\r\\n                <div class="faq-img">\\r\\n                </div>\\r\\n            </div>\\r\\n        </div>\\r\\n    </div>\\r\\n</section>\\r\\n<!-- End FAQ Area -->\', escape=False)\n    response.write(\'\\r\\n\\r\\n\', escape=False)\n    response.write(\'<!-- Start Brand Area -->\\r\\n<div class="brand-area pt-100 pb-70">\\r\\n    <div class="container">\\r\\n        <div class="section-title" style="max-width: 625px;\\r\\n                    margin: -8px auto 40px;\\r\\n                    text-align: center;\\r\\n                    position: relative;">\\r\\n            <span>Li\\xc3\\xaan k\\xe1\\xba\\xbft</span>\\r\\n            <h2>\\xc4\\x90\\xc6\\xa1n v\\xe1\\xbb\\x8b h\\xe1\\xbb\\xa3p t\\xc3\\xa1c v\\xe1\\xbb\\x9bi ch\\xc3\\xbang t\\xc3\\xb4i</h2>\\r\\n            \\r\\n        </div>\\r\\n        <div class="row">\\r\\n            <div class="brand-wrap owl-carousel owl-theme">\\r\\n                <div class="brand-item">\\r\\n                    <a href="#">\\r\\n                        <img src="\', escape=False)\n    response.write(URL(\'static\',\'%s/img\')%(static_default))\n    response.write(\'/brand/1.png" alt="Image">\\r\\n                    </a>\\r\\n                </div>\\r\\n                <div class="brand-item">\\r\\n                    <a href="#">\\r\\n                        <img src="\', escape=False)\n    response.write(URL(\'static\',\'%s/img\')%(static_default))\n    response.write(\'/brand/2.png" alt="Image">\\r\\n                    </a>\\r\\n                </div>\\r\\n                <div class="brand-item">\\r\\n                    <a href="#">\\r\\n                        <img src="\', escape=False)\n    response.write(URL(\'static\',\'%s/img\')%(static_default))\n    response.write(\'/brand/3.png" alt="Image">\\r\\n                    </a>\\r\\n                </div>\\r\\n                <div class="brand-item">\\r\\n                    <a href="#">\\r\\n                        <img src="\', escape=False)\n    response.write(URL(\'static\',\'%s/img\')%(static_default))\n    response.write(\'/brand/4.png" alt="Image">\\r\\n                    </a>\\r\\n                </div>\\r\\n                <div class="brand-item">\\r\\n                    <a href="#">\\r\\n                        <img src="\', escape=False)\n    response.write(URL(\'static\',\'%s/img\')%(static_default))\n    response.write(\'/brand/5.png" alt="Image">\\r\\n                    </a>\\r\\n                </div>\\r\\n            </div>\\r\\n        </div>\\r\\n    </div>\\r\\n</div>\\r\\n<!-- End Brand Area -->\', escape=False)\n    response.write(\'\\r\\n\\r\\n\\r\\n<!-- Start Search Box Modal -->\\r\\n<div class="search-wrap hiden-load" style="display: none;">\\r\\n    <div class="form">\\r\\n        <button type="button" class="close">\\xc3\\x97</button>\\r\\n        <div class="container py-4" style="max-width: 1000px;">\\r\\n            <h3 class="text-center">\\xc4\\x90\\xc4\\x83ng k\\xc3\\xbd l\\xc3\\xa0m t\\xc3\\xa0i x\\xe1\\xba\\xbf</h3>\\r\\n            <iframe frameborder="0" style="width:100%" id="ecrm-optin-3" width="100%" height="640"></iframe>\\r\\n            <script>\\r\\n                function setOptinForm3Src() {\\r\\n                    var utm = get_utm_url();\\r\\n                    var qs = getQueryString(utm);\\r\\n                    var rootUrl = location.href;\\r\\n                    var s = "https://ghephang.nobi.pro/optinform/3?u=" + rootUrl + "?" + qs;\\r\\n                    var iframe1 = document.getElementById("ecrm-optin-3");\\r\\n                    (navigator.userAgent.indexOf("MSIE") == -1) ? (iframe1.src = s) : (iframe1.location = s);\\r\\n                }\\r\\n                function ecrmSetCookie(name, value, days) {\\r\\n                    var expires = "";\\r\\n                    if (days) {\\r\\n                        var date = new Date();\\r\\n                        date.setTime(date.getTime() + (days * 24 * 60 * 60 * 1000));\\r\\n                        expires = "; expires=" + date.toUTCString();\\r\\n                    }\\r\\n                    document.cookie = name + "=" + (value || "") + expires + "; path=/";\\r\\n                }\\r\\n\\r\\n                function ecrmGetCookie(name) {\\r\\n                    var nameEQ = name + "=";\\r\\n                    var ca = document.cookie.split(\\\';\\\');\\r\\n                    for (var i = 0; i < ca.length; i++) {\\r\\n                        var c = ca[i];\\r\\n                        while (c.charAt(0) == \\\' \\\') c = c.substring(1, c.length);\\r\\n                        if (c.indexOf(nameEQ) == 0) return c.substring(nameEQ.length, c.length);\\r\\n                    }\\r\\n                    return null;\\r\\n                }\\r\\n\\r\\n                function get_utm_url() {\\r\\n                    var utmStr = ecrmGetCookie("nobita-utm");\\r\\n\\r\\n                    var old = {};\\r\\n                    if (utmStr && utmStr !== null) {\\r\\n                        old = JSON.parse(atob(utmStr));\\r\\n                    }\\r\\n\\r\\n                    var params = new URLSearchParams(window.location.search);\\r\\n                    var check = false;\\r\\n                    // check tr\\xc3\\xaan url xem c\\xc3\\xb3 ph\\xe1\\xba\\xa3i l\\xc3\\xa0 link utm kh\\xc3\\xb4ng\\r\\n                    for (var [key, value] of params.entries()) {\\r\\n                        old[key] = value;\\r\\n                    }\\r\\n                    ecrmSetCookie("nobita-utm", btoa(JSON.stringify(old)), 30);\\r\\n\\r\\n                    return old;\\r\\n                }\\r\\n\\r\\n                function getQueryString(params) {\\r\\n                    return Object.keys(params)\\r\\n                        .map(key => key + "=" + params[key])\\r\\n                        .join(\\\'&\\\');\\r\\n                }\\r\\n\\r\\n                setTimeout(setOptinForm3Src, 5);\\r\\n            </script>\\r\\n        </div>\\r\\n\\r\\n    </div>\\r\\n</div>\\r\\n<!-- End Search Box Modal -->\\r\\n\\r\\n\\r\\n\', escape=False)\n    response.write(\'\\r\\n    </div>\\r\\n\\r\\n    \', escape=False)\n    response.write(\'\\r\\n    \', escape=False)\n    #include \'site/ghephang/default/component/subscribe.html\'\n    response.write(\'\\r\\n\', escape=False)\n    response.write(\'\\r\\n\\r\\n    \', escape=False)\n    response.write(\'<footer class="footer-top-area pt-100 pb-70 bg-f7f7f7">\\r\\n    <div class="container">\\r\\n        <div class="row">\\r\\n            <div class="col-lg-3 col-md-6">\\r\\n                 \', escape=False)\n    response.write(portlet.display(116))\n    response.write(\'\\r\\n            </div>\\r\\n            <div class="col-lg-3 col-md-6">\\r\\n                 \', escape=False)\n    response.write(portlet.display(166))\n    response.write(\'\\r\\n            </div>\\r\\n            <div class="col-lg-3 col-md-6">\\r\\n                 \', escape=False)\n    response.write(portlet.display(118))\n    response.write(\'\\r\\n            </div>\\r\\n            <div class="col-lg-3 col-md-6">\\r\\n                <div class="single-widget">\\r\\n                    <h3>Theo d\\xc3\\xb5i ch\\xc3\\xbang t\\xc3\\xb4i </h3>\\r\\n                    <div id="fb-root"></div>\\r\\n                    <script>(function (d, s, id) {\\r\\n                            var js, fjs = d.getElementsByTagName(s)[0];\\r\\n                            if (d.getElementById(id)) return;\\r\\n                            js = d.createElement(s); js.id = id;\\r\\n                            js.src = "//connect.facebook.net/vi_VN/sdk.js#xfbml=1&version=v2.6&appId=215619355450603";\\r\\n                            fjs.parentNode.insertBefore(js, fjs);\\r\\n                        }(document, \\\'script\\\', \\\'facebook-jssdk\\\'));</script>\\r\\n\\r\\n                    <div style="margin-top: 12px;" class="fb-page" data-href="https://www.facebook.com/Ghephangcom" data-small-header="false"\\r\\n                        data-adapt-container-width="true" data-hide-cover="false" data-show-facepile="true"></div>\\r\\n                    <p></p>\\r\\n                    <ul class="social-link">\\r\\n                        \', escape=False)\n    response.write(\'<li>\\r\\n    <a href="#">\\r\\n        <i class=\\\'bx bxl-twitter\\\'></i>\\r\\n    </a>\\r\\n</li>\\r\\n<li>\\r\\n    <a href="#">\\r\\n        <i class=\\\'bx bxl-facebook\\\'></i>\\r\\n    </a>\\r\\n</li>\\r\\n<li>\\r\\n    <a href="#">\\r\\n        <i class=\\\'bx bxl-instagram\\\'></i>\\r\\n    </a>\\r\\n</li>\\r\\n<li>\\r\\n    <a href="#">\\r\\n        <i class=\\\'bx bxl-linkedin\\\'></i>\\r\\n    </a>\\r\\n</li>\\r\\n\', escape=False)\n    response.write(\'\\r\\n                    </ul>\\r\\n                </div>\\r\\n            </div>\\r\\n        </div>\\r\\n        <hr/>\\r\\n        <div class="row">\\r\\n            \', escape=False)\n    response.write(portlet.display(163))\n    response.write(\'\\r\\n        </div>\\r\\n    </div>\\r\\n    <div class="lines">\\r\\n        <div class="line"></div>\\r\\n        <div class="line"></div>\\r\\n        <div class="line"></div>\\r\\n        <div class="line"></div>\\r\\n    </div>\\r\\n</footer>\', escape=False)\n    response.write(\'\\r\\n    <!-- Start Footer Bottom Area -->\\r\\n    <footer class="footer-bottom-area footer-bottom-area-four">\\r\\n        <div class="container">\\r\\n            <div class="row align-items-center">\\r\\n                <div class="col-lg-6">\\r\\n                    <div class="single-widget-bottom">\\r\\n                        <ul>\\r\\n                            <li>\\r\\n                                <a href="#">\\xc4\\x90i\\xe1\\xbb\\x81u kho\\xe1\\xba\\xa3n v\\xc3\\xa0 \\xc4\\x91i\\xe1\\xbb\\x81u ki\\xe1\\xbb\\x87n</a>\\r\\n                            </li>\\r\\n                            <li>\\r\\n                                <a href="#">Ch\\xc3\\xadnh s\\xc3\\xa1ch b\\xe1\\xba\\xa3o m\\xe1\\xba\\xadt</a>\\r\\n                            </li>\\r\\n                            <li>\\r\\n                                <a href="#">\\xc4\\x90\\xc4\\x83ng nh\\xe1\\xba\\xadp</a>\\r\\n                            </li>\\r\\n                        </ul>\\r\\n                    </div>\\r\\n                </div>\\r\\n                <div class="col-lg-6">\\r\\n                    <div class="single-widget-bottom">\\r\\n                        <p>Copyright <i class="bx bx-copyright"></i> by ghephang.com. All rights reserved</p>\\r\\n                    </div>\\r\\n                </div>\\r\\n            </div>\\r\\n        </div>\\r\\n    </footer>\\r\\n\\r\\n    <div>\\r\\n        <div id="overlay" onclick="off()" style="display: none;"></div>\\r\\n        <div class="position-fixed text-right floating-action-menu">\\r\\n            <div class="action-menu">\\r\\n                <a class="floating-action px-2 py-2" href="/tra-van-don">\\r\\n                    <div class="badge">Tra c\\xe1\\xbb\\xa9u v\\xe1\\xba\\xadn \\xc4\\x91\\xc6\\xa1n</div>\\r\\n                    <span class="btn-floating">\\r\\n                        <img src="\', escape=False)\n    response.write(URL(\'static\',\'%s/images\')%(static_default))\n    response.write(\'/icon-fab-search-bill.svg"\\r\\n                            alt="icon-fab-search-bill" class="img-fluid" width="30">\\r\\n                    </span>\\r\\n                </a>\\r\\n                <a class="floating-action px-2 py-2" href="/tao-don">\\r\\n                    <div class="badge">Y\\xc3\\xaau c\\xe1\\xba\\xa7u b\\xc3\\xa1o gi\\xc3\\xa1</div>\\r\\n                    <span class="btn-floating">\\r\\n                        <img src="\', escape=False)\n    response.write(URL(\'static\',\'%s/images\')%(static_default))\n    response.write(\'/icon-fab-create-bill.svg"\\r\\n                            alt="icon-fab-create-bill" class="img-fluid" width="30">\\r\\n                    </span>\\r\\n                </a>\\r\\n                <a class="floating-action px-2 py-2" href="/tim-buu-cuc">\\r\\n                    <div class="badge">T\\xc3\\xacm b\\xc6\\xb0u c\\xe1\\xbb\\xa5c</div>\\r\\n                    <span class="btn-floating">\\r\\n                        <img src="\', escape=False)\n    response.write(URL(\'static\',\'%s/images\')%(static_default))\n    response.write(\'/icon-fab-search-price.svg"\\r\\n                            alt="icon-fab-search-price" class="img-fluid" width="30">\\r\\n                    </span>\\r\\n                </a>\\r\\n                <!-- <a class="floating-action px-2 py-2" href="bang-gia-dich-vu">\\r\\n                    <div class="badge">Nh\\xe1\\xba\\xafn tin</div>\\r\\n                    <span class="btn-floating">\\r\\n                        <img src="\', escape=False)\n    response.write(URL(\'static\',\'%s/images\')%(static_default))\n    response.write(\'/icon-fab-price-list.svg" alt="icon-fab-price-list" class="img-fluid"\\r\\n                            width="30">\\r\\n                    </span>\\r\\n                </a> -->\\r\\n                <!-- <a class="floating-action px-2 py-2" href="/#footer-v2">\\r\\n                    <div class="badge">T\\xe1\\xba\\xa3i App NTX</div>\\r\\n                    <span class="btn-floating">\\r\\n                        <img src="\', escape=False)\n    response.write(URL(\'static\',\'%s/images\')%(static_default))\n    response.write(\'/icon-fab-get-app.svg" alt="icon-fab-get-app" class="img-fluid" width="30">\\r\\n                    </span>\\r\\n                </a> -->\\r\\n                <!-- fb-messenger://user-thread/149397918580307  https://zalo.me/0377888678-->\\r\\n\\r\\n\\r\\n                <a class="floating-action px-2 py-2" id="chat_message_id" target="_blank" href="#">\\r\\n                    <div class="badge">Chat v\\xe1\\xbb\\x9bi GhepHang</div>\\r\\n                    <span class="btn-floating">\\r\\n                        <img src="\', escape=False)\n    response.write(URL(\'static\',\'%s/images\')%(static_default))\n    response.write(\'/icon-fab-chat.svg" alt="icon-fab-chat"\\r\\n                            class="img-fluid" width="30">\\r\\n                    </span>\\r\\n                </a>\\r\\n                <a class="floating-action px-2 py-2" href="tel:1900888678">\\r\\n                    <div class="badge">Li\\xc3\\xaan h\\xe1\\xbb\\x87: <strong>1900888678</strong></div>\\r\\n                    <span class="btn-floating">\\r\\n                        <img src="\', escape=False)\n    response.write(URL(\'static\',\'%s/images\')%(static_default))\n    response.write(\'/icon-fab-phone.svg"\\r\\n                            alt="icon-fab-phone" class="img-fluid" width="30">\\r\\n                    </span>\\r\\n                </a>\\r\\n            </div>\\r\\n            <div class="d-block action-button">\\r\\n                <a class="btn-floating" onclick="on()">\\r\\n                    <img src="\', escape=False)\n    response.write(URL(\'static\',\'%s/images\')%(static_default))\n    response.write(\'/icon-fab.svg" alt="icon-fab"\\r\\n                        class="img-fluid" width="48" style="filter: drop-shadow(2px 4px 15px rgba(0, 0, 0, 0.3));">\\r\\n                </a>\\r\\n            </div>\\r\\n\\r\\n            <script>\\r\\n                window.onload = (event) => {\\r\\n                    const mesa = document.getElementById(\\\'chat_message_id\\\')\\r\\n                    let url = \\\'https://www.facebook.com/Ghephangcom/\\\'\\r\\n                     if (/Android|webOS|iPhone|iPad|iPod|BlackBerry|IEMobile|Opera Mini/i.test(navigator.userAgent) && window.innerWidth <= 550) {\\r\\n                        url = \\\'fb-messenger://user-thread/149397918580307\\\'\\r\\n                    } \\r\\n                    mesa.setAttribute(\\\'href\\\', url);\\r\\n                };\\r\\n               \\r\\n            </script>\\r\\n        </div>\\r\\n    </div>\\r\\n\\r\\n    \', escape=False)\n    response.write(\'<style>\\r\\n    #show_popup {\\r\\n        position: fixed;\\r\\n        z-index: 1200;\\r\\n        bottom: 32px;\\r\\n        left: 32px;\\r\\n   }\\r\\n    .custom-div {\\r\\n        padding: 15px 20px;\\r\\n        background: rgb(234, 234, 234);\\r\\n        max-height: 0;\\r\\n        opacity: 0;\\r\\n        font-size: 13px;\\r\\n        border-radius: 8px;\\r\\n        transition: max-height 1s ease, opacity 1s ease;\\r\\n        line-height: 1.6em;\\r\\n    }\\r\\n     .custom-div.active {\\r\\n        max-height: 500px;\\r\\n        opacity: 1;\\r\\n        transition: max-height 1s ease, opacity 1s ease;\\r\\n    }\\r\\n\\r\\n    .custom-div .place {\\r\\n        color: rgb(0, 97, 193);\\r\\n        font-weight: 500;\\r\\n    }\\r\\n\\r\\n    .custom-div .image-container {\\r\\n        margin-top: 16px;\\r\\n        display: flex;\\r\\n        align-items: flex-start;\\r\\n    }\\r\\n\\r\\n    .custom-div .image-container img {\\r\\n        width: 70px;\\r\\n        margin-right: 8px;\\r\\n    }\\r\\n\\r\\n    .custom-div .info-container {\\r\\n        display: flex;\\r\\n        flex-direction: column;\\r\\n    }\\r\\n\\r\\n    .custom-div .info-container p {\\r\\n        color: rgb(0, 97, 193);\\r\\n    }\\r\\n\\r\\n    p {\\r\\n        margin: 0;\\r\\n    }\\r\\n</style>\\r\\n<div id="show_popup"></div>\\r\\n<script>\\r\\n    function generateRandomTime() {\\r\\n        const randomMinutesAgo = Math.floor(Math.random() * 26) + 5; // Random time between 5 and 30 minutes\\r\\n        return `${randomMinutesAgo} ph\\xc3\\xbat tr\\xc6\\xb0\\xe1\\xbb\\x9bc`;\\r\\n    }\\r\\n\\r\\n    const card = document.getElementById(\\\'custom-card\\\');\\r\\n    const urldefault = "\', escape=False)\n    response.write(URL(\'static\',\'%s/images\')%(static_default))\n    response.write(\'";\\r\\n    const imageUrls = [\\r\\n        urldefault + \\\'/truck.png\\\',\\r\\n        urldefault + \\\'/truck2.png\\\',\\r\\n        urldefault + \\\'/truck3.png\\\',\\r\\n        urldefault + \\\'/truck4.png\\\',\\r\\n        urldefault + \\\'/truck.png\\\',\\r\\n        urldefault + \\\'/truck2.png\\\',\\r\\n        urldefault + \\\'/truck.png\\\',\\r\\n        urldefault + \\\'/truck2.png\\\',\\r\\n        urldefault + \\\'/truck3.png\\\',\\r\\n        urldefault + \\\'/truck4.png\\\',\\r\\n        urldefault + \\\'/truck.png\\\',\\r\\n        urldefault + \\\'/truck.png\\\',\\r\\n        urldefault + \\\'/truck2.png\\\',\\r\\n        urldefault + \\\'/truck.png\\\',\\r\\n\\r\\n    ];\\r\\n    let imageIndex = 0;\\r\\n    let dataIndex = 0;\\r\\n\\r\\n    function formatPhoneNumber(phone) {\\r\\n        return phone.slice(0, phone.length / 2) + \\\'x\\\'.repeat(phone.length - phone.length / 2);\\r\\n    }\\r\\n\\r\\n    function formatCurrency(value) {\\r\\n        return value.toLocaleString(\\\'vi-VN\\\', { style: \\\'currency\\\', currency: \\\'VND\\\' });\\r\\n    }\\r\\n\\r\\n    function renderhtml(item, img){\\r\\n        console.log(item);\\r\\n        let data = `\\r\\n            <div class="custom-div active" id="custom-card">\\r\\n                <span style="color: red; font-weight: bold;">\\xc4\\x90\\xc6\\xa0N H\\xc3\\x80NG M\\xe1\\xbb\\x9aI NH\\xe1\\xba\\xa4T</span>\\r\\n                <p>Kh\\xc3\\xa1ch: <span id="customerName">${item.customer_send.name}</span></p>\\r\\n                <p id="phoneNumber">S\\xc4\\x90T: <span id="phoneText">${formatPhoneNumber(item.customer_send.phone) }</span> - C\\xc6\\xb0\\xe1\\xbb\\x9bc: <span id="transportFee">${item.transport_fee}</span></p>\\r\\n                <p> - <span id="locations">${generateRandomTime()}</span></p>\\r\\n                <div class="image-container">\\r\\n                    <img src="${img}" alt="" id="truckImage">\\r\\n                    <div>\\r\\n                        <p>Nh\\xe1\\xba\\xadn \\xc4\\x91\\xc6\\xa1n th\\xc3\\xa0nh c\\xc3\\xb4ng</p>\\r\\n                        <p id="truckInfo">L\\xc3\\xa1i xe: ${item.trucks.name??\\\'\\xc4\\x90ang c\\xe1\\xba\\xadp nh\\xe1\\xba\\xadt\\\'}</p>\\r\\n                        <p id="truckRoute">Tuy\\xe1\\xba\\xbfn: ${item.trucks?.router?.name??\\\'\\xc4\\x90ang c\\xe1\\xba\\xadp nh\\xe1\\xba\\xadt\\\'}</p>\\r\\n                    </div>\\r\\n                </div>\\r\\n            </div>\\r\\n        `;\\r\\n        document.getElementById(\\\'show_popup\\\').innerHTML = data;\\r\\n    }\\r\\n\\r\\n    function remmeveActive(){\\r\\n        $(\\\'.custom-div\\\').removeClass(\\\'active\\\');\\r\\n    }   \\r\\n\\r\\n    function fetchDataAndDisplayFromAPI() {\\r\\n        fetch(\\\'https://quanly.ghephang.com/gh/api_v1/getListNotice.json\\\')\\r\\n            .then(response => response.json())\\r\\n            .then(data => {\\r\\n                const record = data.list[dataIndex];\\r\\n\\r\\n                let index = 0;\\r\\n                setInterval(function () {\\r\\n                    index = (index + 1) % data.list.length;\\r\\n                    img = imageUrls[index];\\r\\n                    item = data.list[index];\\r\\n                    renderhtml(item, img);\\r\\n                    setTimeout(remmeveActive, 7000); // 2000ms (2 gi\\xc3\\xa2y)\\r\\n                }, 14000); \\r\\n            })\\r\\n            .catch(error => {\\r\\n                console.error(\\\'Error fetching data from API:\\\', error);\\r\\n            });\\r\\n    }\\r\\n\\r\\n    document.addEventListener(\\\'DOMContentLoaded\\\', fetchDataAndDisplayFromAPI);\\r\\n\\r\\n</script>\', escape=False)\n    response.write(\'\\r\\n    <!-- End Footer Bottom Area -->\\r\\n\\r\\n    <!-- Start Go Top Area -->\\r\\n    <div class="go-top">\\r\\n        <i class=\\\'bx bx-chevrons-up bx-fade-up\\\'></i>\\r\\n        <i class=\\\'bx bx-chevrons-up bx-fade-up\\\'></i>\\r\\n    </div>\\r\\n    <!-- End Go Top Area -->\\r\\n\\r\\n\\r\\n\\r\\n    <!-- Jquery Min JS -->\\r\\n    <script src="\', escape=False)\n    response.write(URL(\'static\',\'%s/js\')%(static_default))\n    response.write(\'/jquery.min.js"></script>\\r\\n    <!-- Bootstrap Bundle Min JS -->\\r\\n    <script src="\', escape=False)\n    response.write(URL(\'static\',\'%s/js\')%(static_default))\n    response.write(\'/bootstrap.bundle.min.js"></script>\\r\\n    <!-- Meanmenu Min JS -->\\r\\n    <script>\\r\\n        "use strict"; function on() { $(".floating-action-menu").hasClass("active") ? ($(".floating-action-menu").toggleClass("active"), document.getElementById("overlay").style.display = "none") : ($(".floating-action-menu").toggleClass("active"), document.getElementById("overlay").style.display = "block") } function off() { $(".floating-action-menu").toggleClass("active"), document.getElementById("overlay").style.display = "none" }\\r\\n    </script>\\r\\n    <script src="\', escape=False)\n    response.write(URL(\'static\',\'%s/js\')%(static_default))\n    response.write(\'/meanmenu.min.js"></script>\\r\\n    <!-- Wow Min JS -->\\r\\n    <script src="\', escape=False)\n    response.write(URL(\'static\',\'%s/js\')%(static_default))\n    response.write(\'/wow.min.js"></script>\\r\\n    <!-- Owl Carousel Min JS -->\\r\\n    <script src="\', escape=False)\n    response.write(URL(\'static\',\'%s/js\')%(static_default))\n    response.write(\'/owl.carousel.min.js"></script>\\r\\n    <!-- Owl Magnific Min JS -->\\r\\n    <script src="\', escape=False)\n    response.write(URL(\'static\',\'%s/js\')%(static_default))\n    response.write(\'/magnific-popup.min.js"></script>\\r\\n    <!-- Nice Select Min JS -->\\r\\n    <!-- <script src="\', escape=False)\n    response.write(URL(\'static\',\'%s/js\')%(static_default))\n    response.write(\'/nice-select.min.js"></script> -->\\r\\n    <!-- Appear JS -->\\r\\n    <script src="\', escape=False)\n    response.write(URL(\'static\',\'%s/js\')%(static_default))\n    response.write(\'/appear.min.js"></script>\\r\\n    <!-- Odometer JS -->\\r\\n    <script src="\', escape=False)\n    response.write(URL(\'static\',\'%s/js\')%(static_default))\n    response.write(\'/odometer.min.js"></script>\\r\\n    <!-- jarallax Min JS -->\\r\\n    <script src="\', escape=False)\n    response.write(URL(\'static\',\'%s/js\')%(static_default))\n    response.write(\'/jarallax.min.js"></script>\\r\\n    <!-- Form Ajaxchimp Min JS -->\\r\\n    <script src="\', escape=False)\n    response.write(URL(\'static\',\'%s/js\')%(static_default))\n    response.write(\'/ajaxchimp.min.js"></script>\\r\\n    <!-- Form Validator Min JS -->\\r\\n    <script src="\', escape=False)\n    response.write(URL(\'static\',\'%s/js\')%(static_default))\n    response.write(\'/form-validator.min.js"></script>\\r\\n    <!-- Contact JS -->\\r\\n    <script src="\', escape=False)\n    response.write(URL(\'static\',\'%s/js\')%(static_default))\n    response.write(\'/contact-form-script.js"></script>\\r\\n    <!-- Custom JS -->\\r\\n    <script src="\', escape=False)\n    response.write(URL(\'static\',\'%s/js\')%(static_default))\n    response.write(\'/custom.js"></script>\\r\\n\\r\\n    \', escape=False)\n    response.write(\'\\r\\n    \', escape=False)\n    response.write(\'\\r\\n</body>\\r\\n\\r\\n</html>\', escape=False)'
p7
sS'snapshot'
p8
(dp9
S'exception'
p10
(dp11
S'__module__'
p12
S"'gluon.rocket'"
p13
sS'__getslice__'
p14
S"<method-wrapper '__getslice__' of BadRequest object>"
p15
sS'__str__'
p16
S"<method-wrapper '__str__' of BadRequest object>"
p17
sS'__reduce__'
p18
S'<built-in method __reduce__ of BadRequest object>'
p19
sS'__dict__'
p20
S'{}'
p21
sS'__sizeof__'
p22
S'<built-in method __sizeof__ of BadRequest object>'
p23
sS'__weakref__'
p24
S'None'
p25
sS'__init__'
p26
S"<method-wrapper '__init__' of BadRequest object>"
p27
sS'__setattr__'
p28
S"<method-wrapper '__setattr__' of BadRequest object>"
p29
sS'__reduce_ex__'
p30
S'<built-in method __reduce_ex__ of BadRequest object>'
p31
sS'__new__'
p32
S'<built-in method __new__ of type object>'
p33
sS'__format__'
p34
S'<built-in method __format__ of BadRequest object>'
p35
sS'__class__'
p36
S"<class 'gluon.rocket.BadRequest'>"
p37
sS'__doc__'
p38
S"'Exception for when a client sends an incomprehensible request.'"
p39
sS'__getitem__'
p40
S"<method-wrapper '__getitem__' of BadRequest object>"
p41
sS'__setstate__'
p42
S'<built-in method __setstate__ of BadRequest object>'
p43
sS'__getattribute__'
p44
S"<method-wrapper '__getattribute__' of BadRequest object>"
p45
sS'args'
p46
S'()'
p47
sS'__subclasshook__'
p48
S'<built-in method __subclasshook__ of type object>'
p49
sS'__unicode__'
p50
S'<built-in method __unicode__ of BadRequest object>'
p51
sS'__delattr__'
p52
S"<method-wrapper '__delattr__' of BadRequest object>"
p53
sS'__repr__'
p54
S"<method-wrapper '__repr__' of BadRequest object>"
p55
sS'__hash__'
p56
S"<method-wrapper '__hash__' of BadRequest object>"
p57
ssS'evalue'
p58
S''
sS'frames'
p59
(lp60
(dp61
S'file'
p62
S'C:\\Users\\F6\\Downloads\\bahadi\\9026-py2\\gluon\\rocket.py'
p63
sS'dump'
p64
(dp65
S'self'
p66
S'<WSGIWorker(Thread-6, started daemon 12032)>'
p67
sS'conn'
p68
S'<gluon.rocket.Connection object>'
p69
sS'self.run_app'
p70
S'<bound method WSGIWorker.run_app of <WSGIWorker(Thread-6, started daemon 12032)>>'
p71
ssS'lnum'
p72
I1337
sS'lines'
p73
(dp74
I1332
S'            # Enter connection serve loop'
p75
sI1333
S'            while True:'
p76
sI1334
S'                if __debug__:'
p77
sI1335
S"                    self.err_log.debug('Serving a request')"
p78
sI1336
S'                try:'
p79
sI1337
S'                    self.run_app(conn)'
p80
sI1338
S'                except:'
p81
sI1339
S'                    exc = sys.exc_info()'
p82
sI1340
S'                    handled = self._handleError(*exc)'
p83
sI1341
S'                    if handled:'
p84
ssS'call'
p85
S'(self=<WSGIWorker(Thread-6, started daemon 12032)>)'
p86
sS'func'
p87
S'run'
p88
sa(dp89
g62
S'C:\\Users\\F6\\Downloads\\bahadi\\9026-py2\\gluon\\rocket.py'
p90
sg64
(dp91
S'self'
p92
S'<WSGIWorker(Thread-6, started daemon 12032)>'
p93
sS'self.environ'
p94
S'{\'HTTP_ACCEPT\': \'text/html,application/xhtml+xml,application/xml;...,*/*;q=0.8,application/signed-exchange;v=b3;q=0.7\', \'HTTP_ACCEPT_ENCODING\': \'gzip, deflate, br, zstd\', \'HTTP_ACCEPT_LANGUAGE\': \'en-US,en;q=0.9,vi-VN;q=0.8,vi;q=0.7,fr-FR;q=0.6,fr;q=0.5\', \'HTTP_CACHE_CONTROL\': \'max-age=0\', \'HTTP_CONNECTION\': \'keep-alive\', \'HTTP_COOKIE\': \'nobita-utm=e30=; session_id_admin=127.0.0.1-e1cc0d0f-fc9d-438e-bc0e-62e108245bd8\', \'HTTP_HOST\': \'127.0.0.1:8000\', \'HTTP_REFERER\': \'http://127.0.0.1:8000/trang-chu\', \'HTTP_SEC_CH_UA\': \'"Not)A;Brand";v="99", "Google Chrome";v="127", "Chromium";v="127"\', \'HTTP_SEC_CH_UA_MOBILE\': \'?0\', ...}'
p95
sS'sock_file'
p96
S'<socket._fileobject object>'
p97
sS'environ'
p98
S'undefined'
p99
sS'self.build_environ'
p100
S'<bound method WSGIWorker.build_environ of <WSGIWorker(Thread-6, started daemon 12032)>>'
p101
sS'conn'
p102
S'<gluon.rocket.Connection object>'
p103
ssg72
I1830
sg73
(dp104
I1825
S'        else:'
p105
sI1826
S'            sock_file = conn.makefile(BUF_SIZE)'
p106
sI1827
S''
sI1828
S'        try:'
p107
sI1829
S'            # Read the headers and build our WSGI environment'
p108
sI1830
S'            self.environ = environ = self.build_environ(sock_file, conn)'
p109
sI1831
S''
sI1832
S'            # Handle 100 Continue'
p110
sI1833
S"            if environ.get('HTTP_EXPECT', '') == '100-continue':"
p111
sI1834
S"                res = environ['SERVER_PROTOCOL'] + ' 100 Continue\\r\\n\\r\\n'"
p112
ssg85
S'(self=<WSGIWorker(Thread-6, started daemon 12032)>, conn=<gluon.rocket.Connection object>)'
p113
sg87
S'run_app'
p114
sa(dp115
g62
S'C:\\Users\\F6\\Downloads\\bahadi\\9026-py2\\gluon\\rocket.py'
p116
sg64
(dp117
S'sock_file'
p118
S'<socket._fileobject object>'
p119
sS'self.read_request_line'
p120
S'<bound method WSGIWorker.read_request_line of <WSGIWorker(Thread-6, started daemon 12032)>>'
p121
sS'self'
p122
S'<WSGIWorker(Thread-6, started daemon 12032)>'
p123
sS'request'
p124
g99
ssg72
I1650
sg73
(dp125
I1645
S'                                      "wsgiorg.futures": executor.futures})'
p126
sI1646
S''
sI1647
S'    def build_environ(self, sock_file, conn):'
p127
sI1648
S'        """ Build the execution environment. """'
p128
sI1649
S'        # Grab the request line'
p129
sI1650
S'        request = self.read_request_line(sock_file)'
p130
sI1651
S''
sI1652
S'        # Copy the Base Environment'
p131
sI1653
S'        environ = self.base_environ.copy()'
p132
sI1654
S''
ssg85
S'(self=<WSGIWorker(Thread-6, started daemon 12032)>, sock_file=<socket._fileobject object>, conn=<gluon.rocket.Connection object>)'
p133
sg87
S'build_environ'
p134
sa(dp135
g62
S'C:\\Users\\F6\\Downloads\\bahadi\\9026-py2\\gluon\\rocket.py'
p136
sg64
(dp137
S'global BadRequest'
p138
S"<class 'gluon.rocket.BadRequest'>"
p139
ssg72
I1429
sg73
(dp140
I1424
S''
sI1425
S'        match = re_REQUEST_LINE.match(d)'
p141
sI1426
S''
sI1427
S'        if not match:'
p142
sI1428
S"            self.send_response('400 Bad Request')"
p143
sI1429
S'            raise BadRequest'
p144
sI1430
S''
sI1431
S'        req = match.groupdict()'
p145
sI1432
S'        for k, v in req.iteritems():'
p146
sI1433
S'            if not v:'
p147
ssg85
S'(self=<WSGIWorker(Thread-6, started daemon 12032)>, sock_file=<socket._fileobject object>)'
p148
sg87
S'read_request_line'
p149
sasS'pyver'
p150
S'Python 2.7.18: C:\\Python27\\python.exe (prefix: C:\\Python27)'
p151
sS'etype'
p152
S"<class 'gluon.rocket.BadRequest'>"
p153
sS'date'
p154
S'Fri Aug  2 15:03:18 2024'
p155
sS'locals'
p156
(dp157
S'sock_file'
p158
S'<socket._fileobject object>'
p159
sS'self'
p160
S'<WSGIWorker(Thread-6, started daemon 12032)>'
p161
sS'd'
S"'\\x16\\x03\\x01\\x06\\xa0\\x01\\x00\\x06\\x9c\\x03\\x03\\xdf\\x89\\x7fw\\x16\\xc3\\x93\\x14\\x96g1\\xf8#J\\x17\\xb2aml\\xe4\\xe1\\xd4\\xbe\\xfe\\xd7I\\x91\\xa9\\x99\\x95\\x0eH :\\xbcY\\x1f...A\\xcc\\xd7\\x81\\xd1\\xfa\\x1c\\xa9\\x88\\xe2\\x0b?C[U{/$]\\xe7g\\x02\\xbb\\x83\\x82\\x95\\xe118 \\xb0\\xceDNn\\xaf\\x9f\\x00+\\x00\\x07\\x06JJ\\x03\\x04\\x03\\x03\\x00'"
p162
sS'match'
p163
S'None'
p164
sssS'traceback'
p165
S'Traceback (most recent call last):\n  File "C:\\Users\\F6\\Downloads\\bahadi\\9026-py2\\gluon\\rocket.py", line 1337, in run\n    self.run_app(conn)\n  File "C:\\Users\\F6\\Downloads\\bahadi\\9026-py2\\gluon\\rocket.py", line 1830, in run_app\n    self.environ = environ = self.build_environ(sock_file, conn)\n  File "C:\\Users\\F6\\Downloads\\bahadi\\9026-py2\\gluon\\rocket.py", line 1650, in build_environ\n    request = self.read_request_line(sock_file)\n  File "C:\\Users\\F6\\Downloads\\bahadi\\9026-py2\\gluon\\rocket.py", line 1429, in read_request_line\n    raise BadRequest\nBadRequest\n'
p166
s.