(dp1
S'output'
p2
S"<type 'exceptions.NameError'> name 'data' is not defined"
p3
sS'layer'
p4
S'C:\\Users\\F6\\Downloads\\bahadi\\9026-py2\\applications\\cms\\views\\site/ghephang/default/gioithieu.html'
p5
sS'code'
p6
S'response.write(\'<!doctype html>\\r\\n<html lang="en">\\r\\n\\r\\n\', escape=False)\nstatic_default=\'site/ghephang/template/default\'\nresponse.write(\'\\r\\n\', escape=False)\nstatic_view=\'site/ghephang/default\'\nresponse.write(\'\\r\\n\', escape=False)\nresponse.write(\'\\r\\n    \', escape=False)\nis_page = "page"\nresponse.write(\'\\r\\n    \', escape=False)\nclass_top = ""\nresponse.write(\'\\r\\n\', escape=False)\nresponse.write(\'\\r\\n\\r\\n<head>\\r\\n    <!-- Required meta tags -->\\r\\n    <meta charset="utf-8">\\r\\n    <meta name="viewport" content="width=device-width, initial-scale=1, shrink-to-fit=no">\\r\\n    \', escape=False)\nresponse.write(cms.metadc())\nresponse.write(\'\\r\\n    <!-- Bootstrap Min CSS -->\\r\\n    <link rel="stylesheet" href="\', escape=False)\nresponse.write(URL(\'static\',\'%s/css\')%(static_default))\nresponse.write(\'/bootstrap.min.css">\\r\\n    <!-- Owl Theme Default Min CSS -->\\r\\n    <link rel="stylesheet" href="\', escape=False)\nresponse.write(URL(\'static\',\'%s/css\')%(static_default))\nresponse.write(\'/owl.theme.default.min.css">\\r\\n    <!-- Owl Carousel Min CSS -->\\r\\n    <link rel="stylesheet" href="\', escape=False)\nresponse.write(URL(\'static\',\'%s/css\')%(static_default))\nresponse.write(\'/owl.carousel.min.css">\\r\\n    <!-- Owl Magnific Min CSS -->\\r\\n    <link rel="stylesheet" href="\', escape=False)\nresponse.write(URL(\'static\',\'%s/css\')%(static_default))\nresponse.write(\'/magnific-popup.min.css">\\r\\n    <!-- Animate Min CSS -->\\r\\n    <link rel="stylesheet" href="\', escape=False)\nresponse.write(URL(\'static\',\'%s/css\')%(static_default))\nresponse.write(\'/animate.min.css">\\r\\n    <!-- Boxicons Min CSS -->\\r\\n    <link rel="stylesheet" href="\', escape=False)\nresponse.write(URL(\'static\',\'%s/css\')%(static_default))\nresponse.write(\'/boxicons.min.css">\\r\\n    <!-- Flaticon CSS -->\\r\\n    <link rel="stylesheet" href="\', escape=False)\nresponse.write(URL(\'static\',\'%s/css\')%(static_default))\nresponse.write(\'/flaticon.css">\\r\\n    <!-- Meanmenu Min CSS -->\\r\\n    <link rel="stylesheet" href="\', escape=False)\nresponse.write(URL(\'static\',\'%s/css\')%(static_default))\nresponse.write(\'/meanmenu.min.css">\\r\\n    <!-- Nice Select Min CSS -->\\r\\n    <!-- <link rel="stylesheet" href="\', escape=False)\nresponse.write(URL(\'static\',\'%s/css\')%(static_default))\nresponse.write(\'/nice-select.min.css"> -->\\r\\n    <!-- Odometer Min CSS-->\\r\\n    <link rel="stylesheet" href="\', escape=False)\nresponse.write(URL(\'static\',\'%s/css\')%(static_default))\nresponse.write(\'/odometer.min.css">\\r\\n    <!-- Style CSS -->\\r\\n    <link rel="stylesheet" href="\', escape=False)\nresponse.write(URL(\'static\',\'%s/css\')%(static_default))\nresponse.write(\'/style.css">\\r\\n    <!-- Dark CSS -->\\r\\n    <link rel="stylesheet" href="\', escape=False)\nresponse.write(URL(\'static\',\'%s/css\')%(static_default))\nresponse.write(\'/dark.css">\\r\\n    <!-- Responsive CSS -->\\r\\n    <link rel="stylesheet" href="\', escape=False)\nresponse.write(URL(\'static\',\'%s/css\')%(static_default))\nresponse.write(\'/responsive.css">\\r\\n    \', escape=False)\nresponse.write(\'\\r\\n    \', escape=False)\nresponse.write(\'\\r\\n    \', escape=False)\nresponse.write(\'\\n<script type="text/javascript"><!--\\n    // These variables are used by the web2py_ajax_init function in web2py_ajax.js (which is loaded below).\\n    var w2p_ajax_confirm_message = "\', escape=False)\nresponse.write(T(\'Are you sure you want to delete this object?\'))\nresponse.write(\'";\\n    var w2p_ajax_disable_with_message = "\', escape=False)\nresponse.write(T(\'Working...\'))\nresponse.write(\'";\\n    var w2p_ajax_date_format = "\', escape=False)\nresponse.write(T(\'%d/%m/%Y\'))\nresponse.write(\'";\\n    var w2p_ajax_datetime_format = "\', escape=False)\nresponse.write(T(\'%d/%m/%Y %H:%M:%S\'))\nresponse.write(\'";\\n    var ajax_error_500 = \\\'\', escape=False)\nresponse.write(T.M(\'An error occured, please [[reload %s]] the page\') % URL(args=request.args, vars=request.get_vars))\nresponse.write("\'\\n    //--></script>\\n", escape=False)\nresponse.files.insert(0,URL(\'static\',\'js/jquery.js\'))\nresponse.files.insert(1,URL(\'static\',\'css/calendar.css\'))\nresponse.files.insert(2,URL(\'static\',\'js/calendar.js\'))\nresponse.files.insert(3,URL(\'static\',\'js/web2py.js\'))\nresponse.files.insert(3,URL(\'static\',\'js/jquery.browser.min.js\'))\nresponse.include_meta()\nresponse.include_files()\nresponse.write(\'\\n\', escape=False)\nresponse.write(\'\\r\\n    <!-- Favicon -->\\r\\n    <!-- Title -->\\r\\n    <style>\\r\\n\\r\\n\\r\\n        body {\\r\\n            font-family: \\\'Cabin\\\', sans-serif;\\r\\n            margin: 0;\\r\\n            padding: 0;\\r\\n            box-sizing: border-box;\\r\\n            background-color: #f5f5f5;\\r\\n        }\\r\\n        .app-form{\\r\\n\\r\\n            display: flex;\\r\\n            justify-content: center;\\r\\n            align-items: center;\\r\\n\\r\\n        }\\r\\n        .app-form-1 {\\r\\n    flex-shrink: 0;\\r\\n    margin: 20px;\\r\\n    padding: 15px 0;\\r\\n    background-color: rgba(241, 243, 244, 0.8);\\r\\n    display: flex;\\r\\n    flex-direction: column;\\r\\n    justify-content: center;\\r\\n    align-items: center;\\r\\n    box-sizing: border-box;\\r\\n    width: 400px; /* Gi\\xc3\\xa1 tr\\xe1\\xbb\\x8b m\\xe1\\xba\\xb7c \\xc4\\x91\\xe1\\xbb\\x8bnh */\\r\\n    border-radius:30px;\\r\\n\\r\\n}\\r\\n\\r\\n@media (min-width: 601px) {\\r\\n    .app-form-1 {\\r\\n        width: 600px; /* Khi m\\xc3\\xa0n h\\xc3\\xacnh r\\xe1\\xbb\\x99ng h\\xc6\\xa1n 600px, width s\\xe1\\xba\\xbd l\\xc3\\xa0 600px */\\r\\n    }\\r\\n\\r\\n}\\r\\n\\r\\n@media (max-width: 1245px) {\\r\\n    .app-form-1 {\\r\\n        width: 500px; /* Khi m\\xc3\\xa0n h\\xc3\\xacnh nh\\xe1\\xbb\\x8f h\\xc6\\xa1n 600px, width s\\xe1\\xba\\xbd l\\xc3\\xa0 400px */\\r\\n    }\\r\\n}\\r\\n@media (max-width: 960px) {\\r\\n    .app-form-1 {\\r\\n        width: 400px; /* Khi m\\xc3\\xa0n h\\xc3\\xacnh nh\\xe1\\xbb\\x8f h\\xc6\\xa1n 600px, width s\\xe1\\xba\\xbd l\\xc3\\xa0 400px */\\r\\n    }\\r\\n}\\r\\n@media (max-width: 843px) {\\r\\n    .app-form-1 {\\r\\n        width: 300px; /* Khi m\\xc3\\xa0n h\\xc3\\xacnh nh\\xe1\\xbb\\x8f h\\xc6\\xa1n 600px, width s\\xe1\\xba\\xbd l\\xc3\\xa0 400px */\\r\\n    }\\r\\n}\\r\\n        .text-1 {\\r\\n            text-align: center;\\r\\n            display: block;\\r\\n\\r\\n            font-size: 30px;\\r\\n            color: #3C3C3B;\\r\\n        }\\r\\n\\r\\n        .icon-button {\\r\\n            display: flex;\\r\\n            justify-content: center;\\r\\n            align-items: center;\\r\\n            margin: 15px;\\r\\n            max-width: 100%;\\r\\n            gap: 10px;\\r\\n        }\\r\\n\\r\\n        .images-logo {\\r\\n\\r\\n            width: 150px;\\r\\n\\r\\n            display: block;\\r\\n            margin: 10px auto;\\r\\n            overflow: hidden;\\r\\n        }\\r\\n\\r\\n        .images-logo img {\\r\\n            max-width: 150px ;\\r\\n            height: auto;\\r\\n\\r\\n        }\\r\\n        .icon-button-app {\\r\\n            width: 150px;\\r\\n            margin: 0 5px;\\r\\n        }\\r\\n\\r\\n        @media (max-width: 768px) {\\r\\n            .app-form {\\r\\n                flex-direction: column;\\r\\n\\r\\n            }\\r\\n\\r\\n            .app-form-1 {\\r\\n                width: 100%;\\r\\n                max-width: none;\\r\\n\\r\\n            }\\r\\n\\r\\n            .icon-button-app {\\r\\n                width: 100px;\\r\\n            }\\r\\n        }\\r\\n        .search-wrap .container {\\r\\n            margin-top: 50px;\\r\\n            padding: 60px 40px;\\r\\n            transform: translatey(0);\\r\\n            background: white;\\r\\n        }\\r\\n\\r\\n        .form:not(.open) iframe {\\r\\n            display: none\\r\\n        }\\r\\n\\r\\n        #overlay {\\r\\n            position: fixed;\\r\\n            display: none;\\r\\n            width: 100%;\\r\\n            height: 100%;\\r\\n            top: 0;\\r\\n            left: 0;\\r\\n            right: 0;\\r\\n            bottom: 0;\\r\\n            background-color: rgba(0, 0, 0, 0.5);\\r\\n            z-index: 2;\\r\\n            cursor: pointer;\\r\\n        }\\r\\n\\r\\n        .floating-action-menu {\\r\\n            bottom: 10px;\\r\\n            right: 10px;\\r\\n            z-index: 999;\\r\\n        }\\r\\n\\r\\n        .text-right {\\r\\n            text-align: right !important;\\r\\n        }\\r\\n\\r\\n        .floating-action-menu>.action-menu {\\r\\n            visibility: hidden;\\r\\n            -webkit-transform: translateY(65px);\\r\\n            transform: translateY(65px);\\r\\n            opacity: 0;\\r\\n            max-height: 0;\\r\\n            overflow: hidden;\\r\\n            -webkit-transition: all 300ms linear;\\r\\n            transition: all 300ms linear;\\r\\n        }\\r\\n\\r\\n        .floating-action {\\r\\n            background-color: #fff;\\r\\n            border-radius: 28px;\\r\\n            margin-top: 5px;\\r\\n            width: -webkit-fit-content;\\r\\n            width: -moz-fit-content;\\r\\n            width: fit-content;\\r\\n            float: right;\\r\\n            clear: both;\\r\\n        }\\r\\n\\r\\n        .floating-action:hover {\\r\\n            background-color: #fff4f3;\\r\\n        }\\r\\n\\r\\n        .floating-action-menu.active>.action-menu {\\r\\n            visibility: visible;\\r\\n            -webkit-transform: translate(0);\\r\\n            transform: translate(0);\\r\\n            opacity: 1;\\r\\n            padding-bottom: 5px;\\r\\n            max-height: 1000px;\\r\\n        }\\r\\n\\r\\n        .floating-action .badge {\\r\\n            font-weight: 400;\\r\\n            font-size: 15px;\\r\\n            line-height: 18px;\\r\\n            color: #1a1a1a;\\r\\n        }\\r\\n\\r\\n        .badge {\\r\\n            display: inline-block;\\r\\n            padding: 0.25em 0.4em;\\r\\n            font-size: 75%;\\r\\n            font-weight: 500;\\r\\n            line-height: 1;\\r\\n            text-align: center;\\r\\n            white-space: nowrap;\\r\\n            vertical-align: baseline;\\r\\n            border-radius: 0.25rem;\\r\\n        }\\r\\n\\r\\n        a.floating-action:hover .badge {\\r\\n            color: #fa4612;\\r\\n        }\\r\\n\\r\\n\\r\\n\\r\\n        .floating-action-menu.active>.action-menu .btn-floating,\\r\\n        .floating-action-menu.active>.action-menu .badge {\\r\\n            -webkit-transform: scale(1);\\r\\n            transform: scale(1);\\r\\n        }\\r\\n\\r\\n        .floating-action-menu>.action-menu .btn-floating,\\r\\n        .floating-action-menu>.action-menu .badge {\\r\\n            -webkit-transform: scale(0.4);\\r\\n            transform: scale(0.4);\\r\\n            -webkit-transition: all 300ms ease-in-out;\\r\\n            transition: all 300ms ease-in-out;\\r\\n        }\\r\\n\\r\\n    </style>\\r\\n    <meta name="zalo-platform-site-verification" content="EFQQUBBhINfPxUCbXUDg65AIxZo-x3LaD3O" />\\r\\n</head>\\r\\n\\r\\n<body>\\r\\n    <!-- Start Preloader Area -->\\r\\n    <div class="preloader">\\r\\n        <div class="lds-ripple">\\r\\n            <div></div>\\r\\n            <div></div>\\r\\n        </div>\\r\\n    </div>\\r\\n    <!-- End Preloader Area -->\\r\\n    \', escape=False)\nresponse.write(\' \', escape=False)\nresponse.write(\'\\r\\n    \', escape=False)\nresponse.write(\'<header class="header-area-four \', escape=False)\nresponse.write(class_top)\nresponse.write(\'">\\r\\n    <!-- Start Top Header Area -->\\r\\n    <div class="header-style-four">\\r\\n        <div class="container">\\r\\n            <div class="row align-items-center">\\r\\n                <div class="col-lg-4 col-md-5">\\r\\n                    <div class="header-left-content">\\r\\n                        <ul>\\r\\n                            <li>\\r\\n                                <a href="tel:1900888678">\\r\\n                                    <i class="bx bx-phone-call"></i>\\r\\n                                    1900.888.678\\r\\n                                </a>\\r\\n                            </li>\\r\\n                            <li>\\r\\n                                <a href="mailto:info@ghephang.com">\\r\\n                                    <i class="bx bx-envelope"></i>\\r\\n                                    [info@ghephang.com]\\r\\n                                </a>\\r\\n                            </li>\\r\\n                        </ul>\\r\\n                    </div>\\r\\n                </div>\\r\\n                <div class="col-lg-8 col-md-7">\\r\\n                    <div class="header-right-content">\\r\\n                        <ul class="additional-link">\\r\\n                            <li>\\r\\n                                <a href="/uu-dai">\\xc6\\xafu \\xc4\\x91\\xc3\\xa3i</a>\\r\\n                            </li>\\r\\n                            <li>\\r\\n                                <a href="/tuyen-dung">Tuy\\xe1\\xbb\\x83n d\\xe1\\xbb\\xa5ng</a>\\r\\n                            </li>\\r\\n                            <li>\\r\\n                                <a href="/faq">C\\xc3\\xa2u h\\xe1\\xbb\\x8fi th\\xc6\\xb0\\xe1\\xbb\\x9dng g\\xe1\\xba\\xb7p</a>\\r\\n                            </li>\\r\\n                        </ul>\\r\\n                        <ul class="social-links">\\r\\n                             \', escape=False)\nresponse.write(\'<li>\\r\\n    <a href="#">\\r\\n        <i class=\\\'bx bxl-twitter\\\'></i>\\r\\n    </a>\\r\\n</li>\\r\\n<li>\\r\\n    <a href="#">\\r\\n        <i class=\\\'bx bxl-facebook\\\'></i>\\r\\n    </a>\\r\\n</li>\\r\\n<li>\\r\\n    <a href="#">\\r\\n        <i class=\\\'bx bxl-instagram\\\'></i>\\r\\n    </a>\\r\\n</li>\\r\\n<li>\\r\\n    <a href="#">\\r\\n        <i class=\\\'bx bxl-linkedin\\\'></i>\\r\\n    </a>\\r\\n</li>\\r\\n\', escape=False)\nresponse.write(\'\\r\\n                        </ul>\\r\\n                    </div>\\r\\n                </div>\\r\\n            </div>\\r\\n        </div>\\r\\n    </div>\\r\\n    <!-- End Top Header Area -->\\r\\n\\r\\n    <!-- Start Prevoz Navbar Area -->\\r\\n    <div class="prevoz-nav-style prevoz-nav-style-four">\\r\\n        <div class="navbar-area">\\r\\n            <!-- Menu For Mobile Device -->\\r\\n            <div class="mobile-nav">\\r\\n                <a href="/trang-chu" class="logo">\\r\\n                    <img src="\', escape=False)\nresponse.write(URL(\'static\',\'%s/img\')%(static_default))\nresponse.write(\'/logo.png" alt="Logo">\\r\\n                </a>\\r\\n            </div>\\r\\n            <!-- Menu For Desktop Device -->\\r\\n            <div class="main-nav">\\r\\n                <nav class="navbar navbar-expand-md navbar-light">\\r\\n                    <div class="container">\\r\\n                        <a class="navbar-brand" href="/trang-chu">\\r\\n                            <img src="\', escape=False)\nresponse.write(URL(\'static\',\'%s/img\')%(static_default))\nresponse.write(\'/logo.png" alt="Logo">\\r\\n                        </a>\\r\\n                        <div class="collapse navbar-collapse mean-menu" id="navbarSupportedContent">\\r\\n                            \', escape=False)\nresponse.write(\'<ul class="navbar-nav mr-auto">\\r\\n    <li class="nav-item">\\r\\n        <a href="/khach-hang" class="nav-link">Kh\\xc3\\xa1ch h\\xc3\\xa0ng</a>\\r\\n    </li>\\r\\n    \\r\\n    <li class="nav-item">\\r\\n        <a href="/buu-cuc" class="nav-link">B\\xc6\\xb0u c\\xe1\\xbb\\xa5c</a>\\r\\n    </li>\\r\\n    \\r\\n    <li class="nav-item">\\r\\n        <a href="/tai-xe" class="nav-link">T\\xc3\\xa0i x\\xe1\\xba\\xbf</a>\\r\\n    </li>\\r\\n      \\r\\n\\t<li class="nav-item">\\r\\n        <a href="/gioi-thieu" class="nav-link dropdown-toggle">\\r\\n            Ti\\xe1\\xbb\\x87n \\xc3\\xadch\\r\\n            <i class=\\\'bx bx-chevron-down\\\'></i>\\r\\n        </a>\\r\\n        <ul class="dropdown-menu">\\r\\n            <li class="nav-item">\\r\\n\\t\\t\\t\\t<a href="/tra-van-don" class="nav-link">Tra c\\xe1\\xbb\\xa9u v\\xe1\\xba\\xadn \\xc4\\x91\\xc6\\xa1n</a>\\r\\n            </li>\\r\\n            <li class="nav-item">\\r\\n\\t\\t\\t\\t<a href="/tim-buu-cuc" class="nav-link">T\\xc3\\xacm b\\xc6\\xb0u c\\xe1\\xbb\\xa5c</a>\\r\\n            </li>\\r\\n\\t\\t\\t\\r\\n        </ul>\\r\\n    </li>\\r\\n \\r\\n\\t<li class="nav-item">\\r\\n        <a href="/gioi-thieu" class="nav-link dropdown-toggle">\\r\\n            V\\xe1\\xbb\\x81 ch\\xc3\\xbang t\\xc3\\xb4i\\r\\n            <i class=\\\'bx bx-chevron-down\\\'></i>\\r\\n        </a>\\r\\n        <ul class="dropdown-menu">\\r\\n            <li class="nav-item">\\r\\n                <a href="/gioi-thieu" class="nav-link">V\\xe1\\xbb\\x81 ch\\xc3\\xbang t\\xc3\\xb4i</a>\\r\\n            </li>\\r\\n            <li class="nav-item">\\r\\n                <a href="/faq" class="nav-link">C\\xc3\\xa2u h\\xe1\\xbb\\x8fi th\\xc6\\xb0\\xe1\\xbb\\x9dng g\\xe1\\xba\\xb7p</a>\\r\\n            </li>\\r\\n\\t\\t\\t<li class="nav-item">\\r\\n\\t\\t\\t\\t<a href="/tin-tuc-su-kien" class="nav-link">Tin t\\xe1\\xbb\\xa9c s\\xe1\\xbb\\xb1 ki\\xe1\\xbb\\x87n</a>\\r\\n\\t\\t\\t</li>\\r\\n\\t\\t\\t<li class="nav-item">\\r\\n\\t\\t\\t\\t<a href="/lien-he" class="nav-link">Li\\xc3\\xaan h\\xe1\\xbb\\x87</a>\\r\\n\\t\\t\\t</li>\\r\\n        </ul>\\r\\n    </li>\\r\\n \\r\\n    \\r\\n</ul>\', escape=False)\nresponse.write(\'\\r\\n                            <!-- Start Other Option -->\\r\\n                            <div class="others-option">\\r\\n                                <div class="search-wrap">\\r\\n                                    <a href=".search">\\r\\n                                        <i class=\\\'bx bx-search\\\'></i>\\r\\n                                    </a>\\r\\n                                </div>\\r\\n                                <!-- <button type="button" class="sidebar-menu" data-bs-toggle="modal"\\r\\n                                    data-bs-target="#myModal2">\\r\\n                                    <i class="flaticon-menu"></i>\\r\\n                                </button> -->\\r\\n                                <!-- <a class="default-btn" href="/tao-don"> -->\\r\\n                                    <!-- T\\xe1\\xba\\xa1o \\xc4\\x91\\xc6\\xa1n -->\\r\\n                                <!-- </a> -->\\r\\n<!-- \\r\\n                                <div class="dark-switch">\\r\\n                                    <div class="switch-box">\\r\\n                                        <label id="switch" class="switch">\\r\\n                                            <input type="checkbox" onchange="toggleTheme()" id="slider">\\r\\n                                            <span class="slider round"></span>\\r\\n                                        </label>\\r\\n                                    </div>\\r\\n                                </div> -->\\r\\n                            </div>\\r\\n                            <!-- End Other Option -->\\r\\n                        </div>\\r\\n                    </div>\\r\\n                </nav>\\r\\n            </div>\\r\\n        </div>\\r\\n    </div>\\r\\n    <!-- End Prevoz Navbar Area -->\\r\\n</header>\', escape=False)\nresponse.write(\'\\r\\n    <!-- Start Header Area -->\\r\\n    \', escape=False)\nresponse.write(\'<!-- Start Sidebar Modal -->\\r\\n<div class="sidebar-modal">\\r\\n    <div class="modal right fade" id="myModal2" tabindex="-1" role="dialog" aria-labelledby="myModalLabel2">\\r\\n        <div class="modal-dialog" role="document">\\r\\n            <div class="modal-content">\\r\\n                <div class="modal-header">\\r\\n                    <button type="button" class="close" data-bs-dismiss="modal" aria-label="Close">\\r\\n                        <span aria-hidden="true">\\r\\n                            <i class="bx bx-x"></i>\\r\\n                        </span>\\r\\n                    </button>\\r\\n                    </button>\\r\\n                    <h2 class="modal-title" id="myModalLabel2">\\r\\n                        <a href="/trang-chu">\\r\\n                            <img src="\', escape=False)\nresponse.write(URL(\'static\',\'%s/img\')%(static_default))\nresponse.write(\'/logo.png" alt="Logo">\\r\\n                        </a>\\r\\n                    </h2>\\r\\n                </div>\\r\\n                <div class="modal-body">\\r\\n                    <div class="sidebar-modal-widget">\\r\\n                        <h3 class="title">Th\\xc3\\xb4ng tin v\\xe1\\xbb\\x81 ch\\xc3\\xbang t\\xc3\\xb4i</h3>\\r\\n                        <p><b>Ghephang.com</b> v\\xe1\\xbb\\x9bi mong mu\\xe1\\xbb\\x91n \\xc4\\x91\\xc6\\xa1n gi\\xe1\\xba\\xa3n h\\xc3\\xb3a vi\\xe1\\xbb\\x87c giao h\\xc3\\xa0ng, gi\\xc3\\xbap c\\xc3\\xa1c ch\\xe1\\xbb\\xa7 c\\xe1\\xbb\\xada h\\xc3\\xa0ng, c\\xc3\\xa1c nh\\xc3\\xa0 h\\xc3\\xa0ng \\xc4\\x91\\xe1\\xba\\xbfn c\\xc3\\xa1c c\\xc3\\xb4ng ty t\\xe1\\xba\\xa1i Vi\\xe1\\xbb\\x87t Nam\\r\\n                        c\\xc3\\xb3 th\\xe1\\xbb\\x83 t\\xe1\\xba\\xadn h\\xc6\\xb0\\xe1\\xbb\\x9fng m\\xe1\\xbb\\x99t d\\xe1\\xbb\\x8bch v\\xe1\\xbb\\xa5 cao c\\xe1\\xba\\xa5p ti\\xe1\\xbb\\x87n l\\xe1\\xbb\\xa3i nh\\xc6\\xb0ng v\\xe1\\xbb\\x9bi gi\\xe1\\xba\\xa3 c\\xe1\\xba\\xa3 h\\xe1\\xbb\\xa3p l\\xc3\\xbd.</p>\\r\\n                    </div>\\r\\n                    <div class="sidebar-modal-widget">\\r\\n                        <h3 class="title">Li\\xc3\\xaan k\\xe1\\xba\\xbft b\\xe1\\xbb\\x95 sung</h3>\\r\\n                        <ul>\\r\\n                            <li>\\r\\n                                <a href="#">\\xc4\\x90\\xc4\\x83ng nh\\xe1\\xba\\xadp</a>\\r\\n                            </li>\\r\\n                            <li>\\r\\n                                <a href="#">\\xc4\\x90\\xc4\\x83ng k\\xc3\\xbd ngay</a>\\r\\n                            </li>\\r\\n                            <li>\\r\\n                                <a href="/faq">FAQ</a>\\r\\n                            </li>\\r\\n                            <li>\\r\\n                                <a href="#">\\xc4\\x90\\xc4\\x83ng xu\\xe1\\xba\\xa5t</a>\\r\\n                            </li>\\r\\n                        </ul>\\r\\n                    </div>\\r\\n                    <div class="sidebar-modal-widget">\\r\\n                        <h3 class="title">Contact Info</h3>\\r\\n                        <ul class="contact-info">\\r\\n                            <li>\\r\\n                                <i class="bx bx-location-plus"></i>\\r\\n                                \\xc4\\x90\\xe1\\xbb\\x8ba ch\\xe1\\xbb\\x89\\r\\n                                <span>New York - 1060, Str. First 78 Great Western Road</span>\\r\\n                            </li>\\r\\n                            <li>\\r\\n                                <i class="bx bx-envelope"></i>\\r\\n                                Email\\r\\n                                <a\\r\\n                                    href="mailto:info@ghephang.com"><span\\r\\n                                        class="__cf_email__">[info@ghephang.com]</span></a>\\r\\n                                <a\\r\\n                                    href="mailto:info@ghephang.com"><span\\r\\n                                        class="__cf_email__" >[info@ghephang.com]</span></a>\\r\\n                            </li>\\r\\n                            <li>\\r\\n                                <i class="bx bxs-phone-call"></i>\\r\\n                                Phone\\r\\n                                <a href="tel:0356 656 777">0356 656 777</a>\\r\\n                                <a href="tel:0356 656 777">0356 656 777</a>\\r\\n                            </li>\\r\\n                        </ul>\\r\\n                    </div>\\r\\n                    <div class="sidebar-modal-widget">\\r\\n                        <h3 class="title">K\\xe1\\xba\\xbft n\\xe1\\xbb\\x91i v\\xe1\\xbb\\x9bi ch\\xc3\\xbang t\\xc3\\xb4i</h3>\\r\\n                        <ul class="social-list">\\r\\n                            \', escape=False)\nresponse.write(\'<li>\\r\\n    <a href="#">\\r\\n        <i class=\\\'bx bxl-twitter\\\'></i>\\r\\n    </a>\\r\\n</li>\\r\\n<li>\\r\\n    <a href="#">\\r\\n        <i class=\\\'bx bxl-facebook\\\'></i>\\r\\n    </a>\\r\\n</li>\\r\\n<li>\\r\\n    <a href="#">\\r\\n        <i class=\\\'bx bxl-instagram\\\'></i>\\r\\n    </a>\\r\\n</li>\\r\\n<li>\\r\\n    <a href="#">\\r\\n        <i class=\\\'bx bxl-linkedin\\\'></i>\\r\\n    </a>\\r\\n</li>\\r\\n\', escape=False)\nresponse.write(\'\\r\\n                        </ul>\\r\\n                    </div>\\r\\n                </div>\\r\\n            </div>\\r\\n        </div>\\r\\n    </div>\\r\\n</div>\\r\\n<!-- End Sidebar Modal -->\', escape=False)\nresponse.write(\'\\r\\n\\r\\n    <!-- Start Search Box Modal -->\\r\\n    \', escape=False)\nresponse.write(\'<!-- Start Search Box Modal -->\\r\\n<div class="search-wrap hiden-load"  style="display: none;">\\r\\n    <div class="search">\\r\\n        <button type="button" class="close">\\xc3\\x97</button>\\r\\n        <form>\\r\\n            <input type="search" value="" class="form-control" placeholder="Type Here..." />\\r\\n            <button type="submit" class="default-btn">\\r\\n                Search\\r\\n            </button>\\r\\n        </form>\\r\\n    </div>\\r\\n</div>\\r\\n<!-- End Search Box Modal -->\\r\\n\\r\\n\\r\\n\', escape=False)\nresponse.write(\'\\r\\n    <!-- End Search Box Modal -->\\r\\n\\r\\n    <div>\\r\\n        \', escape=False)\nresponse.write(\'\\r\\n\', escape=False)\npage_title = \'Gi\xe1\xbb\x9bi thi\xe1\xbb\x87u\'\nresponse.write(\'\\r\\n\', escape=False)\nresponse.write(\'<!-- Start Page Title Area -->\\r\\n<div class="page-title-area item-bg-1 jarallax" data-jarallax=\\\'{"speed": 0.3}\\\'>\\r\\n    <div class="container">\\r\\n        <div class="page-title-content">\\r\\n            <div class="row align-items-center">\\r\\n                <div class="col-lg-6 col-sm-6">\\r\\n                    <h2>\', escape=False)\nresponse.write(page_title)\nresponse.write(\'</h2>\\r\\n                </div>\\r\\n                <div class="col-lg-6 col-sm-6">\\r\\n                    <ul>\\r\\n                        <li>\\r\\n                            <a href="/">\\r\\n                                Trang ch\\xe1\\xbb\\xa7\\r\\n                            </a>\\r\\n                        </li>\\r\\n                        <li>\', escape=False)\nresponse.write(page_title)\nresponse.write(\'</li>\\r\\n                    </ul>\\r\\n                </div>\\r\\n            </div>\\r\\n        </div>\\r\\n    </div>\\r\\n</div>\\r\\n<!-- End Page Title Area -->\', escape=False)\nresponse.write(\'\\r\\n\\r\\n\\r\\n<!-- Start About Area -->\\r\\n<section class="about-area ptb-100">\\r\\n    <div class="container">\\r\\n        <div class="row align-items-center">\\r\\n            <div class="col-lg-6">\\r\\n                <div class="about-img" style="position: relative;">\\r\\n                    <img src="\', escape=False)\nresponse.write(URL(\'static\',\'%s/img\')%(static_default))\nresponse.write(\'/about-img.jpg" alt="Image">\\r\\n                     <a class="white video-btn popup-youtube" href="\', escape=False)\nresponse.write(data[\'video\'])\nresponse.write(\'" style=" position: absolute;\\r\\n    top: 50%;\\r\\n    left: 45%;\\r\\n    transform: translate(-50%, -50%);\\r\\n    ">\\r\\n                    <div class="about-quatre">\\r\\n                        <i class="bx bxs-quote-alt-left bx-tada"></i>\\r\\n                    </div>\\r\\n                </div>\\r\\n            </div>\\r\\n            <div class="col-lg-6">\\r\\n                <div class="about-content ml-30">\\r\\n                    <span>Gi\\xe1\\xbb\\x9bi thi\\xe1\\xbb\\x87u</span>\\r\\n                    <h2>C\\xc3\\xa1c gi\\xe1\\xba\\xa3i ph\\xc3\\xa1p h\\xe1\\xba\\xadu c\\xe1\\xba\\xa7n v\\xc3\\xa0 v\\xe1\\xba\\xadn chuy\\xe1\\xbb\\x83n \\xc4\\x91\\xc3\\xa1ng tin c\\xe1\\xba\\xady v\\xc3\\xa0 nhanh ch\\xc3\\xb3ng Kh\\xc3\\xb4ng l\\xc3\\xa3ng ph\\xc3\\xad th\\xe1\\xbb\\x9di gian c\\xe1\\xbb\\xa7a b\\xe1\\xba\\xa1n!</h2>\\r\\n                    <p class="mb-0" style="text-align: justify;">\\r\\n                        Nh\\xe1\\xba\\xadn th\\xe1\\xba\\xa5y quy tr\\xc3\\xacnh \\xc4\\x91\\xe1\\xba\\xb7t giao h\\xc3\\xa0ng th\\xc3\\xb4ng qua t\\xe1\\xbb\\x95ng \\xc4\\x91\\xc3\\xa0i trung t\\xc3\\xa2m c\\xc3\\xb3 ph\\xe1\\xbb\\xa9c t\\xe1\\xba\\xa1p v\\xc3\\xa0 th\\xe1\\xbb\\xa7 c\\xc3\\xb4ng, c\\xc3\\xb9ng v\\xe1\\xbb\\x9bi s\\xe1\\xbb\\xb1 thi\\xe1\\xba\\xbfu minh b\\xe1\\xba\\xa1ch v\\xe1\\xbb\\x81 gi\\xc3\\xa1 c\\xe1\\xba\\xa3 v\\xc3\\xa0 ch\\xe1\\xba\\xa5t l\\xc6\\xb0\\xe1\\xbb\\xa3ng, m\\xe1\\xbb\\x99t\\r\\n                        nh\\xc3\\xb3m chuy\\xc3\\xaan gia \\xc4\\x91\\xc3\\xa3 c\\xc3\\xb9ng nhau t\\xc3\\xacm ra gi\\xe1\\xba\\xa3i ph\\xc3\\xa1p.\\r\\n                    <br>\\r\\n                    Ghephang ra \\xc4\\x91\\xe1\\xbb\\x9di v\\xe1\\xbb\\x9bi m\\xe1\\xbb\\xa5c ti\\xc3\\xaau gi\\xc3\\xbap m\\xe1\\xbb\\x8di ng\\xc6\\xb0\\xe1\\xbb\\x9di c\\xc3\\xb3 th\\xe1\\xbb\\x83 \\xc4\\x91\\xe1\\xba\\xb7t giao h\\xc3\\xa0ng theo y\\xc3\\xaau c\\xe1\\xba\\xa7u ch\\xe1\\xbb\\x89 v\\xe1\\xbb\\x9bi m\\xe1\\xbb\\x99t c\\xc3\\xba ch\\xe1\\xba\\xa1m. Qua \\xe1\\xbb\\xa9ng d\\xe1\\xbb\\xa5ng duy nh\\xe1\\xba\\xa5t, ng\\xc6\\xb0\\xe1\\xbb\\x9di d\\xc3\\xb9ng c\\xc3\\xb3 th\\xe1\\xbb\\x83 ti\\xe1\\xba\\xbfp c\\xe1\\xba\\xadn v\\xe1\\xbb\\x9bi nhi\\xe1\\xbb\\x81u ph\\xc6\\xb0\\xc6\\xa1ng ti\\xe1\\xbb\\x87n giao h\\xc3\\xa0ng ph\\xc3\\xb9 h\\xe1\\xbb\\xa3p do c\\xc3\\xa1c t\\xc3\\xa0i x\\xe1\\xba\\xbf chuy\\xc3\\xaan nghi\\xe1\\xbb\\x87p \\xc4\\x91\\xe1\\xba\\xa3m nh\\xe1\\xba\\xadn.\\r\\n                    <br>\\r\\n                    Ch\\xe1\\xbb\\x89 c\\xe1\\xba\\xa7n nh\\xe1\\xba\\xadp \\xc4\\x91\\xe1\\xbb\\x8ba \\xc4\\x91i\\xe1\\xbb\\x83m nh\\xe1\\xba\\xadn v\\xc3\\xa0 tr\\xe1\\xba\\xa3 h\\xc3\\xa0ng, l\\xe1\\xbb\\xb1a ch\\xe1\\xbb\\x8dn lo\\xe1\\xba\\xa1i xe ph\\xc3\\xb9 h\\xe1\\xbb\\xa3p v\\xe1\\xbb\\x9bi nhu c\\xe1\\xba\\xa7u, b\\xe1\\xba\\xa1n c\\xc3\\xb3 th\\xe1\\xbb\\x83 nhanh ch\\xc3\\xb3ng k\\xe1\\xba\\xbft n\\xe1\\xbb\\x91i v\\xe1\\xbb\\x9bi t\\xc3\\xa0i x\\xe1\\xba\\xbf g\\xe1\\xba\\xa7n nh\\xe1\\xba\\xa5t s\\xe1\\xba\\xb5n s\\xc3\\xa0ng nh\\xe1\\xba\\xadn giao \\xc4\\x91\\xc6\\xa1n h\\xc3\\xa0ng c\\xe1\\xbb\\xa7a b\\xe1\\xba\\xa1n ngay l\\xe1\\xba\\xadp t\\xe1\\xbb\\xa9c\\r\\n                    <br/>\\r\\n                    \\xe1\\xbb\\xa8ng d\\xe1\\xbb\\xa5ng GHEPHANG gi\\xc3\\xbap b\\xe1\\xba\\xa1n theo d\\xc3\\xb5i to\\xc3\\xa0n b\\xe1\\xbb\\x99 qu\\xc3\\xa1 tr\\xc3\\xacnh giao h\\xc3\\xa0ng t\\xe1\\xbb\\xab khi nh\\xe1\\xba\\xadn h\\xc3\\xa0ng \\xc4\\x91\\xe1\\xba\\xbfn khi ho\\xc3\\xa0n th\\xc3\\xa0nh \\xc4\\x91\\xc6\\xa1n h\\xc3\\xa0ng m\\xe1\\xbb\\x99t c\\xc3\\xa1ch d\\xe1\\xbb\\x85 d\\xc3\\xa0ng. B\\xe1\\xba\\xa1n c\\xc3\\xb3 th\\xe1\\xbb\\x83 theo d\\xc3\\xb5i tr\\xe1\\xbb\\xb1c ti\\xe1\\xba\\xbfp \\xc4\\x91\\xc6\\xa1n h\\xc3\\xa0ng, l\\xe1\\xbb\\xb1a ch\\xe1\\xbb\\x8dn thanh to\\xc3\\xa1n qua v\\xc3\\xad \\xc4\\x91i\\xe1\\xbb\\x87n t\\xe1\\xbb\\xad v\\xc3\\xa0 xem l\\xe1\\xba\\xa1i l\\xe1\\xbb\\x8bch s\\xe1\\xbb\\xad giao h\\xc3\\xa0ng, t\\xe1\\xba\\xa5t c\\xe1\\xba\\xa3 trong m\\xe1\\xbb\\x99t \\xe1\\xbb\\xa9ng d\\xe1\\xbb\\xa5ng duy nh\\xe1\\xba\\xa5t\\r\\n                   </p>\\r\\n                </div>\\r\\n            </div>\\r\\n        </div>\\r\\n    </div>\\r\\n</section>\\r\\n<!-- End About Area -->\\r\\n\\r\\n<!-- Start Why Choose Us Area -->\\r\\n<section class="choose-us-area pb-100">\\r\\n    <div class="container">\\r\\n        <div class="section-title">\\r\\n            <span>T\\xe1\\xba\\xa1i sao n\\xc3\\xaan l\\xe1\\xbb\\xb1a ch\\xe1\\xbb\\x8dn ch\\xc3\\xbang t\\xc3\\xb4i</span>\\r\\n            <h2>Mang gi\\xe1\\xba\\xa3i ph\\xc3\\xa1p v\\xe1\\xba\\xadn chuy\\xe1\\xbb\\x83n hi\\xe1\\xbb\\x87u qu\\xe1\\xba\\xa3 cho b\\xe1\\xba\\xa1n</h2>\\r\\n        </div>\\r\\n        <div class="row">\\r\\n            <div class="col-lg-7 pr-0">\\r\\n                <div class="choose-tab-wrap">\\r\\n                    <h2>T\\xe1\\xba\\xa1i sao C\\xc3\\xb4ng ty ch\\xc3\\xbang t\\xc3\\xb4i l\\xc3\\xa0 t\\xe1\\xbb\\x91t nh\\xe1\\xba\\xa5t</h2>\\r\\n                    <div class="tab quote-list-tab choose-tab">\\r\\n                        <ul class="tabs">\\r\\n                            <li>\\r\\n                                <a href="#">\\r\\n                                    S\\xe1\\xbb\\xa9 m\\xe1\\xbb\\x87nh\\r\\n                                </a>\\r\\n                            </li>\\r\\n                            <li>\\r\\n                                <a href="#">\\r\\n                                    T\\xe1\\xba\\xa7m nh\\xc3\\xacn\\r\\n                                </a>\\r\\n                            </li>\\r\\n                            <li>\\r\\n                                <a href="#">\\r\\n                                    M\\xe1\\xbb\\xa5c ti\\xc3\\xaau\\r\\n                                </a>\\r\\n                            </li>\\r\\n                        </ul>\\r\\n                        <div class="tab_content">\\r\\n                            <div class="tabs_item">\\r\\n                                <p><b>S\\xe1\\xbb\\xa9 m\\xe1\\xbb\\x87nh</b>\\r\\n                                c\\xe1\\xbb\\xa7a ch\\xc3\\xbang t\\xc3\\xb4i l\\xc3\\xa0 mang \\xc4\\x91\\xe1\\xba\\xbfn cho m\\xe1\\xbb\\x8di ng\\xc6\\xb0\\xe1\\xbb\\x9di, b\\xe1\\xba\\xa5t k\\xe1\\xbb\\x83 n\\xc6\\xa1i n\\xc3\\xa0o h\\xe1\\xbb\\x8d c\\xc3\\xb3 m\\xe1\\xba\\xb7t, c\\xc6\\xa1 h\\xe1\\xbb\\x99i tham gia kinh doanh\\r\\n                                tr\\xe1\\xbb\\xb1c tuy\\xe1\\xba\\xbfn ch\\xe1\\xbb\\x89 v\\xe1\\xbb\\x9bi m\\xe1\\xbb\\x99t chi\\xe1\\xba\\xbfc \\xc4\\x91i\\xe1\\xbb\\x87n tho\\xe1\\xba\\xa1i di \\xc4\\x91\\xe1\\xbb\\x99ng. Ch\\xc3\\xbang t\\xc3\\xb4i tin r\\xe1\\xba\\xb1ng b\\xe1\\xba\\xb1ng c\\xc3\\xa1ch n\\xc3\\xa0y, m\\xe1\\xbb\\x8di ng\\xc6\\xb0\\xe1\\xbb\\x9di c\\xc3\\xb3 th\\xe1\\xbb\\x83 nu\\xc3\\xb4i\\r\\n                                d\\xc6\\xb0\\xe1\\xbb\\xa1ng \\xc6\\xb0\\xe1\\xbb\\x9bc m\\xc6\\xa1 t\\xe1\\xbb\\xb1 doanh, t\\xe1\\xbb\\xb1 l\\xe1\\xba\\xadp v\\xc3\\xa0 thay \\xc4\\x91\\xe1\\xbb\\x95i cu\\xe1\\xbb\\x99c s\\xe1\\xbb\\x91ng c\\xe1\\xbb\\xa7a m\\xc3\\xacnh</p>\\r\\n                                <a class="default-btn" href="about-us.html">\\r\\n                                    Xem th\\xc3\\xaam\\r\\n                                </a>\\r\\n                            </div>\\r\\n\\r\\n                            <div class="tabs_item">\\r\\n                                <p><b>T\\xe1\\xba\\xa7m nh\\xc3\\xacn:</b> Ch\\xc3\\xbang t\\xc3\\xb4i t\\xe1\\xba\\xadp trung v\\xc3\\xa0o s\\xe1\\xbb\\xb1 ti\\xc3\\xaan phong trong s\\xe1\\xbb\\xad d\\xe1\\xbb\\xa5ng c\\xc3\\xb4ng ngh\\xe1\\xbb\\x87, v\\xc3\\xa0 kh\\xc3\\xa1ch h\\xc3\\xa0ng l\\xc3\\xa0 tr\\xe1\\xbb\\x8dng t\\xc3\\xa2m c\\xe1\\xbb\\xa7ach\\xc3\\xbang t\\xc3\\xb4i.\\r\\n                                    Ch\\xc3\\xbang t\\xc3\\xb4i \\xc4\\x91\\xe1\\xba\\xb7t m\\xe1\\xbb\\xa5c ti\\xc3\\xaau l\\xc3\\xa0 \\xc3\\xa1p d\\xe1\\xbb\\xa5ng s\\xc3\\xa2u r\\xe1\\xbb\\x99ng c\\xc3\\xa1c c\\xc3\\xb4ng ngh\\xe1\\xbb\\x87 ti\\xc3\\xaan ti\\xe1\\xba\\xbfn v\\xc3\\xa0 khai th\\xc3\\xa1c d\\xe1\\xbb\\xaf li\\xe1\\xbb\\x87u \\xc4\\x91\\xe1\\xbb\\x83 t\\xe1\\xba\\xa1o ra ph\\xc6\\xb0\\xc6\\xa1ng\\r\\n                                    th\\xe1\\xbb\\xa9c v\\xe1\\xba\\xadn h\\xc3\\xa0nh ti\\xe1\\xba\\xbft ki\\xe1\\xbb\\x87m v\\xc3\\xa0 hi\\xe1\\xbb\\x87u qu\\xe1\\xba\\xa3 cao cho kh\\xc3\\xa1ch h\\xc3\\xa0ng. Ghephang.com s\\xe1\\xba\\xbd l\\xc3\\xa0 m\\xe1\\xbb\\x99t n\\xe1\\xbb\\x81n t\\xe1\\xba\\xa3ng h\\xe1\\xba\\xadu c\\xe1\\xba\\xa7n \\xc4\\x91\\xc3\\xa1ng\\r\\n                                    tin c\\xe1\\xba\\xady, s\\xe1\\xbb\\xad d\\xe1\\xbb\\xa5ng tr\\xc3\\xad tu\\xe1\\xbb\\x87 nh\\xc3\\xa2n t\\xe1\\xba\\xa1o v\\xc3\\xa0 h\\xe1\\xbb\\x8dc m\\xc3\\xa1y \\xc4\\x91\\xe1\\xbb\\x83 t\\xe1\\xbb\\x91i \\xc6\\xb0u quy tr\\xc3\\xacnh h\\xe1\\xba\\xadu c\\xe1\\xba\\xa7n v\\xc3\\xa0 cung c\\xe1\\xba\\xa5p d\\xe1\\xbb\\x8bch v\\xe1\\xbb\\xa5 ch\\xe1\\xba\\xa5t l\\xc6\\xb0\\xe1\\xbb\\xa3ng.\\r\\n                                    </p>\\r\\n                                <a class="default-btn" href="about-us.html">\\r\\n                                    Xem th\\xc3\\xaam\\r\\n                                </a>\\r\\n                            </div>\\r\\n\\r\\n                            <div class="tabs_item">\\r\\n                                <p><b>M\\xe1\\xbb\\xa5c ti\\xc3\\xaau:</b> th\\xc6\\xb0\\xc6\\xa1ng hi\\xe1\\xbb\\x87u chuy\\xe1\\xbb\\x83n gh\\xc3\\xa9p h\\xc3\\xa0ng uy t\\xc3\\xadn v\\xc3\\xa0 ph\\xe1\\xbb\\xa7 kh\\xe1\\xba\\xafp Vi\\xe1\\xbb\\x87t Nam</p>\\r\\n                                <a class="default-btn" href="about-us.html">\\r\\n                                    Xem th\\xc3\\xaam\\r\\n                                </a>\\r\\n                            </div>\\r\\n                        </div>\\r\\n                    </div>\\r\\n                </div>\\r\\n            </div>\\r\\n            <div class="col-lg-5 pl-0">\\r\\n                <div class="choose-img choose-img-four">\\r\\n                </div>\\r\\n            </div>\\r\\n        </div>\\r\\n    </div>\\r\\n</section>\\r\\n<!-- End Why Choose Us Area -->\\r\\n\\r\\n<!-- End Began Area -->\\r\\n\', escape=False)\nresponse.write(\'<!-- End Began Area -->\\n<section class="began-area began-area-three began-area-four">\\n    <div class="container-fluid p-0">\\n        <div class="began-top-wrap">\\n            <div class="row">\\n                <div class="col-lg-5 pr-0">\\n                    <div class="begans-bg">\\n                    </div>\\n                </div>\\n                <div class="col-lg-7 pl-0">\\n                    <div class="began-wrap">\\n                        <h2>Gi\\xe1\\xbb\\xaf an to\\xc3\\xa0n cho h\\xc3\\xa0ng h\\xc3\\xb3a c\\xe1\\xbb\\xa7a b\\xe1\\xba\\xa1n v\\xe1\\xbb\\x9bi Ghephang</h2>\\n                        <div class="row">\\n                            <div class="col-lg-4 col-sm-6 p-0">\\n                                <div class="single-began">\\n                                    <i class="flaticon-fast-delivery"></i>\\n                                    <h3>Giao h\\xc3\\xa0ng nhanh v\\xc3\\xa0 hi\\xe1\\xbb\\x87u qu\\xe1\\xba\\xa3</h3>\\n                                </div>\\n                            </div>\\n                            <div class="col-lg-4 col-sm-6 p-0">\\n                                <div class="single-began">\\n                                    <i class="flaticon-lock"></i>\\n                                    <h3>B\\xe1\\xba\\xa3o hi\\xe1\\xbb\\x83m cho ph\\xc6\\xb0\\xc6\\xa1ng ti\\xe1\\xbb\\x87n v\\xe1\\xba\\xadn chuy\\xe1\\xbb\\x83n</h3>\\n                                </div>\\n                            </div>\\n                            <div class="col-lg-4 col-sm-6 p-0">\\n                                <div class="single-began">\\n                                    <i class="flaticon-stopwatch"></i>\\n                                    <h3>Theo d\\xc3\\xb5i th\\xe1\\xbb\\x9di gian th\\xe1\\xbb\\xb1c</h3>\\n                                </div>\\n                            </div>\\n                            <div class="col-lg-4 col-sm-6 p-0">\\n                                <div class="single-began">\\n                                    <i class="flaticon-payment-method"></i>\\n                                    <h3>Ph\\xc6\\xb0\\xc6\\xa1ng th\\xe1\\xbb\\xa9c thanh to\\xc3\\xa1n d\\xe1\\xbb\\x85 d\\xc3\\xa0ng</h3>\\n                                </div>\\n                            </div>\\n                            <div class="col-lg-4 col-sm-6 p-0">\\n                                <div class="single-began">\\n                                    <i class="flaticon-warehouse"></i>\\n                                    <h3>H\\xe1\\xbb\\x97 tr\\xe1\\xbb\\xa3 24/7</h3>\\n                                </div>\\n                            </div>\\n                            <div class="col-lg-4 col-sm-6 p-0">\\n                                <div class="single-began">\\n                                    <i class="flaticon-distribution"></i>\\n                                    <h3>Kho l\\xc6\\xb0u tr\\xe1\\xbb\\xaf an to\\xc3\\xa0n</h3>\\n                                </div>\\n                            </div>\\n                        </div>\\n                    </div>\\n                </div>\\n            </div>\\n        </div>\\n    </div>\\n</section>\\n<!-- End Began Area -->\', escape=False)\nresponse.write(\'\\r\\n<!-- End Began Area -->\\r\\n\\r\\n<!-- Start Team Area -->\\r\\n<!--\\r\\n<section class="team-area pt-100 pb-70">\\r\\n    <div class="container">\\r\\n        <div class="section-title">\\r\\n            <span>\\xc4\\x90\\xe1\\xbb\\x99i ng\\xc5\\xa9 chuy\\xc3\\xaan gia</span>\\r\\n            <h2>\\xc4\\x90\\xe1\\xbb\\x99i ng\\xc5\\xa9 chuy\\xc3\\xaan gia h\\xe1\\xbb\\x97 tr\\xe1\\xbb\\xa3 c\\xe1\\xbb\\xa7a ch\\xc3\\xbang t\\xc3\\xb4i \\xc4\\x91\\xe1\\xba\\xa7y \\xc4\\x91\\xe1\\xbb\\xa7 k\\xe1\\xbb\\xb9 n\\xc4\\x83ng v\\xc3\\xa0 kinh nghi\\xe1\\xbb\\x87m</h2>\\r\\n            <ul>\\r\\n                <li>Chuy\\xc3\\xaan gia Tr\\xe1\\xba\\xa7n v\\xc4\\x83n A \\xe2\\x80\\x93 Chuy\\xc3\\xaan m\\xc3\\xb4n System & Network</li>\\r\\n                <li>Chuy\\xc3\\xaan gia Tr\\xe1\\xba\\xa7n v\\xc4\\x83n B \\xe2\\x80\\x93 Chuy\\xc3\\xaan m\\xc3\\xb4n Application high performance</li>\\r\\n                <li>Chuy\\xc3\\xaan gia Tr\\xe1\\xba\\xa7n v\\xc4\\x83n C \\xe2\\x80\\x93 Chuy\\xc3\\xaan m\\xc3\\xb4n iOS &Android High performance mobile</li>\\r\\n                <li>Chuy\\xc3\\xaan gia Tr\\xe1\\xba\\xa7n v\\xc4\\x83n D \\xe2\\x80\\x93 Chuy\\xc3\\xaan m\\xc3\\xb4n Security</li>\\r\\n            </ul>\\r\\n        </div>\\r\\n        <div class="row">\\r\\n            <div class="col-lg-3 col-sm-6">\\r\\n                <div class="single-team">\\r\\n                    <img src="\', escape=False)\nresponse.write(URL(\'static\',\'%s/img\')%(static_default))\nresponse.write(\'/team/1.jpg" alt="Image">\\r\\n                    <div class="team-content">\\r\\n                        <h3>Jonkin Jullinor</h3>\\r\\n                        <span>Product supplier</span>\\r\\n                    </div>\\r\\n                    <ul>\\r\\n                        <li>\\r\\n                            <a href="#">\\r\\n                                <i class="bx bxl-facebook"></i>\\r\\n                            </a>\\r\\n                        </li>\\r\\n                        <li>\\r\\n                            <a href="#">\\r\\n                                <i class="bx bxl-twitter"></i>\\r\\n                            </a>\\r\\n                        </li>\\r\\n                        <li>\\r\\n                            <a href="#">\\r\\n                                <i class="bx bxl-instagram"></i>\\r\\n                            </a>\\r\\n                        </li>\\r\\n                        <li>\\r\\n                            <a href="#">\\r\\n                                <i class="bx bxl-linkedin"></i>\\r\\n                            </a>\\r\\n                        </li>\\r\\n                    </ul>\\r\\n                </div>\\r\\n            </div>\\r\\n            <div class="col-lg-3 col-sm-6">\\r\\n                <div class="single-team">\\r\\n                    <img src="\', escape=False)\nresponse.write(URL(\'static\',\'%s/img\')%(static_default))\nresponse.write(\'/team/2.jpg" alt="Image">\\r\\n                    <div class="team-content">\\r\\n                        <h3>Naimuk Waninolin</h3>\\r\\n                        <span>Office executive support</span>\\r\\n                    </div>\\r\\n                    <ul>\\r\\n                        <li>\\r\\n                            <a href="#">\\r\\n                                <i class="bx bxl-facebook"></i>\\r\\n                            </a>\\r\\n                        </li>\\r\\n                        <li>\\r\\n                            <a href="#">\\r\\n                                <i class="bx bxl-twitter"></i>\\r\\n                            </a>\\r\\n                        </li>\\r\\n                        <li>\\r\\n                            <a href="#">\\r\\n                                <i class="bx bxl-instagram"></i>\\r\\n                            </a>\\r\\n                        </li>\\r\\n                        <li>\\r\\n                            <a href="#">\\r\\n                                <i class="bx bxl-linkedin"></i>\\r\\n                            </a>\\r\\n                        </li>\\r\\n                    </ul>\\r\\n                </div>\\r\\n            </div>\\r\\n            <div class="col-lg-3 col-sm-6">\\r\\n                <div class="single-team">\\r\\n                    <img src="\', escape=False)\nresponse.write(URL(\'static\',\'%s/img\')%(static_default))\nresponse.write(\'/team/3.jpg" alt="Image">\\r\\n                    <div class="team-content">\\r\\n                        <h3>Moris Julfikar</h3>\\r\\n                        <span>Regional supplier</span>\\r\\n                    </div>\\r\\n                    <ul>\\r\\n                        <li>\\r\\n                            <a href="#">\\r\\n                                <i class="bx bxl-facebook"></i>\\r\\n                            </a>\\r\\n                        </li>\\r\\n                        <li>\\r\\n                            <a href="#">\\r\\n                                <i class="bx bxl-twitter"></i>\\r\\n                            </a>\\r\\n                        </li>\\r\\n                        <li>\\r\\n                            <a href="#">\\r\\n                                <i class="bx bxl-instagram"></i>\\r\\n                            </a>\\r\\n                        </li>\\r\\n                        <li>\\r\\n                            <a href="#">\\r\\n                                <i class="bx bxl-linkedin"></i>\\r\\n                            </a>\\r\\n                        </li>\\r\\n                    </ul>\\r\\n                </div>\\r\\n            </div>\\r\\n            <div class="col-lg-3 col-sm-6">\\r\\n                <div class="single-team">\\r\\n                    <img src="\', escape=False)\nresponse.write(URL(\'static\',\'%s/img\')%(static_default))\nresponse.write(\'/team/4.jpg" alt="Image">\\r\\n                    <div class="team-content">\\r\\n                        <h3>Waxin Alexgander</h3>\\r\\n                        <span>International supplier</span>\\r\\n                    </div>\\r\\n                    <ul>\\r\\n                        <li>\\r\\n                            <a href="#">\\r\\n                                <i class="bx bxl-facebook"></i>\\r\\n                            </a>\\r\\n                        </li>\\r\\n                        <li>\\r\\n                            <a href="#">\\r\\n                                <i class="bx bxl-twitter"></i>\\r\\n                            </a>\\r\\n                        </li>\\r\\n                        <li>\\r\\n                            <a href="#">\\r\\n                                <i class="bx bxl-instagram"></i>\\r\\n                            </a>\\r\\n                        </li>\\r\\n                        <li>\\r\\n                            <a href="#">\\r\\n                                <i class="bx bxl-linkedin"></i>\\r\\n                            </a>\\r\\n                        </li>\\r\\n                    </ul>\\r\\n                </div>\\r\\n            </div>\\r\\n        </div>\\r\\n    </div>\\r\\n</section>\\r\\n-->\\r\\n<!-- End Team Area -->\\r\\n\\r\\n<!-- start Service Area -->\\r\\n<section class="service-area pb-100">\\r\\n    <div class="container">\\r\\n        <div class="section-title">\\r\\n            <span>Ghephang.com \\xe1\\xbb\\xa9ng d\\xe1\\xbb\\xa5ng giao h\\xc3\\xa0ng c\\xe1\\xbb\\xa7a ri\\xc3\\xaang b\\xe1\\xba\\xa1n!</span>\\r\\n            <h2>Gi\\xe1\\xba\\xa3i ph\\xc3\\xa1p ho\\xc3\\xa0n h\\xe1\\xba\\xa3o cho m\\xe1\\xbb\\x8di nhu c\\xe1\\xba\\xa7u giao h\\xc3\\xa0ng, nh\\xe1\\xbb\\x9d v\\xc3\\xa0o c\\xc3\\xb4ng ngh\\xe1\\xbb\\x87 \\xc4\\x91\\xe1\\xbb\\x99t ph\\xc3\\xa1 \\xc4\\x91\\xc6\\xb0\\xe1\\xbb\\xa3c t\\xc3\\xadch\\r\\n                h\\xe1\\xbb\\xa3p trong m\\xe1\\xbb\\x99t \\xe1\\xbb\\xa9ng d\\xe1\\xbb\\xa5ng duy nh\\xe1\\xba\\xa5t.\\r\\n                </h2>\\r\\n        </div>\\r\\n        <div class="row">\\r\\n            <div class="col-lg-4 col-sm-6">\\r\\n                <div class="single-service">\\r\\n                    <div class="service-content-wrap">\\r\\n                        <i class="icon flaticon-home"></i>\\r\\n                        <h3>Ghephangnhanh</h3>\\r\\n                        <p>D\\xe1\\xbb\\x8bch v\\xe1\\xbb\\xa5 nhanh</p>\\r\\n                    </div>\\r\\n                    <div class="service-heading">\\r\\n                        <a class="circle-read-more" href="#">\\r\\n                            <h3>Ghephangnhanh</h3>\\r\\n                            <i class="flaticon-right-1"></i>\\r\\n                        </a>\\r\\n                    </div>\\r\\n                </div>\\r\\n            </div>\\r\\n            <div class="col-lg-4 col-sm-6">\\r\\n                <div class="single-service">\\r\\n                    <div class="service-content-wrap">\\r\\n                        <i class="icon flaticon-package"></i>\\r\\n                        <h3>Ghephangsuper</h3>\\r\\n                        <p>Si\\xc3\\xaau d\\xe1\\xbb\\x8bch v\\xe1\\xbb\\xa5</p>\\r\\n                    </div>\\r\\n                    <div class="service-heading">\\r\\n                        <a class="circle-read-more" href="#">\\r\\n                            <h3>Ghephangsuper</h3>\\r\\n                            <i class="flaticon-right-1"></i>\\r\\n                        </a>\\r\\n                    </div>\\r\\n                </div>\\r\\n            </div>\\r\\n            <div class="col-lg-4 col-sm-6 offset-sm-3 offset-lg-0">\\r\\n                <div class="single-service">\\r\\n                    <div class="service-content-wrap">\\r\\n                        <i class="icon flaticon-server"></i>\\r\\n                        <h3>Ghephang fresh</h3>\\r\\n                        <p>Giao h\\xc3\\xa0ng t\\xc6\\xb0\\xc6\\xa1i s\\xe1\\xbb\\x91ng</p>\\r\\n                    </div>\\r\\n                    <div class="service-heading">\\r\\n                        <a class="circle-read-more" href="#">\\r\\n                            <h3>Ghephang fresh</h3>\\r\\n                            <i class="flaticon-right-1"></i>\\r\\n                        </a>\\r\\n                    </div>\\r\\n                </div>\\r\\n            </div>\\r\\n            <div class="col-12">\\r\\n                <div class="service-all text-center">\\r\\n                    <p>B\\xe1\\xba\\xa1n c\\xc3\\xb3 th\\xe1\\xbb\\x83 <a href="#">l\\xc3\\xaan l\\xe1\\xbb\\x8bch h\\xe1\\xba\\xb9n</a> \\xc4\\x91\\xe1\\xbb\\x83 \\xc4\\x91\\xc6\\xb0\\xe1\\xbb\\xa3c li\\xc3\\xaan l\\xe1\\xba\\xa1c\\r\\n                    </p>\\r\\n                </div>\\r\\n            </div>\\r\\n        </div>\\r\\n    </div>\\r\\n</section>\\r\\n<!-- End Service Area -->\\r\\n\\r\\n\', escape=False)\nresponse.write(\'\\r\\n    </div>\\r\\n\\r\\n    \', escape=False)\nresponse.write(\'\\r\\n    \', escape=False)\n#include \'site/ghephang/default/component/subscribe.html\'\nresponse.write(\'\\r\\n\', escape=False)\nresponse.write(\'\\r\\n\\r\\n    \', escape=False)\nresponse.write(\'<footer class="footer-top-area pt-100 pb-70 bg-f7f7f7">\\r\\n    <div class="container">\\r\\n        <div class="row">\\r\\n            <div class="col-lg-3 col-md-6">\\r\\n                 \', escape=False)\nresponse.write(portlet.display(116))\nresponse.write(\'\\r\\n            </div>\\r\\n            <div class="col-lg-3 col-md-6">\\r\\n                 \', escape=False)\nresponse.write(portlet.display(166))\nresponse.write(\'\\r\\n            </div>\\r\\n            <div class="col-lg-3 col-md-6">\\r\\n                 \', escape=False)\nresponse.write(portlet.display(118))\nresponse.write(\'\\r\\n            </div>\\r\\n            <div class="col-lg-3 col-md-6">\\r\\n                <div class="single-widget">\\r\\n                    <h3>Theo d\\xc3\\xb5i ch\\xc3\\xbang t\\xc3\\xb4i </h3>\\r\\n                    <div id="fb-root"></div>\\r\\n                    <script>(function (d, s, id) {\\r\\n                            var js, fjs = d.getElementsByTagName(s)[0];\\r\\n                            if (d.getElementById(id)) return;\\r\\n                            js = d.createElement(s); js.id = id;\\r\\n                            js.src = "//connect.facebook.net/vi_VN/sdk.js#xfbml=1&version=v2.6&appId=215619355450603";\\r\\n                            fjs.parentNode.insertBefore(js, fjs);\\r\\n                        }(document, \\\'script\\\', \\\'facebook-jssdk\\\'));</script>\\r\\n\\r\\n                    <div style="margin-top: 12px;" class="fb-page" data-href="https://www.facebook.com/Ghephangcom" data-small-header="false"\\r\\n                        data-adapt-container-width="true" data-hide-cover="false" data-show-facepile="true"></div>\\r\\n                    <p></p>\\r\\n                    <ul class="social-link">\\r\\n                        \', escape=False)\nresponse.write(\'<li>\\r\\n    <a href="#">\\r\\n        <i class=\\\'bx bxl-twitter\\\'></i>\\r\\n    </a>\\r\\n</li>\\r\\n<li>\\r\\n    <a href="#">\\r\\n        <i class=\\\'bx bxl-facebook\\\'></i>\\r\\n    </a>\\r\\n</li>\\r\\n<li>\\r\\n    <a href="#">\\r\\n        <i class=\\\'bx bxl-instagram\\\'></i>\\r\\n    </a>\\r\\n</li>\\r\\n<li>\\r\\n    <a href="#">\\r\\n        <i class=\\\'bx bxl-linkedin\\\'></i>\\r\\n    </a>\\r\\n</li>\\r\\n\', escape=False)\nresponse.write(\'\\r\\n                    </ul>\\r\\n                </div>\\r\\n            </div>\\r\\n        </div>\\r\\n        <hr/>\\r\\n        <div class="row">\\r\\n            \', escape=False)\nresponse.write(portlet.display(163))\nresponse.write(\'\\r\\n        </div>\\r\\n    </div>\\r\\n    <div class="lines">\\r\\n        <div class="line"></div>\\r\\n        <div class="line"></div>\\r\\n        <div class="line"></div>\\r\\n        <div class="line"></div>\\r\\n    </div>\\r\\n</footer>\', escape=False)\nresponse.write(\'\\r\\n    <!-- Start Footer Bottom Area -->\\r\\n    <footer class="footer-bottom-area footer-bottom-area-four">\\r\\n        <div class="container">\\r\\n            <div class="row align-items-center">\\r\\n                <div class="col-lg-6">\\r\\n                    <div class="single-widget-bottom">\\r\\n                        <ul>\\r\\n                            <li>\\r\\n                                <a href="#">\\xc4\\x90i\\xe1\\xbb\\x81u kho\\xe1\\xba\\xa3n v\\xc3\\xa0 \\xc4\\x91i\\xe1\\xbb\\x81u ki\\xe1\\xbb\\x87n</a>\\r\\n                            </li>\\r\\n                            <li>\\r\\n                                <a href="#">Ch\\xc3\\xadnh s\\xc3\\xa1ch b\\xe1\\xba\\xa3o m\\xe1\\xba\\xadt</a>\\r\\n                            </li>\\r\\n                            <li>\\r\\n                                <a href="#">\\xc4\\x90\\xc4\\x83ng nh\\xe1\\xba\\xadp</a>\\r\\n                            </li>\\r\\n                        </ul>\\r\\n                    </div>\\r\\n                </div>\\r\\n                <div class="col-lg-6">\\r\\n                    <div class="single-widget-bottom">\\r\\n                        <p>Copyright <i class="bx bx-copyright"></i> by ghephang.com. All rights reserved</p>\\r\\n                    </div>\\r\\n                </div>\\r\\n            </div>\\r\\n        </div>\\r\\n    </footer>\\r\\n\\r\\n    <div>\\r\\n        <div id="overlay" onclick="off()" style="display: none;"></div>\\r\\n        <div class="position-fixed text-right floating-action-menu">\\r\\n            <div class="action-menu">\\r\\n                <a class="floating-action px-2 py-2" href="/tra-van-don">\\r\\n                    <div class="badge">Tra c\\xe1\\xbb\\xa9u v\\xe1\\xba\\xadn \\xc4\\x91\\xc6\\xa1n</div>\\r\\n                    <span class="btn-floating">\\r\\n                        <img src="\', escape=False)\nresponse.write(URL(\'static\',\'%s/images\')%(static_default))\nresponse.write(\'/icon-fab-search-bill.svg"\\r\\n                            alt="icon-fab-search-bill" class="img-fluid" width="30">\\r\\n                    </span>\\r\\n                </a>\\r\\n                <a class="floating-action px-2 py-2" href="/tao-don">\\r\\n                    <div class="badge">Y\\xc3\\xaau c\\xe1\\xba\\xa7u b\\xc3\\xa1o gi\\xc3\\xa1</div>\\r\\n                    <span class="btn-floating">\\r\\n                        <img src="\', escape=False)\nresponse.write(URL(\'static\',\'%s/images\')%(static_default))\nresponse.write(\'/icon-fab-create-bill.svg"\\r\\n                            alt="icon-fab-create-bill" class="img-fluid" width="30">\\r\\n                    </span>\\r\\n                </a>\\r\\n                <a class="floating-action px-2 py-2" href="/tim-buu-cuc">\\r\\n                    <div class="badge">T\\xc3\\xacm b\\xc6\\xb0u c\\xe1\\xbb\\xa5c</div>\\r\\n                    <span class="btn-floating">\\r\\n                        <img src="\', escape=False)\nresponse.write(URL(\'static\',\'%s/images\')%(static_default))\nresponse.write(\'/icon-fab-search-price.svg"\\r\\n                            alt="icon-fab-search-price" class="img-fluid" width="30">\\r\\n                    </span>\\r\\n                </a>\\r\\n                <!-- <a class="floating-action px-2 py-2" href="bang-gia-dich-vu">\\r\\n                    <div class="badge">Nh\\xe1\\xba\\xafn tin</div>\\r\\n                    <span class="btn-floating">\\r\\n                        <img src="\', escape=False)\nresponse.write(URL(\'static\',\'%s/images\')%(static_default))\nresponse.write(\'/icon-fab-price-list.svg" alt="icon-fab-price-list" class="img-fluid"\\r\\n                            width="30">\\r\\n                    </span>\\r\\n                </a> -->\\r\\n                <!-- <a class="floating-action px-2 py-2" href="/#footer-v2">\\r\\n                    <div class="badge">T\\xe1\\xba\\xa3i App NTX</div>\\r\\n                    <span class="btn-floating">\\r\\n                        <img src="\', escape=False)\nresponse.write(URL(\'static\',\'%s/images\')%(static_default))\nresponse.write(\'/icon-fab-get-app.svg" alt="icon-fab-get-app" class="img-fluid" width="30">\\r\\n                    </span>\\r\\n                </a> -->\\r\\n                <!-- fb-messenger://user-thread/149397918580307  https://zalo.me/0377888678-->\\r\\n\\r\\n\\r\\n                <a class="floating-action px-2 py-2" id="chat_message_id" target="_blank" href="#">\\r\\n                    <div class="badge">Chat v\\xe1\\xbb\\x9bi GhepHang</div>\\r\\n                    <span class="btn-floating">\\r\\n                        <img src="\', escape=False)\nresponse.write(URL(\'static\',\'%s/images\')%(static_default))\nresponse.write(\'/icon-fab-chat.svg" alt="icon-fab-chat"\\r\\n                            class="img-fluid" width="30">\\r\\n                    </span>\\r\\n                </a>\\r\\n                <a class="floating-action px-2 py-2" href="tel:1900888678">\\r\\n                    <div class="badge">Li\\xc3\\xaan h\\xe1\\xbb\\x87: <strong>1900888678</strong></div>\\r\\n                    <span class="btn-floating">\\r\\n                        <img src="\', escape=False)\nresponse.write(URL(\'static\',\'%s/images\')%(static_default))\nresponse.write(\'/icon-fab-phone.svg"\\r\\n                            alt="icon-fab-phone" class="img-fluid" width="30">\\r\\n                    </span>\\r\\n                </a>\\r\\n            </div>\\r\\n            <div class="d-block action-button">\\r\\n                <a class="btn-floating" onclick="on()">\\r\\n                    <img src="\', escape=False)\nresponse.write(URL(\'static\',\'%s/images\')%(static_default))\nresponse.write(\'/icon-fab.svg" alt="icon-fab"\\r\\n                        class="img-fluid" width="48" style="filter: drop-shadow(2px 4px 15px rgba(0, 0, 0, 0.3));">\\r\\n                </a>\\r\\n            </div>\\r\\n\\r\\n            <script>\\r\\n                window.onload = (event) => {\\r\\n                    const mesa = document.getElementById(\\\'chat_message_id\\\')\\r\\n                    let url = \\\'https://www.facebook.com/Ghephangcom/\\\'\\r\\n                     if (/Android|webOS|iPhone|iPad|iPod|BlackBerry|IEMobile|Opera Mini/i.test(navigator.userAgent) && window.innerWidth <= 550) {\\r\\n                        url = \\\'fb-messenger://user-thread/149397918580307\\\'\\r\\n                    } \\r\\n                    mesa.setAttribute(\\\'href\\\', url);\\r\\n                };\\r\\n               \\r\\n            </script>\\r\\n        </div>\\r\\n    </div>\\r\\n\\r\\n    \', escape=False)\nresponse.write(\'<style>\\r\\n    #show_popup {\\r\\n        position: fixed;\\r\\n        z-index: 1200;\\r\\n        bottom: 32px;\\r\\n        left: 32px;\\r\\n   }\\r\\n    .custom-div {\\r\\n        padding: 15px 20px;\\r\\n        background: rgb(234, 234, 234);\\r\\n        max-height: 0;\\r\\n        opacity: 0;\\r\\n        font-size: 13px;\\r\\n        border-radius: 8px;\\r\\n        transition: max-height 1s ease, opacity 1s ease;\\r\\n        line-height: 1.6em;\\r\\n    }\\r\\n     .custom-div.active {\\r\\n        max-height: 500px;\\r\\n        opacity: 1;\\r\\n        transition: max-height 1s ease, opacity 1s ease;\\r\\n    }\\r\\n\\r\\n    .custom-div .place {\\r\\n        color: rgb(0, 97, 193);\\r\\n        font-weight: 500;\\r\\n    }\\r\\n\\r\\n    .custom-div .image-container {\\r\\n        margin-top: 16px;\\r\\n        display: flex;\\r\\n        align-items: flex-start;\\r\\n    }\\r\\n\\r\\n    .custom-div .image-container img {\\r\\n        width: 70px;\\r\\n        margin-right: 8px;\\r\\n    }\\r\\n\\r\\n    .custom-div .info-container {\\r\\n        display: flex;\\r\\n        flex-direction: column;\\r\\n    }\\r\\n\\r\\n    .custom-div .info-container p {\\r\\n        color: rgb(0, 97, 193);\\r\\n    }\\r\\n\\r\\n    p {\\r\\n        margin: 0;\\r\\n    }\\r\\n</style>\\r\\n<div id="show_popup"></div>\\r\\n<script>\\r\\n    function generateRandomTime() {\\r\\n        const randomMinutesAgo = Math.floor(Math.random() * 26) + 5; // Random time between 5 and 30 minutes\\r\\n        return `${randomMinutesAgo} ph\\xc3\\xbat tr\\xc6\\xb0\\xe1\\xbb\\x9bc`;\\r\\n    }\\r\\n\\r\\n    const card = document.getElementById(\\\'custom-card\\\');\\r\\n    const urldefault = "\', escape=False)\nresponse.write(URL(\'static\',\'%s/images\')%(static_default))\nresponse.write(\'";\\r\\n    const imageUrls = [\\r\\n        urldefault + \\\'/truck.png\\\',\\r\\n        urldefault + \\\'/truck2.png\\\',\\r\\n        urldefault + \\\'/truck3.png\\\',\\r\\n        urldefault + \\\'/truck4.png\\\',\\r\\n        urldefault + \\\'/truck.png\\\',\\r\\n        urldefault + \\\'/truck2.png\\\',\\r\\n        urldefault + \\\'/truck.png\\\',\\r\\n        urldefault + \\\'/truck2.png\\\',\\r\\n        urldefault + \\\'/truck3.png\\\',\\r\\n        urldefault + \\\'/truck4.png\\\',\\r\\n        urldefault + \\\'/truck.png\\\',\\r\\n        urldefault + \\\'/truck.png\\\',\\r\\n        urldefault + \\\'/truck2.png\\\',\\r\\n        urldefault + \\\'/truck.png\\\',\\r\\n\\r\\n    ];\\r\\n    let imageIndex = 0;\\r\\n    let dataIndex = 0;\\r\\n\\r\\n    function formatPhoneNumber(phone) {\\r\\n        return phone.slice(0, phone.length / 2) + \\\'x\\\'.repeat(phone.length - phone.length / 2);\\r\\n    }\\r\\n\\r\\n    function formatCurrency(value) {\\r\\n        return value.toLocaleString(\\\'vi-VN\\\', { style: \\\'currency\\\', currency: \\\'VND\\\' });\\r\\n    }\\r\\n\\r\\n    function renderhtml(item, img){\\r\\n        console.log(item);\\r\\n        let data = `\\r\\n            <div class="custom-div active" id="custom-card">\\r\\n                <span style="color: red; font-weight: bold;">\\xc4\\x90\\xc6\\xa0N H\\xc3\\x80NG M\\xe1\\xbb\\x9aI NH\\xe1\\xba\\xa4T</span>\\r\\n                <p>Kh\\xc3\\xa1ch: <span id="customerName">${item.customer_send.name}</span></p>\\r\\n                <p id="phoneNumber">S\\xc4\\x90T: <span id="phoneText">${formatPhoneNumber(item.customer_send.phone) }</span> - C\\xc6\\xb0\\xe1\\xbb\\x9bc: <span id="transportFee">${item.transport_fee}</span></p>\\r\\n                <p> - <span id="locations">${generateRandomTime()}</span></p>\\r\\n                <div class="image-container">\\r\\n                    <img src="${img}" alt="" id="truckImage">\\r\\n                    <div>\\r\\n                        <p>Nh\\xe1\\xba\\xadn \\xc4\\x91\\xc6\\xa1n th\\xc3\\xa0nh c\\xc3\\xb4ng</p>\\r\\n                        <p id="truckInfo">L\\xc3\\xa1i xe: ${item.trucks.name??\\\'\\xc4\\x90ang c\\xe1\\xba\\xadp nh\\xe1\\xba\\xadt\\\'}</p>\\r\\n                        <p id="truckRoute">Tuy\\xe1\\xba\\xbfn: ${item.trucks?.router?.name??\\\'\\xc4\\x90ang c\\xe1\\xba\\xadp nh\\xe1\\xba\\xadt\\\'}</p>\\r\\n                    </div>\\r\\n                </div>\\r\\n            </div>\\r\\n        `;\\r\\n        document.getElementById(\\\'show_popup\\\').innerHTML = data;\\r\\n    }\\r\\n\\r\\n    function remmeveActive(){\\r\\n        $(\\\'.custom-div\\\').removeClass(\\\'active\\\');\\r\\n    }   \\r\\n\\r\\n    function fetchDataAndDisplayFromAPI() {\\r\\n        fetch(\\\'https://quanly.ghephang.com/gh/api_v1/getListNotice.json\\\')\\r\\n            .then(response => response.json())\\r\\n            .then(data => {\\r\\n                const record = data.list[dataIndex];\\r\\n\\r\\n                let index = 0;\\r\\n                setInterval(function () {\\r\\n                    index = (index + 1) % data.list.length;\\r\\n                    img = imageUrls[index];\\r\\n                    item = data.list[index];\\r\\n                    renderhtml(item, img);\\r\\n                    setTimeout(remmeveActive, 7000); // 2000ms (2 gi\\xc3\\xa2y)\\r\\n                }, 14000); \\r\\n            })\\r\\n            .catch(error => {\\r\\n                console.error(\\\'Error fetching data from API:\\\', error);\\r\\n            });\\r\\n    }\\r\\n\\r\\n    document.addEventListener(\\\'DOMContentLoaded\\\', fetchDataAndDisplayFromAPI);\\r\\n\\r\\n</script>\', escape=False)\nresponse.write(\'\\r\\n    <!-- End Footer Bottom Area -->\\r\\n\\r\\n    <!-- Start Go Top Area -->\\r\\n    <div class="go-top">\\r\\n        <i class=\\\'bx bx-chevrons-up bx-fade-up\\\'></i>\\r\\n        <i class=\\\'bx bx-chevrons-up bx-fade-up\\\'></i>\\r\\n    </div>\\r\\n    <!-- End Go Top Area -->\\r\\n\\r\\n\\r\\n\\r\\n    <!-- Jquery Min JS -->\\r\\n    <script src="\', escape=False)\nresponse.write(URL(\'static\',\'%s/js\')%(static_default))\nresponse.write(\'/jquery.min.js"></script>\\r\\n    <!-- Bootstrap Bundle Min JS -->\\r\\n    <script src="\', escape=False)\nresponse.write(URL(\'static\',\'%s/js\')%(static_default))\nresponse.write(\'/bootstrap.bundle.min.js"></script>\\r\\n    <!-- Meanmenu Min JS -->\\r\\n    <script>\\r\\n        "use strict"; function on() { $(".floating-action-menu").hasClass("active") ? ($(".floating-action-menu").toggleClass("active"), document.getElementById("overlay").style.display = "none") : ($(".floating-action-menu").toggleClass("active"), document.getElementById("overlay").style.display = "block") } function off() { $(".floating-action-menu").toggleClass("active"), document.getElementById("overlay").style.display = "none" }\\r\\n    </script>\\r\\n    <script src="\', escape=False)\nresponse.write(URL(\'static\',\'%s/js\')%(static_default))\nresponse.write(\'/meanmenu.min.js"></script>\\r\\n    <!-- Wow Min JS -->\\r\\n    <script src="\', escape=False)\nresponse.write(URL(\'static\',\'%s/js\')%(static_default))\nresponse.write(\'/wow.min.js"></script>\\r\\n    <!-- Owl Carousel Min JS -->\\r\\n    <script src="\', escape=False)\nresponse.write(URL(\'static\',\'%s/js\')%(static_default))\nresponse.write(\'/owl.carousel.min.js"></script>\\r\\n    <!-- Owl Magnific Min JS -->\\r\\n    <script src="\', escape=False)\nresponse.write(URL(\'static\',\'%s/js\')%(static_default))\nresponse.write(\'/magnific-popup.min.js"></script>\\r\\n    <!-- Nice Select Min JS -->\\r\\n    <!-- <script src="\', escape=False)\nresponse.write(URL(\'static\',\'%s/js\')%(static_default))\nresponse.write(\'/nice-select.min.js"></script> -->\\r\\n    <!-- Appear JS -->\\r\\n    <script src="\', escape=False)\nresponse.write(URL(\'static\',\'%s/js\')%(static_default))\nresponse.write(\'/appear.min.js"></script>\\r\\n    <!-- Odometer JS -->\\r\\n    <script src="\', escape=False)\nresponse.write(URL(\'static\',\'%s/js\')%(static_default))\nresponse.write(\'/odometer.min.js"></script>\\r\\n    <!-- jarallax Min JS -->\\r\\n    <script src="\', escape=False)\nresponse.write(URL(\'static\',\'%s/js\')%(static_default))\nresponse.write(\'/jarallax.min.js"></script>\\r\\n    <!-- Form Ajaxchimp Min JS -->\\r\\n    <script src="\', escape=False)\nresponse.write(URL(\'static\',\'%s/js\')%(static_default))\nresponse.write(\'/ajaxchimp.min.js"></script>\\r\\n    <!-- Form Validator Min JS -->\\r\\n    <script src="\', escape=False)\nresponse.write(URL(\'static\',\'%s/js\')%(static_default))\nresponse.write(\'/form-validator.min.js"></script>\\r\\n    <!-- Contact JS -->\\r\\n    <script src="\', escape=False)\nresponse.write(URL(\'static\',\'%s/js\')%(static_default))\nresponse.write(\'/contact-form-script.js"></script>\\r\\n    <!-- Custom JS -->\\r\\n    <script src="\', escape=False)\nresponse.write(URL(\'static\',\'%s/js\')%(static_default))\nresponse.write(\'/custom.js"></script>\\r\\n    <script src="\', escape=False)\nresponse.write(URL(\'static\',\'%s/js\')%(static_default))\nresponse.write(\'/redirect.js"></script>\\r\\n    \', escape=False)\nresponse.write(\'\\r\\n    \', escape=False)\nresponse.write(\'\\r\\n</body>\\r\\n\\r\\n</html>\', escape=False)'
p7
sS'snapshot'
p8
(dp9
S'exception'
p10
(dp11
S'__hash__'
p12
S"<method-wrapper '__hash__' of exceptions.NameError object>"
p13
sS'__setattr__'
p14
S"<method-wrapper '__setattr__' of exceptions.NameError object>"
p15
sS'__reduce_ex__'
p16
S'<built-in method __reduce_ex__ of exceptions.NameError object>'
p17
sS'__getslice__'
p18
S"<method-wrapper '__getslice__' of exceptions.NameError object>"
p19
sS'__getitem__'
p20
S"<method-wrapper '__getitem__' of exceptions.NameError object>"
p21
sS'__setstate__'
p22
S'<built-in method __setstate__ of exceptions.NameError object>'
p23
sS'__reduce__'
p24
S'<built-in method __reduce__ of exceptions.NameError object>'
p25
sS'__str__'
p26
S"<method-wrapper '__str__' of exceptions.NameError object>"
p27
sS'__format__'
p28
S'<built-in method __format__ of exceptions.NameError object>'
p29
sS'__getattribute__'
p30
S"<method-wrapper '__getattribute__' of exceptions.NameError object>"
p31
sS'__class__'
p32
S"<type 'exceptions.NameError'>"
p33
sS'__unicode__'
p34
S'<built-in method __unicode__ of exceptions.NameError object>'
p35
sS'__delattr__'
p36
S"<method-wrapper '__delattr__' of exceptions.NameError object>"
p37
sS'__subclasshook__'
p38
S'<built-in method __subclasshook__ of type object>'
p39
sS'__repr__'
p40
S"<method-wrapper '__repr__' of exceptions.NameError object>"
p41
sS'args'
p42
S'("name \'data\' is not defined",)'
p43
sS'__dict__'
p44
S'{}'
p45
sS'__sizeof__'
p46
S'<built-in method __sizeof__ of exceptions.NameError object>'
p47
sS'__doc__'
p48
S"'Name not found globally.'"
p49
sS'__init__'
p50
S"<method-wrapper '__init__' of exceptions.NameError object>"
p51
sS'__new__'
p52
S'<built-in method __new__ of type object>'
p53
ssS'evalue'
p54
S"name 'data' is not defined"
p55
sS'request'
p56
cgluon.html
XML_unpickle
p57
(S's\x86[\x00\x00<div><table><tr><td style="font-weight:bold;vertical-align:top;">ajax</td><td style="vertical-align:top;">:</td><td><div>False</div></td></tr><tr><td style="font-weight:bold;vertical-align:top;">application</td><td style="vertical-align:top;">:</td><td><div>cms</div></td></tr><tr><td style="font-weight:bold;vertical-align:top;">args</td><td style="vertical-align:top;">:</td><td><div><table><tr><td><div>gioi-thieu</div></td></tr></table></div></td></tr><tr><td style="font-weight:bold;vertical-align:top;">cid</td><td style="vertical-align:top;">:</td><td><div>None</div></td></tr><tr><td style="font-weight:bold;vertical-align:top;">client</td><td style="vertical-align:top;">:</td><td><div>127.0.0.1</div></td></tr><tr><td style="font-weight:bold;vertical-align:top;">controller</td><td style="vertical-align:top;">:</td><td><div>portal</div></td></tr><tr><td style="font-weight:bold;vertical-align:top;">cookies</td><td style="vertical-align:top;">:</td><td><div><table><tr><td style="font-weight:bold;vertical-align:top;">nobita-utm</td><td style="vertical-align:top;">:</td><td><div>e30=<table><tr><td style="font-weight:bold;vertical-align:top;">comment</td><td style="vertical-align:top;">:</td><td><div></div></td></tr><tr><td style="font-weight:bold;vertical-align:top;">domain</td><td style="vertical-align:top;">:</td><td><div></div></td></tr><tr><td style="font-weight:bold;vertical-align:top;">expires</td><td style="vertical-align:top;">:</td><td><div></div></td></tr><tr><td style="font-weight:bold;vertical-align:top;">httponly</td><td style="vertical-align:top;">:</td><td><div></div></td></tr><tr><td style="font-weight:bold;vertical-align:top;">max-age</td><td style="vertical-align:top;">:</td><td><div></div></td></tr><tr><td style="font-weight:bold;vertical-align:top;">path</td><td style="vertical-align:top;">:</td><td><div></div></td></tr><tr><td style="font-weight:bold;vertical-align:top;">secure</td><td style="vertical-align:top;">:</td><td><div></div></td></tr><tr><td style="font-weight:bold;vertical-align:top;">version</td><td style="vertical-align:top;">:</td><td><div></div></td></tr></table></div></td></tr></table></div></td></tr><tr><td style="font-weight:bold;vertical-align:top;">env</td><td style="vertical-align:top;">:</td><td><div><table><tr><td style="font-weight:bold;vertical-align:top;">HTTP_ACCEPT</td><td style="vertical-align:top;">:</td><td><div>text/html,application/xhtml+xml,application/xml;q=0.9,image/avif,image/webp,image/apng,*/*;q=0.8,application/signed-exchange;v=b3;q=0.7</div></td></tr><tr><td style="font-weight:bold;vertical-align:top;">HTTP_ACCEPT_ENCODING</td><td style="vertical-align:top;">:</td><td><div>gzip, deflate, br, zstd</div></td></tr><tr><td style="font-weight:bold;vertical-align:top;">HTTP_ACCEPT_LANGUAGE</td><td style="vertical-align:top;">:</td><td><div>vi-VN,vi;q=0.9</div></td></tr><tr><td style="font-weight:bold;vertical-align:top;">HTTP_CACHE_CONTROL</td><td style="vertical-align:top;">:</td><td><div>max-age=0</div></td></tr><tr><td style="font-weight:bold;vertical-align:top;">HTTP_CONNECTION</td><td style="vertical-align:top;">:</td><td><div>keep-alive</div></td></tr><tr><td style="font-weight:bold;vertical-align:top;">HTTP_COOKIE</td><td style="vertical-align:top;">:</td><td><div>nobita-utm=e30=</div></td></tr><tr><td style="font-weight:bold;vertical-align:top;">HTTP_HOST</td><td style="vertical-align:top;">:</td><td><div>127.0.0.1:8000</div></td></tr><tr><td style="font-weight:bold;vertical-align:top;">HTTP_REFERER</td><td style="vertical-align:top;">:</td><td><div>http://127.0.0.1:8000/trang-chu</div></td></tr><tr><td style="font-weight:bold;vertical-align:top;">HTTP_SEC_CH_UA</td><td style="vertical-align:top;">:</td><td><div>&quot;Not)A;Brand&quot;;v=&quot;99&quot;, &quot;Google Chrome&quot;;v=&quot;127&quot;, &quot;Chromium&quot;;v=&quot;127&quot;</div></td></tr><tr><td style="font-weight:bold;vertical-align:top;">HTTP_SEC_CH_UA_MOBILE</td><td style="vertical-align:top;">:</td><td><div>?0</div></td></tr><tr><td style="font-weight:bold;vertical-align:top;">HTTP_SEC_CH_UA_PLATFORM</td><td style="vertical-align:top;">:</td><td><div>&quot;Windows&quot;</div></td></tr><tr><td style="font-weight:bold;vertical-align:top;">HTTP_SEC_FETCH_DEST</td><td style="vertical-align:top;">:</td><td><div>document</div></td></tr><tr><td style="font-weight:bold;vertical-align:top;">HTTP_SEC_FETCH_MODE</td><td style="vertical-align:top;">:</td><td><div>navigate</div></td></tr><tr><td style="font-weight:bold;vertical-align:top;">HTTP_SEC_FETCH_SITE</td><td style="vertical-align:top;">:</td><td><div>same-origin</div></td></tr><tr><td style="font-weight:bold;vertical-align:top;">HTTP_SEC_FETCH_USER</td><td style="vertical-align:top;">:</td><td><div>?1</div></td></tr><tr><td style="font-weight:bold;vertical-align:top;">HTTP_UPGRADE_INSECURE_REQUESTS</td><td style="vertical-align:top;">:</td><td><div>1</div></td></tr><tr><td style="font-weight:bold;vertical-align:top;">HTTP_USER_AGENT</td><td style="vertical-align:top;">:</td><td><div>Mozilla/5.0 (Windows NT 10.0; Win64; x64) AppleWebKit/537.36 (KHTML, like Gecko) Chrome/127.0.0.0 Safari/537.36</div></td></tr><tr><td style="font-weight:bold;vertical-align:top;">PATH_INFO</td><td style="vertical-align:top;">:</td><td><div>/gioi-thieu</div></td></tr><tr><td style="font-weight:bold;vertical-align:top;">QUERY_STRING</td><td style="vertical-align:top;">:</td><td><div></div></td></tr><tr><td style="font-weight:bold;vertical-align:top;">REMOTE_ADDR</td><td style="vertical-align:top;">:</td><td><div>127.0.0.1</div></td></tr><tr><td style="font-weight:bold;vertical-align:top;">REMOTE_PORT</td><td style="vertical-align:top;">:</td><td><div>55241</div></td></tr><tr><td style="font-weight:bold;vertical-align:top;">REQUEST_METHOD</td><td style="vertical-align:top;">:</td><td><div>GET</div></td></tr><tr><td style="font-weight:bold;vertical-align:top;">SCRIPT_NAME</td><td style="vertical-align:top;">:</td><td><div></div></td></tr><tr><td style="font-weight:bold;vertical-align:top;">SERVER_NAME</td><td style="vertical-align:top;">:</td><td><div>DESKTOP-GUAHLA8</div></td></tr><tr><td style="font-weight:bold;vertical-align:top;">SERVER_PORT</td><td style="vertical-align:top;">:</td><td><div>8000</div></td></tr><tr><td style="font-weight:bold;vertical-align:top;">SERVER_PROTOCOL</td><td style="vertical-align:top;">:</td><td><div>HTTP/1.1</div></td></tr><tr><td style="font-weight:bold;vertical-align:top;">SERVER_SOFTWARE</td><td style="vertical-align:top;">:</td><td><div>Rocket 1.2.6</div></td></tr><tr><td style="font-weight:bold;vertical-align:top;">app_folders</td><td style="vertical-align:top;">:</td><td><div>set([&#x27;C:\\\\Users\\\\F6\\\\Downloads\\\\bahadi\\\\9026-py2\\\\applications\\\\cms\\\\&#x27;])</div></td></tr><tr><td style="font-weight:bold;vertical-align:top;">applications_parent</td><td style="vertical-align:top;">:</td><td><div>C:\\Users\\F6\\Downloads\\bahadi\\9026-py2</div></td></tr><tr><td style="font-weight:bold;vertical-align:top;">cmd_args</td><td style="vertical-align:top;">:</td><td><div><table></table></div></td></tr><tr><td style="font-weight:bold;vertical-align:top;">cmd_options</td><td style="vertical-align:top;">:</td><td><div>&lt;Values at 0x4162468: {&#x27;verbose&#x27;: False, &#x27;ip&#x27;: &#x27;127.0.0.1&#x27;, &#x27;debuglevel&#x27;: 30, &#x27;with_scheduler&#x27;: False, &#x27;shutdown_timeout&#x27;: 5, &#x27;taskbar&#x27;: False, &#x27;with_coverage&#x27;: False, &#x27;pid_filename&#x27;: &#x27;httpserver.pid&#x27;, &#x27;maxthreads&#x27;: None, &#x27;softcron&#x27;: False, &#x27;server_name&#x27;: &#x27;DESKTOP-GUAHLA8&#x27;, &#x27;bpython&#x27;: False, &#x27;nogui&#x27;: False, &#x27;port&#x27;: 8000, &#x27;print_errors&#x27;: False, &#x27;extcron&#x27;: False, &#x27;runcron&#x27;: False, &#x27;run_system_tests&#x27;: False, &#x27;test&#x27;: None, &#x27;folder&#x27;: &#x27;C:\\\\Users\\\\F6\\\\Downloads\\\\bahadi\\\\9026-py2&#x27;, &#x27;config&#x27;: &#x27;&#x27;, &#x27;minthreads&#x27;: None, &#x27;shell&#x27;: None, &#x27;run&#x27;: &#x27;&#x27;, &#x27;log_filename&#x27;: &#x27;httpserver.log&#x27;, &#x27;profiler_dir&#x27;: None, &#x27;args&#x27;: [&#x27;&#x27;], &#x27;socket_timeout&#x27;: 5, &#x27;ssl_ca_certificate&#x27;: None, &#x27;scheduler&#x27;: None, &#x27;interfaces&#x27;: None, &#x27;ssl_private_key&#x27;: &#x27;&#x27;, &#x27;gae&#x27;: None, &#x27;password&#x27;: &#x27;******&#x27;, &#x27;request_queue_size&#x27;: 5, &#x27;ssl_certificate&#x27;: &#x27;&#x27;, &#x27;cronjob&#x27;: False, &#x27;numthreads&#x27;: None, &#x27;quiet&#x27;: False, &#x27;import_models&#x27;: False, &#x27;timeout&#x27;: 10, &#x27;plain&#x27;: False, &#x27;nobanner&#x27;: False}&gt;</div></td></tr><tr><td style="font-weight:bold;vertical-align:top;">db_sessions</td><td style="vertical-align:top;">:</td><td><div>set([])</div></td></tr><tr><td style="font-weight:bold;vertical-align:top;">debugging</td><td style="vertical-align:top;">:</td><td><div>False</div></td></tr><tr><td style="font-weight:bold;vertical-align:top;">gluon_parent</td><td style="vertical-align:top;">:</td><td><div>C:\\Users\\F6\\Downloads\\bahadi\\9026-py2</div></td></tr><tr><td style="font-weight:bold;vertical-align:top;">http_accept</td><td style="vertical-align:top;">:</td><td><div>text/html,application/xhtml+xml,application/xml;q=0.9,image/avif,image/webp,image/apng,*/*;q=0.8,application/signed-exchange;v=b3;q=0.7</div></td></tr><tr><td style="font-weight:bold;vertical-align:top;">http_accept_encoding</td><td style="vertical-align:top;">:</td><td><div>gzip, deflate, br, zstd</div></td></tr><tr><td style="font-weight:bold;vertical-align:top;">http_accept_language</td><td style="vertical-align:top;">:</td><td><div>vi-VN,vi;q=0.9</div></td></tr><tr><td style="font-weight:bold;vertical-align:top;">http_cache_control</td><td style="vertical-align:top;">:</td><td><div>max-age=0</div></td></tr><tr><td style="font-weight:bold;vertical-align:top;">http_connection</td><td style="vertical-align:top;">:</td><td><div>keep-alive</div></td></tr><tr><td style="font-weight:bold;vertical-align:top;">http_cookie</td><td style="vertical-align:top;">:</td><td><div>nobita-utm=e30=</div></td></tr><tr><td style="font-weight:bold;vertical-align:top;">http_host</td><td style="vertical-align:top;">:</td><td><div>127.0.0.1:8000</div></td></tr><tr><td style="font-weight:bold;vertical-align:top;">http_referer</td><td style="vertical-align:top;">:</td><td><div>http://127.0.0.1:8000/trang-chu</div></td></tr><tr><td style="font-weight:bold;vertical-align:top;">http_sec_ch_ua</td><td style="vertical-align:top;">:</td><td><div>&quot;Not)A;Brand&quot;;v=&quot;99&quot;, &quot;Google Chrome&quot;;v=&quot;127&quot;, &quot;Chromium&quot;;v=&quot;127&quot;</div></td></tr><tr><td style="font-weight:bold;vertical-align:top;">http_sec_ch_ua_mobile</td><td style="vertical-align:top;">:</td><td><div>?0</div></td></tr><tr><td style="font-weight:bold;vertical-align:top;">http_sec_ch_ua_platform</td><td style="vertical-align:top;">:</td><td><div>&quot;Windows&quot;</div></td></tr><tr><td style="font-weight:bold;vertical-align:top;">http_sec_fetch_dest</td><td style="vertical-align:top;">:</td><td><div>document</div></td></tr><tr><td style="font-weight:bold;vertical-align:top;">http_sec_fetch_mode</td><td style="vertical-align:top;">:</td><td><div>navigate</div></td></tr><tr><td style="font-weight:bold;vertical-align:top;">http_sec_fetch_site</td><td style="vertical-align:top;">:</td><td><div>same-origin</div></td></tr><tr><td style="font-weight:bold;vertical-align:top;">http_sec_fetch_user</td><td style="vertical-align:top;">:</td><td><div>?1</div></td></tr><tr><td style="font-weight:bold;vertical-align:top;">http_upgrade_insecure_requests</td><td style="vertical-align:top;">:</td><td><div>1</div></td></tr><tr><td style="font-weight:bold;vertical-align:top;">http_user_agent</td><td style="vertical-align:top;">:</td><td><div>Mozilla/5.0 (Windows NT 10.0; Win64; x64) AppleWebKit/537.36 (KHTML, like Gecko) Chrome/127.0.0.0 Safari/537.36</div></td></tr><tr><td style="font-weight:bold;vertical-align:top;">is_jython</td><td style="vertical-align:top;">:</td><td><div>False</div></td></tr><tr><td style="font-weight:bold;vertical-align:top;">is_pypy</td><td style="vertical-align:top;">:</td><td><div>False</div></td></tr><tr><td style="font-weight:bold;vertical-align:top;">is_source</td><td style="vertical-align:top;">:</td><td><div>True</div></td></tr><tr><td style="font-weight:bold;vertical-align:top;">local_hosts</td><td style="vertical-align:top;">:</td><td><div><table><tr><td><div>192.168.1.93</div></td></tr><tr><td><div>fe80::7fed:a3c0:ee6e:c02e%3</div></td></tr><tr><td><div>::ffff:127.0.0.1</div></td></tr><tr><td><div>::1</div></td></tr><tr><td><div>DESKTOP-GUAHLA8</div></td></tr><tr><td><div>192.168.186.1</div></td></tr><tr><td><div>169.254.226.3</div></td></tr><tr><td><div>127.0.0.1</div></td></tr><tr><td><div>fe80::d487:29a4:871:bc6e%16</div></td></tr></table></div></td></tr><tr><td style="font-weight:bold;vertical-align:top;">path_info</td><td style="vertical-align:top;">:</td><td><div>/gioi-thieu</div></td></tr><tr><td style="font-weight:bold;vertical-align:top;">query_string</td><td style="vertical-align:top;">:</td><td><div></div></td></tr><tr><td style="font-weight:bold;vertical-align:top;">remote_addr</td><td style="vertical-align:top;">:</td><td><div>127.0.0.1</div></td></tr><tr><td style="font-weight:bold;vertical-align:top;">remote_port</td><td style="vertical-align:top;">:</td><td><div>55241</div></td></tr><tr><td style="font-weight:bold;vertical-align:top;">request_method</td><td style="vertical-align:top;">:</td><td><div>GET</div></td></tr><tr><td style="font-weight:bold;vertical-align:top;">request_uri</td><td style="vertical-align:top;">:</td><td><div>/cms/portal/folder/gioi-thieu</div></td></tr><tr><td style="font-weight:bold;vertical-align:top;">script_name</td><td style="vertical-align:top;">:</td><td><div></div></td></tr><tr><td style="font-weight:bold;vertical-align:top;">server_name</td><td style="vertical-align:top;">:</td><td><div>DESKTOP-GUAHLA8</div></td></tr><tr><td style="font-weight:bold;vertical-align:top;">server_port</td><td style="vertical-align:top;">:</td><td><div>8000</div></td></tr><tr><td style="font-weight:bold;vertical-align:top;">server_protocol</td><td style="vertical-align:top;">:</td><td><div>HTTP/1.1</div></td></tr><tr><td style="font-weight:bold;vertical-align:top;">server_software</td><td style="vertical-align:top;">:</td><td><div>Rocket 1.2.6</div></td></tr><tr><td style="font-weight:bold;vertical-align:top;">web2py_original_uri</td><td style="vertical-align:top;">:</td><td><div>/gioi-thieu</div></td></tr><tr><td style="font-weight:bold;vertical-align:top;">web2py_path</td><td style="vertical-align:top;">:</td><td><div>C:\\Users\\F6\\Downloads\\bahadi\\9026-py2</div></td></tr><tr><td style="font-weight:bold;vertical-align:top;">web2py_version</td><td style="vertical-align:top;">:</td><td><div>2.21.1-stable+timestamp.2020.11.28.04.10.44</div></td></tr><tr><td style="font-weight:bold;vertical-align:top;">wsgi.errors</td><td style="vertical-align:top;">:</td><td><div>&lt;open file &#x27;&lt;stderr&gt;&#x27;, mode &#x27;w&#x27; at 0x030CD0D0&gt;</div></td></tr><tr><td style="font-weight:bold;vertical-align:top;">wsgi.file_wrapper</td><td style="vertical-align:top;">:</td><td><div>&lt;class wsgiref.util.FileWrapper at 0x040E4B20&gt;</div></td></tr><tr><td style="font-weight:bold;vertical-align:top;">wsgi.input</td><td style="vertical-align:top;">:</td><td><div>&lt;socket._fileobject object at 0x043C4AF0&gt;</div></td></tr><tr><td style="font-weight:bold;vertical-align:top;">wsgi.multiprocess</td><td style="vertical-align:top;">:</td><td><div>False</div></td></tr><tr><td style="font-weight:bold;vertical-align:top;">wsgi.multithread</td><td style="vertical-align:top;">:</td><td><div>True</div></td></tr><tr><td style="font-weight:bold;vertical-align:top;">wsgi.run_once</td><td style="vertical-align:top;">:</td><td><div>False</div></td></tr><tr><td style="font-weight:bold;vertical-align:top;">wsgi.url_scheme</td><td style="vertical-align:top;">:</td><td><div>http</div></td></tr><tr><td style="font-weight:bold;vertical-align:top;">wsgi.version</td><td style="vertical-align:top;">:</td><td><div><table><tr><td><div>1</div></td></tr><tr><td><div>0</div></td></tr></table></div></td></tr><tr><td style="font-weight:bold;vertical-align:top;">wsgi_errors</td><td style="vertical-align:top;">:</td><td><div>&lt;open file &#x27;&lt;stderr&gt;&#x27;, mode &#x27;w&#x27; at 0x030CD0D0&gt;</div></td></tr><tr><td style="font-weight:bold;vertical-align:top;">wsgi_file_wrapper</td><td style="vertical-align:top;">:</td><td><div>&lt;class wsgiref.util.FileWrapper at 0x040E4B20&gt;</div></td></tr><tr><td style="font-weight:bold;vertical-align:top;">wsgi_input</td><td style="vertical-align:top;">:</td><td><div>&lt;socket._fileobject object at 0x043C4AF0&gt;</div></td></tr><tr><td style="font-weight:bold;vertical-align:top;">wsgi_multiprocess</td><td style="vertical-align:top;">:</td><td><div>False</div></td></tr><tr><td style="font-weight:bold;vertical-align:top;">wsgi_multithread</td><td style="vertical-align:top;">:</td><td><div>True</div></td></tr><tr><td style="font-weight:bold;vertical-align:top;">wsgi_run_once</td><td style="vertical-align:top;">:</td><td><div>False</div></td></tr><tr><td style="font-weight:bold;vertical-align:top;">wsgi_url_scheme</td><td style="vertical-align:top;">:</td><td><div>http</div></td></tr><tr><td style="font-weight:bold;vertical-align:top;">wsgi_version</td><td style="vertical-align:top;">:</td><td><div><table><tr><td><div>1</div></td></tr><tr><td><div>0</div></td></tr></table></div></td></tr></table></div></td></tr><tr><td style="font-weight:bold;vertical-align:top;">extension</td><td style="vertical-align:top;">:</td><td><div>html</div></td></tr><tr><td style="font-weight:bold;vertical-align:top;">folder</td><td style="vertical-align:top;">:</td><td><div>C:\\Users\\F6\\Downloads\\bahadi\\9026-py2\\applications\\cms\\</div></td></tr><tr><td style="font-weight:bold;vertical-align:top;">function</td><td style="vertical-align:top;">:</td><td><div>folder</div></td></tr><tr><td style="font-weight:bold;vertical-align:top;">global_settings</td><td style="vertical-align:top;">:</td><td><div><table><tr><td style="font-weight:bold;vertical-align:top;">app_folders</td><td style="vertical-align:top;">:</td><td><div>set([&#x27;C:\\\\Users\\\\F6\\\\Downloads\\\\bahadi\\\\9026-py2\\\\applications\\\\cms\\\\&#x27;])</div></td></tr><tr><td style="font-weight:bold;vertical-align:top;">applications_parent</td><td style="vertical-align:top;">:</td><td><div>C:\\Users\\F6\\Downloads\\bahadi\\9026-py2</div></td></tr><tr><td style="font-weight:bold;vertical-align:top;">cmd_args</td><td style="vertical-align:top;">:</td><td><div><table></table></div></td></tr><tr><td style="font-weight:bold;vertical-align:top;">cmd_options</td><td style="vertical-align:top;">:</td><td><div>&lt;Values at 0x4162468: {&#x27;verbose&#x27;: False, &#x27;ip&#x27;: &#x27;127.0.0.1&#x27;, &#x27;debuglevel&#x27;: 30, &#x27;with_scheduler&#x27;: False, &#x27;shutdown_timeout&#x27;: 5, &#x27;taskbar&#x27;: False, &#x27;with_coverage&#x27;: False, &#x27;pid_filename&#x27;: &#x27;httpserver.pid&#x27;, &#x27;maxthreads&#x27;: None, &#x27;softcron&#x27;: False, &#x27;server_name&#x27;: &#x27;DESKTOP-GUAHLA8&#x27;, &#x27;bpython&#x27;: False, &#x27;nogui&#x27;: False, &#x27;port&#x27;: 8000, &#x27;print_errors&#x27;: False, &#x27;extcron&#x27;: False, &#x27;runcron&#x27;: False, &#x27;run_system_tests&#x27;: False, &#x27;test&#x27;: None, &#x27;folder&#x27;: &#x27;C:\\\\Users\\\\F6\\\\Downloads\\\\bahadi\\\\9026-py2&#x27;, &#x27;config&#x27;: &#x27;&#x27;, &#x27;minthreads&#x27;: None, &#x27;shell&#x27;: None, &#x27;run&#x27;: &#x27;&#x27;, &#x27;log_filename&#x27;: &#x27;httpserver.log&#x27;, &#x27;profiler_dir&#x27;: None, &#x27;args&#x27;: [&#x27;&#x27;], &#x27;socket_timeout&#x27;: 5, &#x27;ssl_ca_certificate&#x27;: None, &#x27;scheduler&#x27;: None, &#x27;interfaces&#x27;: None, &#x27;ssl_private_key&#x27;: &#x27;&#x27;, &#x27;gae&#x27;: None, &#x27;password&#x27;: &#x27;******&#x27;, &#x27;request_queue_size&#x27;: 5, &#x27;ssl_certificate&#x27;: &#x27;&#x27;, &#x27;cronjob&#x27;: False, &#x27;numthreads&#x27;: None, &#x27;quiet&#x27;: False, &#x27;import_models&#x27;: False, &#x27;timeout&#x27;: 10, &#x27;plain&#x27;: False, &#x27;nobanner&#x27;: False}&gt;</div></td></tr><tr><td style="font-weight:bold;vertical-align:top;">db_sessions</td><td style="vertical-align:top;">:</td><td><div>set([])</div></td></tr><tr><td style="font-weight:bold;vertical-align:top;">debugging</td><td style="vertical-align:top;">:</td><td><div>False</div></td></tr><tr><td style="font-weight:bold;vertical-align:top;">gluon_parent</td><td style="vertical-align:top;">:</td><td><div>C:\\Users\\F6\\Downloads\\bahadi\\9026-py2</div></td></tr><tr><td style="font-weight:bold;vertical-align:top;">is_jython</td><td style="vertical-align:top;">:</td><td><div>False</div></td></tr><tr><td style="font-weight:bold;vertical-align:top;">is_pypy</td><td style="vertical-align:top;">:</td><td><div>False</div></td></tr><tr><td style="font-weight:bold;vertical-align:top;">is_source</td><td style="vertical-align:top;">:</td><td><div>True</div></td></tr><tr><td style="font-weight:bold;vertical-align:top;">local_hosts</td><td style="vertical-align:top;">:</td><td><div><table><tr><td><div>192.168.1.93</div></td></tr><tr><td><div>fe80::7fed:a3c0:ee6e:c02e%3</div></td></tr><tr><td><div>::ffff:127.0.0.1</div></td></tr><tr><td><div>::1</div></td></tr><tr><td><div>DESKTOP-GUAHLA8</div></td></tr><tr><td><div>192.168.186.1</div></td></tr><tr><td><div>169.254.226.3</div></td></tr><tr><td><div>127.0.0.1</div></td></tr><tr><td><div>fe80::d487:29a4:871:bc6e%16</div></td></tr></table></div></td></tr><tr><td style="font-weight:bold;vertical-align:top;">web2py_version</td><td style="vertical-align:top;">:</td><td><div>2.21.1-stable+timestamp.2020.11.28.04.10.44</div></td></tr></table></div></td></tr><tr><td style="font-weight:bold;vertical-align:top;">is_https</td><td style="vertical-align:top;">:</td><td><div>False</div></td></tr><tr><td style="font-weight:bold;vertical-align:top;">is_local</td><td style="vertical-align:top;">:</td><td><div>True</div></td></tr><tr><td style="font-weight:bold;vertical-align:top;">is_restful</td><td style="vertical-align:top;">:</td><td><div>False</div></td></tr><tr><td style="font-weight:bold;vertical-align:top;">is_scheduler</td><td style="vertical-align:top;">:</td><td><div>False</div></td></tr><tr><td style="font-weight:bold;vertical-align:top;">is_shell</td><td style="vertical-align:top;">:</td><td><div>False</div></td></tr><tr><td style="font-weight:bold;vertical-align:top;">now</td><td style="vertical-align:top;">:</td><td><div>datetime.datetime(2024, 8, 21, 8, 48, 4, 522000)</div></td></tr><tr><td style="font-weight:bold;vertical-align:top;">url</td><td style="vertical-align:top;">:</td><td><div>/gioi-thieu</div></td></tr><tr><td style="font-weight:bold;vertical-align:top;">utcnow</td><td style="vertical-align:top;">:</td><td><div>datetime.datetime(2024, 8, 21, 1, 48, 4, 522000)</div></td></tr><tr><td style="font-weight:bold;vertical-align:top;">wsgi</td><td style="vertical-align:top;">:</td><td><div>&lt;gluon.main.LazyWSGI object at 0x0AFE8F10&gt;</div></td></tr></table></div>'
tRp58
sS'frames'
p59
(lp60
(dp61
S'file'
p62
S'C:\\Users\\F6\\Downloads\\bahadi\\9026-py2\\gluon\\restricted.py'
p63
sS'dump'
p64
(dp65
S'environment'
p66
S"{'A': <class 'gluon.html.A'>, 'ANY_OF': <class 'gluon.validators.ANY_OF'>, 'ASSIGNJS': <function ASSIGNJS>, 'AppConfig': <function AppConfig>, 'Auth': <class 'gluon.tools.Auth'>, 'B': <class 'gluon.html.B'>, 'BEAUTIFY': <class 'gluon.html.BEAUTIFY'>, 'BODY': <class 'gluon.html.BODY'>, 'BR': <class 'gluon.html.BR'>, 'BUTTON': <class 'gluon.html.BUTTON'>, ...}"
p67
sS'ccode'
p68
S'<code object <module> at 044B2140, file "C:\\User...ws\\site/ghephang/default/gioithieu.html", line 1>'
p69
ssS'lnum'
p70
I227
sS'lines'
p71
(dp72
I224
S'            ccode = code'
p73
sI225
S'        else:'
p74
sI226
S'            ccode = compile2(code, layer)'
p75
sI227
S'        exec ccode in environment'
p76
sI228
S'    except HTTP:'
p77
sI229
S'        raise'
p78
sI230
S'    except RestrictedError:'
p79
sI231
S'        # do not encapsulate (obfuscate) the original RestrictedError'
p80
sI222
S'    try:'
p81
sI223
S'        if isinstance(code, types.CodeType):'
p82
ssS'call'
p83
S'(code=\'response.write(\\\'<!doctype html>\\\\r\\\\n<html lang="e...write(\\\'\\\\r\\\\n</body>\\\\r\\\\n\\\\r\\\\n</html>\\\', escape=False)\', environment={\'A\': <class \'gluon.html.A\'>, \'ANY_OF\': <class \'gluon.validators.ANY_OF\'>, \'ASSIGNJS\': <function ASSIGNJS>, \'AppConfig\': <function AppConfig>, \'Auth\': <class \'gluon.tools.Auth\'>, \'B\': <class \'gluon.html.B\'>, \'BEAUTIFY\': <class \'gluon.html.BEAUTIFY\'>, \'BODY\': <class \'gluon.html.BODY\'>, \'BR\': <class \'gluon.html.BR\'>, \'BUTTON\': <class \'gluon.html.BUTTON\'>, ...}, layer=r\'C:\\Users\\F6\\Downloads\\bahadi\\9026-py2\\applications\\cms\\views\\site/ghephang/default/gioithieu.html\')'
p84
sS'func'
p85
S'restricted'
p86
sa(dp87
g62
S'C:\\Users\\F6\\Downloads\\bahadi\\9026-py2\\applications\\cms\\views\\site\\ghephang\\default\\gioithieu.html'
p88
sg64
(dp89
S'div'
p90
S'undefined'
p91
ssg70
I95
sg71
(dp92
I96
S'response.write(\'" style=" position: absolute;\\r\\n    top: 50%;\\r\\n    left: 45%;\\r\\n    transform: translate(-50%, -50%);\\r\\n    ">\\r\\n                    <div class="about-quatre">\\r\\n                        <i class="bx bxs-quote-alt-left bx-tada"></i>\\r\\n                    </div>\\r\\n                </div>\\r\\n            </div>\\r\\n            <div class="col-lg-6">\\r\\n                <div class="about-content ml-30">\\r\\n                    <span>Gi\\xe1\\xbb\\x9bi thi\\xe1\\xbb\\x87u</span>\\r\\n                    <h2>C\\xc3\\xa1c gi\\xe1\\xba\\xa3i ph\\xc3\\xa1p h\\xe1\\xba\\xadu c\\xe1\\xba\\xa7n v\\xc3\\xa0 v\\xe1\\xba\\xadn chuy\\xe1\\xbb\\x83n \\xc4\\x91\\xc3\\xa1ng tin c\\xe1\\xba\\xady v\\xc3\\xa0 nhanh ch\\xc3\\xb3ng Kh\\xc3\\xb4ng l\\xc3\\xa3ng ph\\xc3\\xad th\\xe1\\xbb\\x9di gian c\\xe1\\xbb\\xa7a b\\xe1\\xba\\xa1n!</h2>\\r\\n                    <p class="mb-0" style="text-align: justify;">\\r\\n                        Nh\\xe1\\xba\\xadn th\\xe1\\xba\\xa5y quy tr\\xc3\\xacnh \\xc4\\x91\\xe1\\xba\\xb7t giao h\\xc3\\xa0ng th\\xc3\\xb4ng qua t\\xe1\\xbb\\x95ng \\xc4\\x91\\xc3\\xa0i trung t\\xc3\\xa2m c\\xc3\\xb3 ph\\xe1\\xbb\\xa9c t\\xe1\\xba\\xa1p v\\xc3\\xa0 th\\xe1\\xbb\\xa7 c\\xc3\\xb4ng, c\\xc3\\xb9ng v\\xe1\\xbb\\x9bi s\\xe1\\xbb\\xb1 thi\\xe1\\xba\\xbfu minh b\\xe1\\xba\\xa1ch v\\xe1\\xbb\\x81 gi\\xc3\\xa1 c\\xe1\\xba\\xa3 v\\xc3\\xa0 ch\\xe1\\xba\\xa5t l\\xc6\\xb0\\xe1\\xbb\\xa3ng, m\\xe1\\xbb\\x99t\\r\\n                        nh\\xc3\\xb3m chuy\\xc3\\xaan gia \\xc4\\x91\\xc3\\xa3 c\\xc3\\xb9ng nhau t\\xc3\\xacm ra gi\\xe1\\xba\\xa3i ph\\xc3\\xa1p.\\r\\n                    <br>\\r\\n                    Ghephang ra \\xc4\\x91\\xe1\\xbb\\x9di v\\xe1\\xbb\\x9bi m\\xe1\\xbb\\xa5c ti\\xc3\\xaau gi\\xc3\\xbap m\\xe1\\xbb\\x8di ng\\xc6\\xb0\\xe1\\xbb\\x9di c\\xc3\\xb3 th\\xe1\\xbb\\x83 \\xc4\\x91\\xe1\\xba\\xb7t giao h\\xc3\\xa0ng theo y\\xc3\\xaau c\\xe1\\xba\\xa7u ch\\xe1\\xbb\\x89 v\\xe1\\xbb\\x9bi m\\xe1\\xbb\\x99t c\\xc3\\xba ch\\xe1\\xba\\xa1m. Qua \\xe1\\xbb\\xa9ng d\\xe1\\xbb\\xa5ng duy nh\\xe1\\xba\\xa5t, ng\\xc6\\xb0\\xe1\\xbb\\x9di d\\xc3\\xb9ng c\\xc3\\xb3 th\\xe1\\xbb\\x83 ti\\xe1\\xba\\xbfp c\\xe1\\xba\\xadn v\\xe1\\xbb\\x9bi nhi\\xe1\\xbb\\x81u ph\\xc6\\xb0\\xc6\\xa1ng ti\\xe1\\xbb\\x87n giao h\\xc3\\xa0ng ph\\xc3\\xb9 h\\xe1\\xbb\\xa3p do c\\xc3\\xa1c t\\xc3\\xa0i x\\xe1\\xba\\xbf chuy\\xc3\\xaan nghi\\xe1\\xbb\\x87p \\xc4\\x91\\xe1\\xba\\xa3m nh\\xe1\\xba\\xadn.\\r\\n                    <br>\\r\\n                    Ch\\xe1\\xbb\\x89 c\\xe1\\xba\\xa7n nh\\xe1\\xba\\xadp \\xc4\\x91\\xe1\\xbb\\x8ba \\xc4\\x91i\\xe1\\xbb\\x83m nh\\xe1\\xba\\xadn v\\xc3\\xa0 tr\\xe1\\xba\\xa3 h\\xc3\\xa0ng, l\\xe1\\xbb\\xb1a ch\\xe1\\xbb\\x8dn lo\\xe1\\xba\\xa1i xe ph\\xc3\\xb9 h\\xe1\\xbb\\xa3p v\\xe1\\xbb\\x9bi nhu c\\xe1\\xba\\xa7u, b\\xe1\\xba\\xa1n c\\xc3\\xb3 th\\xe1\\xbb\\x83 nhanh ch\\xc3\\xb3ng k\\xe1\\xba\\xbft n\\xe1\\xbb\\x91i v\\xe1\\xbb\\x9bi t\\xc3\\xa0i x\\xe1\\xba\\xbf g\\xe1\\xba\\xa7n nh\\xe1\\xba\\xa5t s\\xe1\\xba\\xb5n s\\xc3\\xa0ng nh\\xe1\\xba\\xadn giao \\xc4\\x91\\xc6\\xa1n h\\xc3\\xa0ng c\\xe1\\xbb\\xa7a b\\xe1\\xba\\xa1n ngay l\\xe1\\xba\\xadp t\\xe1\\xbb\\xa9c\\r\\n                    <br/>\\r\\n                    \\xe1\\xbb\\xa8ng d\\xe1\\xbb\\xa5ng GHEPHANG gi\\xc3\\xbap b\\xe1\\xba\\xa1n theo d\\xc3\\xb5i to\\xc3\\xa0n b\\xe1\\xbb\\x99 qu\\xc3\\xa1 tr\\xc3\\xacnh giao h\\xc3\\xa0ng t\\xe1\\xbb\\xab khi nh\\xe1\\xba\\xadn h\\xc3\\xa0ng \\xc4\\x91\\xe1\\xba\\xbfn khi ho\\xc3\\xa0n th\\xc3\\xa0nh \\xc4\\x91\\xc6\\xa1n h\\xc3\\xa0ng m\\xe1\\xbb\\x99t c\\xc3\\xa1ch d\\xe1\\xbb\\x85 d\\xc3\\xa0ng. B\\xe1\\xba\\xa1n c\\xc3\\xb3 th\\xe1\\xbb\\x83 theo d\\xc3\\xb5i tr\\xe1\\xbb\\xb1c ti\\xe1\\xba\\xbfp \\xc4\\x91\\xc6\\xa1n h\\xc3\\xa0ng, l\\xe1\\xbb\\xb1a ch\\xe1\\xbb\\x8dn thanh to\\xc3\\xa1n qua v\\xc3\\xad \\xc4\\x91i\\xe1\\xbb\\x87n t\\xe1\\xbb\\xad v\\xc3\\xa0 xem l\\xe1\\xba\\xa1i l\\xe1\\xbb\\x8bch s\\xe1\\xbb\\xad giao h\\xc3\\xa0ng, t\\xe1\\xba\\xa5t c\\xe1\\xba\\xa3 trong m\\xe1\\xbb\\x99t \\xe1\\xbb\\xa9ng d\\xe1\\xbb\\xa5ng duy nh\\xe1\\xba\\xa5t\\r\\n                   </p>\\r\\n                </div>\\r\\n            </div>\\r\\n        </div>\\r\\n    </div>\\r\\n</section>\\r\\n<!-- End About Area -->\\r\\n\\r\\n<!-- Start Why Choose Us Area -->\\r\\n<section class="choose-us-area pb-100">\\r\\n    <div class="container">\\r\\n        <div class="section-title">\\r\\n            <span>T\\xe1\\xba\\xa1i sao n\\xc3\\xaan l\\xe1\\xbb\\xb1a ch\\xe1\\xbb\\x8dn ch\\xc3\\xbang t\\xc3\\xb4i</span>\\r\\n            <h2>Mang gi\\xe1\\xba\\xa3i ph\\xc3\\xa1p v\\xe1\\xba\\xadn chuy\\xe1\\xbb\\x83n hi\\xe1\\xbb\\x87u qu\\xe1\\xba\\xa3 cho b\\xe1\\xba\\xa1n</h2>\\r\\n        </div>\\r\\n        <div class="row">\\r\\n            <div class="col-lg-7 pr-0">\\r\\n                <div class="choose-tab-wrap">\\r\\n                    <h2>T\\xe1\\xba\\xa1i sao C\\xc3\\xb4ng ty ch\\xc3\\xbang t\\xc3\\xb4i l\\xc3\\xa0 t\\xe1\\xbb\\x91t nh\\xe1\\xba\\xa5t</h2>\\r\\n                    <div class="tab quote-list-tab choose-tab">\\r\\n                        <ul class="tabs">\\r\\n                            <li>\\r\\n                                <a href="#">\\r\\n                                    S\\xe1\\xbb\\xa9 m\\xe1\\xbb\\x87nh\\r\\n                                </a>\\r\\n                            </li>\\r\\n                            <li>\\r\\n                                <a href="#">\\r\\n                                    T\\xe1\\xba\\xa7m nh\\xc3\\xacn\\r\\n                                </a>\\r\\n                            </li>\\r\\n                            <li>\\r\\n                                <a href="#">\\r\\n                                    M\\xe1\\xbb\\xa5c ti\\xc3\\xaau\\r\\n                                </a>\\r\\n                            </li>\\r\\n                        </ul>\\r\\n                        <div class="tab_content">\\r\\n                            <div class="tabs_item">\\r\\n                                <p><b>S\\xe1\\xbb\\xa9 m\\xe1\\xbb\\x87nh</b>\\r\\n                                c\\xe1\\xbb\\xa7a ch\\xc3\\xbang t\\xc3\\xb4i l\\xc3\\xa0 mang \\xc4\\x91\\xe1\\xba\\xbfn cho m\\xe1\\xbb\\x8di ng\\xc6\\xb0\\xe1\\xbb\\x9di, b\\xe1\\xba\\xa5t k\\xe1\\xbb\\x83 n\\xc6\\xa1i n\\xc3\\xa0o h\\xe1\\xbb\\x8d c\\xc3\\xb3 m\\xe1\\xba\\xb7t, c\\xc6\\xa1 h\\xe1\\xbb\\x99i tham gia kinh doanh\\r\\n                                tr\\xe1\\xbb\\xb1c tuy\\xe1\\xba\\xbfn ch\\xe1\\xbb\\x89 v\\xe1\\xbb\\x9bi m\\xe1\\xbb\\x99t chi\\xe1\\xba\\xbfc \\xc4\\x91i\\xe1\\xbb\\x87n tho\\xe1\\xba\\xa1i di \\xc4\\x91\\xe1\\xbb\\x99ng. Ch\\xc3\\xbang t\\xc3\\xb4i tin r\\xe1\\xba\\xb1ng b\\xe1\\xba\\xb1ng c\\xc3\\xa1ch n\\xc3\\xa0y, m\\xe1\\xbb\\x8di ng\\xc6\\xb0\\xe1\\xbb\\x9di c\\xc3\\xb3 th\\xe1\\xbb\\x83 nu\\xc3\\xb4i\\r\\n                                d\\xc6\\xb0\\xe1\\xbb\\xa1ng \\xc6\\xb0\\xe1\\xbb\\x9bc m\\xc6\\xa1 t\\xe1\\xbb\\xb1 doanh, t\\xe1\\xbb\\xb1 l\\xe1\\xba\\xadp v\\xc3\\xa0 thay \\xc4\\x91\\xe1\\xbb\\x95i cu\\xe1\\xbb\\x99c s\\xe1\\xbb\\x91ng c\\xe1\\xbb\\xa7a m\\xc3\\xacnh</p>\\r\\n                                <a class="default-btn" href="about-us.html">\\r\\n                                    Xem th\\xc3\\xaam\\r\\n                                </a>\\r\\n                            </div>\\r\\n\\r\\n                            <div class="tabs_item">\\r\\n                                <p><b>T\\xe1\\xba\\xa7m nh\\xc3\\xacn:</b> Ch\\xc3\\xbang t\\xc3\\xb4i t\\xe1\\xba\\xadp trung v\\xc3\\xa0o s\\xe1\\xbb\\xb1 ti\\xc3\\xaan phong trong s\\xe1\\xbb\\xad d\\xe1\\xbb\\xa5ng c\\xc3\\xb4ng ngh\\xe1\\xbb\\x87, v\\xc3\\xa0 kh\\xc3\\xa1ch h\\xc3\\xa0ng l\\xc3\\xa0 tr\\xe1\\xbb\\x8dng t\\xc3\\xa2m c\\xe1\\xbb\\xa7ach\\xc3\\xbang t\\xc3\\xb4i.\\r\\n                                    Ch\\xc3\\xbang t\\xc3\\xb4i \\xc4\\x91\\xe1\\xba\\xb7t m\\xe1\\xbb\\xa5c ti\\xc3\\xaau l\\xc3\\xa0 \\xc3\\xa1p d\\xe1\\xbb\\xa5ng s\\xc3\\xa2u r\\xe1\\xbb\\x99ng c\\xc3\\xa1c c\\xc3\\xb4ng ngh\\xe1\\xbb\\x87 ti\\xc3\\xaan ti\\xe1\\xba\\xbfn v\\xc3\\xa0 khai th\\xc3\\xa1c d\\xe1\\xbb\\xaf li\\xe1\\xbb\\x87u \\xc4\\x91\\xe1\\xbb\\x83 t\\xe1\\xba\\xa1o ra ph\\xc6\\xb0\\xc6\\xa1ng\\r\\n                                    th\\xe1\\xbb\\xa9c v\\xe1\\xba\\xadn h\\xc3\\xa0nh ti\\xe1\\xba\\xbft ki\\xe1\\xbb\\x87m v\\xc3\\xa0 hi\\xe1\\xbb\\x87u qu\\xe1\\xba\\xa3 cao cho kh\\xc3\\xa1ch h\\xc3\\xa0ng. Ghephang.com s\\xe1\\xba\\xbd l\\xc3\\xa0 m\\xe1\\xbb\\x99t n\\xe1\\xbb\\x81n t\\xe1\\xba\\xa3ng h\\xe1\\xba\\xadu c\\xe1\\xba\\xa7n \\xc4\\x91\\xc3\\xa1ng\\r\\n                                    tin c\\xe1\\xba\\xady, s\\xe1\\xbb\\xad d\\xe1\\xbb\\xa5ng tr\\xc3\\xad tu\\xe1\\xbb\\x87 nh\\xc3\\xa2n t\\xe1\\xba\\xa1o v\\xc3\\xa0 h\\xe1\\xbb\\x8dc m\\xc3\\xa1y \\xc4\\x91\\xe1\\xbb\\x83 t\\xe1\\xbb\\x91i \\xc6\\xb0u quy tr\\xc3\\xacnh h\\xe1\\xba\\xadu c\\xe1\\xba\\xa7n v\\xc3\\xa0 cung c\\xe1\\xba\\xa5p d\\xe1\\xbb\\x8bch v\\xe1\\xbb\\xa5 ch\\xe1\\xba\\xa5t l\\xc6\\xb0\\xe1\\xbb\\xa3ng.\\r\\n                                    </p>\\r\\n                                <a class="default-btn" href="about-us.html">\\r\\n                                    Xem th\\xc3\\xaam\\r\\n                                </a>\\r\\n                            </div>\\r\\n\\r\\n                            <div class="tabs_item">\\r\\n                                <p><b>M\\xe1\\xbb\\xa5c ti\\xc3\\xaau:</b> th\\xc6\\xb0\\xc6\\xa1ng hi\\xe1\\xbb\\x87u chuy\\xe1\\xbb\\x83n gh\\xc3\\xa9p h\\xc3\\xa0ng uy t\\xc3\\xadn v\\xc3\\xa0 ph\\xe1\\xbb\\xa7 kh\\xe1\\xba\\xafp Vi\\xe1\\xbb\\x87t Nam</p>\\r\\n                                <a class="default-btn" href="about-us.html">\\r\\n                                    Xem th\\xc3\\xaam\\r\\n                                </a>\\r\\n                            </div>\\r\\n                        </div>\\r\\n                    </div>\\r\\n                </div>\\r\\n            </div>\\r\\n            <div class="col-lg-5 pl-0">\\r\\n                <div class="choose-img choose-img-four">\\r\\n                </div>\\r\\n            </div>\\r\\n        </div>\\r\\n    </div>\\r\\n</section>\\r\\n<!-- End Why Choose Us Area -->\\r\\n\\r\\n<!-- End Began Area -->\\r\\n\', escape=False)'
p93
sI97
S'response.write(\'<!-- End Began Area -->\\n<section class="began-area began-area-three began-area-four">\\n    <div class="container-fluid p-0">\\n        <div class="began-top-wrap">\\n            <div class="row">\\n                <div class="col-lg-5 pr-0">\\n                    <div class="begans-bg">\\n                    </div>\\n                </div>\\n                <div class="col-lg-7 pl-0">\\n                    <div class="began-wrap">\\n                        <h2>Gi\\xe1\\xbb\\xaf an to\\xc3\\xa0n cho h\\xc3\\xa0ng h\\xc3\\xb3a c\\xe1\\xbb\\xa7a b\\xe1\\xba\\xa1n v\\xe1\\xbb\\x9bi Ghephang</h2>\\n                        <div class="row">\\n                            <div class="col-lg-4 col-sm-6 p-0">\\n                                <div class="single-began">\\n                                    <i class="flaticon-fast-delivery"></i>\\n                                    <h3>Giao h\\xc3\\xa0ng nhanh v\\xc3\\xa0 hi\\xe1\\xbb\\x87u qu\\xe1\\xba\\xa3</h3>\\n                                </div>\\n                            </div>\\n                            <div class="col-lg-4 col-sm-6 p-0">\\n                                <div class="single-began">\\n                                    <i class="flaticon-lock"></i>\\n                                    <h3>B\\xe1\\xba\\xa3o hi\\xe1\\xbb\\x83m cho ph\\xc6\\xb0\\xc6\\xa1ng ti\\xe1\\xbb\\x87n v\\xe1\\xba\\xadn chuy\\xe1\\xbb\\x83n</h3>\\n                                </div>\\n                            </div>\\n                            <div class="col-lg-4 col-sm-6 p-0">\\n                                <div class="single-began">\\n                                    <i class="flaticon-stopwatch"></i>\\n                                    <h3>Theo d\\xc3\\xb5i th\\xe1\\xbb\\x9di gian th\\xe1\\xbb\\xb1c</h3>\\n                                </div>\\n                            </div>\\n                            <div class="col-lg-4 col-sm-6 p-0">\\n                                <div class="single-began">\\n                                    <i class="flaticon-payment-method"></i>\\n                                    <h3>Ph\\xc6\\xb0\\xc6\\xa1ng th\\xe1\\xbb\\xa9c thanh to\\xc3\\xa1n d\\xe1\\xbb\\x85 d\\xc3\\xa0ng</h3>\\n                                </div>\\n                            </div>\\n                            <div class="col-lg-4 col-sm-6 p-0">\\n                                <div class="single-began">\\n                                    <i class="flaticon-warehouse"></i>\\n                                    <h3>H\\xe1\\xbb\\x97 tr\\xe1\\xbb\\xa3 24/7</h3>\\n                                </div>\\n                            </div>\\n                            <div class="col-lg-4 col-sm-6 p-0">\\n                                <div class="single-began">\\n                                    <i class="flaticon-distribution"></i>\\n                                    <h3>Kho l\\xc6\\xb0u tr\\xe1\\xbb\\xaf an to\\xc3\\xa0n</h3>\\n                                </div>\\n                            </div>\\n                        </div>\\n                    </div>\\n                </div>\\n            </div>\\n        </div>\\n    </div>\\n</section>\\n<!-- End Began Area -->\', escape=False)'
p94
sI98
S'response.write(\'\\r\\n<!-- End Began Area -->\\r\\n\\r\\n<!-- Start Team Area -->\\r\\n<!--\\r\\n<section class="team-area pt-100 pb-70">\\r\\n    <div class="container">\\r\\n        <div class="section-title">\\r\\n            <span>\\xc4\\x90\\xe1\\xbb\\x99i ng\\xc5\\xa9 chuy\\xc3\\xaan gia</span>\\r\\n            <h2>\\xc4\\x90\\xe1\\xbb\\x99i ng\\xc5\\xa9 chuy\\xc3\\xaan gia h\\xe1\\xbb\\x97 tr\\xe1\\xbb\\xa3 c\\xe1\\xbb\\xa7a ch\\xc3\\xbang t\\xc3\\xb4i \\xc4\\x91\\xe1\\xba\\xa7y \\xc4\\x91\\xe1\\xbb\\xa7 k\\xe1\\xbb\\xb9 n\\xc4\\x83ng v\\xc3\\xa0 kinh nghi\\xe1\\xbb\\x87m</h2>\\r\\n            <ul>\\r\\n                <li>Chuy\\xc3\\xaan gia Tr\\xe1\\xba\\xa7n v\\xc4\\x83n A \\xe2\\x80\\x93 Chuy\\xc3\\xaan m\\xc3\\xb4n System & Network</li>\\r\\n                <li>Chuy\\xc3\\xaan gia Tr\\xe1\\xba\\xa7n v\\xc4\\x83n B \\xe2\\x80\\x93 Chuy\\xc3\\xaan m\\xc3\\xb4n Application high performance</li>\\r\\n                <li>Chuy\\xc3\\xaan gia Tr\\xe1\\xba\\xa7n v\\xc4\\x83n C \\xe2\\x80\\x93 Chuy\\xc3\\xaan m\\xc3\\xb4n iOS &Android High performance mobile</li>\\r\\n                <li>Chuy\\xc3\\xaan gia Tr\\xe1\\xba\\xa7n v\\xc4\\x83n D \\xe2\\x80\\x93 Chuy\\xc3\\xaan m\\xc3\\xb4n Security</li>\\r\\n            </ul>\\r\\n        </div>\\r\\n        <div class="row">\\r\\n            <div class="col-lg-3 col-sm-6">\\r\\n                <div class="single-team">\\r\\n                    <img src="\', escape=False)'
p95
sI99
S"response.write(URL('static','%s/img')%(static_default))"
p96
sI100
S'response.write(\'/team/1.jpg" alt="Image">\\r\\n                    <div class="team-content">\\r\\n                        <h3>Jonkin Jullinor</h3>\\r\\n                        <span>Product supplier</span>\\r\\n                    </div>\\r\\n                    <ul>\\r\\n                        <li>\\r\\n                            <a href="#">\\r\\n                                <i class="bx bxl-facebook"></i>\\r\\n                            </a>\\r\\n                        </li>\\r\\n                        <li>\\r\\n                            <a href="#">\\r\\n                                <i class="bx bxl-twitter"></i>\\r\\n                            </a>\\r\\n                        </li>\\r\\n                        <li>\\r\\n                            <a href="#">\\r\\n                                <i class="bx bxl-instagram"></i>\\r\\n                            </a>\\r\\n                        </li>\\r\\n                        <li>\\r\\n                            <a href="#">\\r\\n                                <i class="bx bxl-linkedin"></i>\\r\\n                            </a>\\r\\n                        </li>\\r\\n                    </ul>\\r\\n                </div>\\r\\n            </div>\\r\\n            <div class="col-lg-3 col-sm-6">\\r\\n                <div class="single-team">\\r\\n                    <img src="\', escape=False)'
p97
sI101
S"response.write(URL('static','%s/img')%(static_default))"
p98
sI102
S'response.write(\'/team/2.jpg" alt="Image">\\r\\n                    <div class="team-content">\\r\\n                        <h3>Naimuk Waninolin</h3>\\r\\n                        <span>Office executive support</span>\\r\\n                    </div>\\r\\n                    <ul>\\r\\n                        <li>\\r\\n                            <a href="#">\\r\\n                                <i class="bx bxl-facebook"></i>\\r\\n                            </a>\\r\\n                        </li>\\r\\n                        <li>\\r\\n                            <a href="#">\\r\\n                                <i class="bx bxl-twitter"></i>\\r\\n                            </a>\\r\\n                        </li>\\r\\n                        <li>\\r\\n                            <a href="#">\\r\\n                                <i class="bx bxl-instagram"></i>\\r\\n                            </a>\\r\\n                        </li>\\r\\n                        <li>\\r\\n                            <a href="#">\\r\\n                                <i class="bx bxl-linkedin"></i>\\r\\n                            </a>\\r\\n                        </li>\\r\\n                    </ul>\\r\\n                </div>\\r\\n            </div>\\r\\n            <div class="col-lg-3 col-sm-6">\\r\\n                <div class="single-team">\\r\\n                    <img src="\', escape=False)'
p99
sI103
S"response.write(URL('static','%s/img')%(static_default))"
p100
sI104
S'response.write(\'/team/3.jpg" alt="Image">\\r\\n                    <div class="team-content">\\r\\n                        <h3>Moris Julfikar</h3>\\r\\n                        <span>Regional supplier</span>\\r\\n                    </div>\\r\\n                    <ul>\\r\\n                        <li>\\r\\n                            <a href="#">\\r\\n                                <i class="bx bxl-facebook"></i>\\r\\n                            </a>\\r\\n                        </li>\\r\\n                        <li>\\r\\n                            <a href="#">\\r\\n                                <i class="bx bxl-twitter"></i>\\r\\n                            </a>\\r\\n                        </li>\\r\\n                        <li>\\r\\n                            <a href="#">\\r\\n                                <i class="bx bxl-instagram"></i>\\r\\n                            </a>\\r\\n                        </li>\\r\\n                        <li>\\r\\n                            <a href="#">\\r\\n                                <i class="bx bxl-linkedin"></i>\\r\\n                            </a>\\r\\n                        </li>\\r\\n                    </ul>\\r\\n                </div>\\r\\n            </div>\\r\\n            <div class="col-lg-3 col-sm-6">\\r\\n                <div class="single-team">\\r\\n                    <img src="\', escape=False)'
p101
sI105
S"response.write(URL('static','%s/img')%(static_default))"
p102
sI86
S"response.write('\\r\\n', escape=False)"
p103
sI87
S'response.write(\'<!-- Start Page Title Area -->\\r\\n<div class="page-title-area item-bg-1 jarallax" data-jarallax=\\\'{"speed": 0.3}\\\'>\\r\\n    <div class="container">\\r\\n        <div class="page-title-content">\\r\\n            <div class="row align-items-center">\\r\\n                <div class="col-lg-6 col-sm-6">\\r\\n                    <h2>\', escape=False)'
p104
sI88
S'response.write(page_title)'
p105
sI89
S'response.write(\'</h2>\\r\\n                </div>\\r\\n                <div class="col-lg-6 col-sm-6">\\r\\n                    <ul>\\r\\n                        <li>\\r\\n                            <a href="/">\\r\\n                                Trang ch\\xe1\\xbb\\xa7\\r\\n                            </a>\\r\\n                        </li>\\r\\n                        <li>\', escape=False)'
p106
sI90
S'response.write(page_title)'
p107
sI91
S"response.write('</li>\\r\\n                    </ul>\\r\\n                </div>\\r\\n            </div>\\r\\n        </div>\\r\\n    </div>\\r\\n</div>\\r\\n<!-- End Page Title Area -->', escape=False)"
p108
sI92
S'response.write(\'\\r\\n\\r\\n\\r\\n<!-- Start About Area -->\\r\\n<section class="about-area ptb-100">\\r\\n    <div class="container">\\r\\n        <div class="row align-items-center">\\r\\n            <div class="col-lg-6">\\r\\n                <div class="about-img" style="position: relative;">\\r\\n                    <img src="\', escape=False)'
p109
sI93
S"response.write(URL('static','%s/img')%(static_default))"
p110
sI94
S'response.write(\'/about-img.jpg" alt="Image">\\r\\n                     <a class="white video-btn popup-youtube" href="\', escape=False)'
p111
sI95
S"response.write(data['video'])"
p112
ssg83
S'()'
p113
sg85
S'<module>'
p114
sasS'pyver'
p115
S'Python 2.7.18: C:\\Python27\\python.exe (prefix: C:\\Python27)'
p116
sS'session'
p117
g57
(S's\x1a\x00\x00\x00<div><table></table></div>'
tRp118
sS'etype'
p119
S"<type 'exceptions.NameError'>"
p120
sS'date'
p121
S'Wed Aug 21 08:48:04 2024'
p122
sS'response'
p123
g57
(S'sT\x17\x00\x00<div><table><tr><td style="font-weight:bold;vertical-align:top;">body</td><td style="vertical-align:top;">:</td><td><div>&lt;cStringIO.StringO object at 0x0AFE8A00&gt;</div></td></tr><tr><td style="font-weight:bold;vertical-align:top;">cookies</td><td style="vertical-align:top;">:</td><td><div><table><tr><td style="font-weight:bold;vertical-align:top;">session_id_cms</td><td style="vertical-align:top;">:</td><td><div>127.0.0.1-68c3aed4-0111-4ea5-8860-4bd81d18f318<table><tr><td style="font-weight:bold;vertical-align:top;">comment</td><td style="vertical-align:top;">:</td><td><div></div></td></tr><tr><td style="font-weight:bold;vertical-align:top;">domain</td><td style="vertical-align:top;">:</td><td><div></div></td></tr><tr><td style="font-weight:bold;vertical-align:top;">expires</td><td style="vertical-align:top;">:</td><td><div></div></td></tr><tr><td style="font-weight:bold;vertical-align:top;">httponly</td><td style="vertical-align:top;">:</td><td><div></div></td></tr><tr><td style="font-weight:bold;vertical-align:top;">max-age</td><td style="vertical-align:top;">:</td><td><div></div></td></tr><tr><td style="font-weight:bold;vertical-align:top;">path</td><td style="vertical-align:top;">:</td><td><div>/</div></td></tr><tr><td style="font-weight:bold;vertical-align:top;">secure</td><td style="vertical-align:top;">:</td><td><div></div></td></tr><tr><td style="font-weight:bold;vertical-align:top;">version</td><td style="vertical-align:top;">:</td><td><div></div></td></tr></table></div></td></tr></table></div></td></tr><tr><td style="font-weight:bold;vertical-align:top;">delimiters</td><td style="vertical-align:top;">:</td><td><div><table><tr><td><div>{{</div></td></tr><tr><td><div>}}</div></td></tr></table></div></td></tr><tr><td style="font-weight:bold;vertical-align:top;">files</td><td style="vertical-align:top;">:</td><td><div><table><tr><td><div>/cms/static/js/jquery.js</div></td></tr><tr><td><div>/cms/static/css/calendar.css</div></td></tr><tr><td><div>/cms/static/js/calendar.js</div></td></tr><tr><td><div>/cms/static/js/jquery.browser.min.js</div></td></tr><tr><td><div>/cms/static/js/web2py.js</div></td></tr></table></div></td></tr><tr><td style="font-weight:bold;vertical-align:top;">flash</td><td style="vertical-align:top;">:</td><td><div></div></td></tr><tr><td style="font-weight:bold;vertical-align:top;">form_label_separator</td><td style="vertical-align:top;">:</td><td><div></div></td></tr><tr><td style="font-weight:bold;vertical-align:top;">formstyle</td><td style="vertical-align:top;">:</td><td><div>bootstrap3_inline</div></td></tr><tr><td style="font-weight:bold;vertical-align:top;">generic_patterns</td><td style="vertical-align:top;">:</td><td><div><table><tr><td><div>*</div></td></tr></table></div></td></tr><tr><td style="font-weight:bold;vertical-align:top;">headers</td><td style="vertical-align:top;">:</td><td><div><table><tr><td style="font-weight:bold;vertical-align:top;">X-Powered-By</td><td style="vertical-align:top;">:</td><td><div>web2py</div></td></tr></table></div></td></tr><tr><td style="font-weight:bold;vertical-align:top;">menu</td><td style="vertical-align:top;">:</td><td><div><table></table></div></td></tr><tr><td style="font-weight:bold;vertical-align:top;">meta</td><td style="vertical-align:top;">:</td><td><div><table></table></div></td></tr><tr><td style="font-weight:bold;vertical-align:top;">models_to_run</td><td style="vertical-align:top;">:</td><td><div><table><tr><td><div>^\\w+\\.py$</div></td></tr><tr><td><div>^portal/\\w+\\.py$</div></td></tr><tr><td><div>^portal/folder/\\w+\\.py$</div></td></tr></table></div></td></tr><tr><td style="font-weight:bold;vertical-align:top;">postprocessing</td><td style="vertical-align:top;">:</td><td><div><table></table></div></td></tr><tr><td style="font-weight:bold;vertical-align:top;">session_client</td><td style="vertical-align:top;">:</td><td><div>127.0.0.1</div></td></tr><tr><td style="font-weight:bold;vertical-align:top;">session_cookie_compression_level</td><td style="vertical-align:top;">:</td><td><div>None</div></td></tr><tr><td style="font-weight:bold;vertical-align:top;">session_cookie_expires</td><td style="vertical-align:top;">:</td><td><div>None</div></td></tr><tr><td style="font-weight:bold;vertical-align:top;">session_data_name</td><td style="vertical-align:top;">:</td><td><div>session_data_cms</div></td></tr><tr><td style="font-weight:bold;vertical-align:top;">session_file</td><td style="vertical-align:top;">:</td><td><div>None</div></td></tr><tr><td style="font-weight:bold;vertical-align:top;">session_filename</td><td style="vertical-align:top;">:</td><td><div>C:\\Users\\F6\\Downloads\\bahadi\\9026-py2\\applications\\cms\\sessions\\127.0.0.1-68c3aed4-0111-4ea5-8860-4bd81d18f318</div></td></tr><tr><td style="font-weight:bold;vertical-align:top;">session_hash</td><td style="vertical-align:top;">:</td><td><div>c0762cbf4baf7f9af97c051e7fcb8083</div></td></tr><tr><td style="font-weight:bold;vertical-align:top;">session_id</td><td style="vertical-align:top;">:</td><td><div>127.0.0.1-68c3aed4-0111-4ea5-8860-4bd81d18f318</div></td></tr><tr><td style="font-weight:bold;vertical-align:top;">session_id_name</td><td style="vertical-align:top;">:</td><td><div>session_id_cms</div></td></tr><tr><td style="font-weight:bold;vertical-align:top;">session_masterapp</td><td style="vertical-align:top;">:</td><td><div>cms</div></td></tr><tr><td style="font-weight:bold;vertical-align:top;">session_new</td><td style="vertical-align:top;">:</td><td><div>True</div></td></tr><tr><td style="font-weight:bold;vertical-align:top;">session_storage_type</td><td style="vertical-align:top;">:</td><td><div>file</div></td></tr><tr><td style="font-weight:bold;vertical-align:top;">status</td><td style="vertical-align:top;">:</td><td><div>200</div></td></tr><tr><td style="font-weight:bold;vertical-align:top;">view</td><td style="vertical-align:top;">:</td><td><div>site/ghephang/default/gioithieu.html</div></td></tr></table></div>'
tRp124
sS'locals'
p125
(dp126
S'Service'
p127
S"<class 'gluon.tools.Service'>"
p128
sS'OBJECT'
p129
S"<class 'gluon.html.OBJECT'>"
p130
sS'SQLDB'
p131
S"<class 'pydal.base.DAL'>"
p132
sg117
S"<Storage {'_forget': True}>"
p133
sS'LINK'
p134
S"<class 'gluon.html.LINK'>"
p135
sS'BR'
p136
S"<class 'gluon.html.BR'>"
p137
sS'local_import'
p138
S'<function <lambda>>'
p139
sS'OPTGROUP'
p140
S"<class 'gluon.html.OPTGROUP'>"
p141
sS'__package__'
p142
S'None'
p143
sS'PRE'
p144
S"<class 'gluon.html.PRE'>"
p145
sS'IS_INT_IN_RANGE'
p146
S"<class 'gluon.validators.IS_INT_IN_RANGE'>"
p147
sS'IS_LOWER'
p148
S"<class 'gluon.validators.IS_LOWER'>"
p149
sS'IS_STRONG'
p150
S"<class 'gluon.validators.IS_STRONG'>"
p151
sS'PortalConfig'
p152
S"{'forms': {'formstyle': 'bootstrap3_inline', 'se...ize': '1'}, 'auth': {'ldap': '', 'provider': ''}}"
p153
sS'cache'
p154
S'<gluon.cache.Cache object>'
p155
sS'IS_IN_DB'
p156
S"<class 'gluon.validators.IS_IN_DB'>"
p157
sS'cas_provider'
p158
S'None'
p159
sS'TAG'
p160
S'<gluon.html.__TAG__ object>'
p161
sS'SQLField'
p162
S"<class 'pydal.objects.Field'>"
p163
sS'BODY'
p164
S"<class 'gluon.html.BODY'>"
p165
sS'IS_DATE_IN_RANGE'
p166
S"<class 'gluon.validators.IS_DATE_IN_RANGE'>"
p167
sS'IFRAME'
p168
S"<class 'gluon.html.IFRAME'>"
p169
sS'URL'
p170
S'<function URL>'
p171
sS'__file__'
p172
S"r'C:\\Users\\F6\\Downloads\\bahadi\\9026-py2\\applications\\cms\\views\\site/ghephang/default/gioithieu.html'"
p173
sS'db'
p174
S'<DAL uri="sqlite://cms.db3">'
p175
sS'class_top'
p176
S"''"
p177
sS'auth'
p178
S'<applications.cms.modules.plugin_auth.ProcessAuth object>'
p179
sS'P'
S"<class 'gluon.html.P'>"
p180
sS'TFOOT'
p181
S"<class 'gluon.html.TFOOT'>"
p182
sS'XHTML'
p183
S"<class 'gluon.html.XHTML'>"
p184
sS'ON'
p185
S'True'
p186
sS'OL'
p187
S"<class 'gluon.html.OL'>"
p188
sS'TEXTAREA'
p189
S"<class 'gluon.html.TEXTAREA'>"
p190
sS'MENU'
p191
S"<class 'gluon.html.MENU'>"
p192
sS'IS_IMAGE'
p193
S"<class 'gluon.validators.IS_IMAGE'>"
p194
sS'cms'
p195
S'<applications.cms.modules.plugin_cms.Cms instance>'
p196
sS'EM'
p197
S"<class 'gluon.html.EM'>"
p198
sS'CODE'
p199
S"<class 'gluon.html.CODE'>"
p200
sS'HTTP'
p201
S"<class 'gluon.http.HTTP'>"
p202
sS'HR'
p203
S"<class 'gluon.html.HR'>"
p204
sS'IS_DATETIME'
p205
S"<class 'gluon.validators.IS_DATETIME'>"
p206
sS'STYLE'
p207
S"<class 'gluon.html.STYLE'>"
p208
sS'LABEL'
p209
S"<class 'gluon.html.LABEL'>"
p210
sS'CLEANUP'
p211
S"<class 'gluon.validators.CLEANUP'>"
p212
sS'SELECT'
p213
S"<class 'gluon.html.SELECT'>"
p214
sS'Portlet'
p215
S'<class applications.cms.modules.plugin_portlet.Portlet>'
p216
sS'CENTER'
p217
S"<class 'gluon.html.CENTER'>"
p218
sS'Auth'
p219
S"<class 'gluon.tools.Auth'>"
p220
sS'current'
p221
S'<thread._local object>'
p222
sS'IS_EQUAL_TO'
p223
S"<class 'gluon.validators.IS_EQUAL_TO'>"
p224
sS'HTML'
p225
S"<class 'gluon.html.HTML'>"
p226
sS'template'
p227
S"'default'"
p228
sS'SQLFORM'
p229
S"<class 'gluon.sqlhtml.SQLFORM'>"
p230
sS'LOAD'
p231
S'<function LOAD>'
p232
sS'redirect'
p233
S'<function redirect>'
p234
sS'FIELDSET'
p235
S"<class 'gluon.html.FIELDSET'>"
p236
sS'is_page'
p237
S"'page'"
p238
sS'__builtins__'
p239
S"{'ArithmeticError': <type 'exceptions.ArithmeticError'>, 'AssertionError': <type 'exceptions.AssertionError'>, 'AttributeError': <type 'exceptions.AttributeError'>, 'BaseException': <type 'exceptions.BaseException'>, 'BufferError': <type 'exceptions.BufferError'>, 'BytesWarning': <type 'exceptions.BytesWarning'>, 'DeprecationWarning': <type 'exceptions.DeprecationWarning'>, 'EOFError': <type 'exceptions.EOFError'>, 'Ellipsis': Ellipsis, 'EnvironmentError': <type 'exceptions.EnvironmentError'>, ...}"
p240
sS'static_default'
p241
S"'site/ghephang/template/default'"
p242
sS'embed64'
p243
S'<function embed64>'
p244
sS'IS_LIST_OF'
p245
S"<class 'gluon.validators.IS_LIST_OF'>"
p246
sS'INPUT'
p247
S"<class 'gluon.html.INPUT'>"
p248
sS'EMBED'
p249
S"<class 'gluon.html.EMBED'>"
p250
sS'Configsite'
p251
S'<class applications.cms.modules.plugin_config.Configsite>'
p252
sS'H2'
p253
S"<class 'gluon.html.H2'>"
p254
sS'H3'
p255
S"<class 'gluon.html.H3'>"
p256
sS'AppConfig'
p257
S'<function AppConfig>'
p258
sS'link_naso'
p259
S"'https://banhang.bahadi.vn/app'"
p260
sS'H6'
p261
S"<class 'gluon.html.H6'>"
p262
sS'H4'
p263
S"<class 'gluon.html.H4'>"
p264
sS'H5'
p265
S"<class 'gluon.html.H5'>"
p266
sS'UL'
p267
S"<class 'gluon.html.UL'>"
p268
sS'IS_UPPER'
p269
S"<class 'gluon.validators.IS_UPPER'>"
p270
sS'xmlescape'
p271
S'<function xmlescape>'
p272
sS'domain_naso'
p273
S"'https://banhang.bahadi.vn/app'"
p274
sS'IS_TIME'
p275
S"<class 'gluon.validators.IS_TIME'>"
p276
sS'os'
p277
S"<module 'os' from 'C:\\Python27\\lib\\os.pyc'>"
p278
sS'OPTION'
p279
S"<class 'gluon.html.OPTION'>"
p280
sS'TITLE'
p281
S"<class 'gluon.html.TITLE'>"
p282
sS'CRYPT'
p283
S"<class 'gluon.validators.CRYPT'>"
p284
sS'IS_EMPTY_OR'
p285
S"<class 'gluon.validators.IS_EMPTY_OR'>"
p286
sS'MARKMIN'
p287
S"<class 'gluon.html.MARKMIN'>"
p288
sS'__name__'
p289
S"'__restricted__'"
p290
sS'site_name'
p291
S"'ghephang'"
p292
sS'STRONG'
p293
S"<class 'gluon.html.STRONG'>"
p294
sS'COL'
p295
S"<class 'gluon.html.COL'>"
p296
sS'service'
p297
S'<gluon.tools.Service object>'
p298
sS'SCRIPT'
p299
S"<class 'gluon.html.SCRIPT'>"
p300
sS'page_home'
p301
S"'trang-chu'"
p302
sS'ProcessAuth'
p303
S"<class 'applications.cms.modules.plugin_auth.ProcessAuth'>"
p304
sS'TABLE'
p305
S"<class 'gluon.html.TABLE'>"
p306
sS'IS_IPV4'
p307
S"<class 'gluon.validators.IS_IPV4'>"
p308
sS'IS_LENGTH'
p309
S"<class 'gluon.validators.IS_LENGTH'>"
p310
sS'IS_IPV6'
p311
S"<class 'gluon.validators.IS_IPV6'>"
p312
sS'XML'
p313
S"<class 'gluon.html.XML'>"
p314
sS'B'
S"<class 'gluon.html.B'>"
p315
sS'IMG'
p316
S"<class 'gluon.html.IMG'>"
p317
sS'SQLTABLE'
p318
S"<class 'gluon.sqlhtml.SQLTABLE'>"
p319
sS'IS_MATCH'
p320
S"<class 'gluon.validators.IS_MATCH'>"
p321
sS'IS_ALPHANUMERIC'
p322
S"<class 'gluon.validators.IS_ALPHANUMERIC'>"
p323
sS'static_view'
p324
S"'site/ghephang/default'"
p325
sS'IS_DATE'
p326
S"<class 'gluon.validators.IS_DATE'>"
p327
sS'Cms'
p328
S'<class applications.cms.modules.plugin_cms.Cms>'
p329
sS'SPAN'
p330
S"<class 'gluon.html.SPAN'>"
p331
sS'IS_JSON'
p332
S"<class 'gluon.validators.IS_JSON'>"
p333
sS'IS_IPADDRESS'
p334
S"<class 'gluon.validators.IS_IPADDRESS'>"
p335
sS'IS_SLUG'
p336
S"<class 'gluon.validators.IS_SLUG'>"
p337
sS'BEAUTIFY'
p338
S"<class 'gluon.html.BEAUTIFY'>"
p339
sS'META'
p340
S"<class 'gluon.html.META'>"
p341
sS'BUTTON'
p342
S"<class 'gluon.html.BUTTON'>"
p343
sS'H1'
p344
S"<class 'gluon.html.H1'>"
p345
sS'page_title'
p346
S"'Gi\\xe1\\xbb\\x9bi thi\\xe1\\xbb\\x87u'"
p347
sS'IS_EMAIL'
p348
S"<class 'gluon.validators.IS_EMAIL'>"
p349
sS'IS_NOT_EMPTY'
p350
S"<class 'gluon.validators.IS_NOT_EMPTY'>"
p351
sS'IS_FLOAT_IN_RANGE'
p352
S"<class 'gluon.validators.IS_FLOAT_IN_RANGE'>"
p353
sS'TBODY'
p354
S"<class 'gluon.html.TBODY'>"
p355
sS'CAT'
p356
S"<class 'gluon.html.CAT'>"
p357
sS'Field'
p358
S"<class 'pydal.objects.Field'>"
p359
sS'IS_LIST_OF_EMAILS'
p360
S"<class 'gluon.validators.IS_LIST_OF_EMAILS'>"
p361
sS'DIV'
p362
S"<class 'gluon.html.DIV'>"
p363
sS'LEGEND'
p364
S"<class 'gluon.html.LEGEND'>"
p365
sS'COLGROUP'
p366
S"<class 'gluon.html.COLGROUP'>"
p367
sS'DAL'
p368
S"<class 'pydal.base.DAL'>"
p369
sS'ASSIGNJS'
p370
S'<function ASSIGNJS>'
p371
sS'TR'
p372
S"<class 'gluon.html.TR'>"
p373
sS'LI'
p374
S"<class 'gluon.html.LI'>"
p375
sS'TH'
p376
S"<class 'gluon.html.TH'>"
p377
sS'site_default'
p378
S"'site/ghephang'"
p379
sS'TD'
p380
S"<class 'gluon.html.TD'>"
p381
sS'IS_URL'
p382
S"<class 'gluon.validators.IS_URL'>"
p383
sS'A'
S"<class 'gluon.html.A'>"
p384
sS'HEAD'
p385
S"<class 'gluon.html.HEAD'>"
p386
sS'portlet'
p387
S'<applications.cms.modules.plugin_portlet.Portlet instance>'
p388
sS'IS_DATETIME_IN_RANGE'
p389
S"<class 'gluon.validators.IS_DATETIME_IN_RANGE'>"
p390
sS'FORM'
p391
S"<class 'gluon.html.FORM'>"
p392
sS'setting_config'
p393
S'<function setting_config>'
p394
sS'I'
S"<class 'gluon.html.I'>"
p395
sS'IS_NOT_IN_DB'
p396
S"<class 'gluon.validators.IS_NOT_IN_DB'>"
p397
sg123
S"<Storage {'body': <cStringIO.StringO object at 0... 'view': 'site/ghephang/default/gioithieu.html'}>"
p398
sS'THEAD'
p399
S"<class 'gluon.html.THEAD'>"
p400
sS'ANY_OF'
p401
S"<class 'gluon.validators.ANY_OF'>"
p402
sS'IS_NULL_OR'
p403
S"<class 'gluon.validators.IS_EMPTY_OR'>"
p404
sS'api_naso'
p405
S"'https://website:gkajhsafplafgalsda@banhang.bahadi.vn/app'"
p406
sg56
S"<Storage {'_vars': None, 'function': 'folder', '...wnloads\\\\bahadi\\\\9026-py2\\\\applications\\\\cms\\\\'}>"
p407
sS'IS_EXPR'
p408
S"<class 'gluon.validators.IS_EXPR'>"
p409
sS'T'
S'<gluon.languages.translator object>'
p410
sS'IS_IN_SET'
p411
S"<class 'gluon.validators.IS_IN_SET'>"
p412
sS'IS_UPLOAD_FILENAME'
p413
S"<class 'gluon.validators.IS_UPLOAD_FILENAME'>"
p414
sS'cStringIO'
p415
S"<module 'cStringIO' (built-in)>"
p416
sS'TT'
p417
S"<class 'gluon.html.TT'>"
p418
sS'IS_DECIMAL_IN_RANGE'
p419
S"<class 'gluon.validators.IS_DECIMAL_IN_RANGE'>"
p420
sssS'traceback'
p421
S'Traceback (most recent call last):\n  File "C:\\Users\\F6\\Downloads\\bahadi\\9026-py2\\gluon\\restricted.py", line 227, in restricted\n    exec ccode in environment\n  File "C:\\Users\\F6\\Downloads\\bahadi\\9026-py2\\applications\\cms\\views\\site/ghephang/default/gioithieu.html", line 95, in <module>\n    </div>\nNameError: name \'data\' is not defined\n'
p422
s.