(dp1
S'output'
p2
S"<type 'exceptions.NameError'> name 'data' is not defined"
p3
sS'layer'
p4
S'C:\\Users\\F6\\Downloads\\bahadi\\9026-py2\\applications\\cms\\views\\site/ghephang/default/trang_chu.html'
p5
sS'code'
p6
S'response.write(\'<!doctype html>\\r\\n<html lang="en">\\r\\n\\r\\n\', escape=False)\nstatic_default=\'site/ghephang/template/default\'\nresponse.write(\'\\r\\n\', escape=False)\nstatic_view=\'site/ghephang/default\'\nresponse.write(\'\\r\\n\', escape=False)\nresponse.write(\'\\r\\n    \', escape=False)\nis_page = "index"\nresponse.write(\'\\r\\n    \', escape=False)\nclass_top = "six fixed-top"\nresponse.write(\'\\r\\n\', escape=False)\nresponse.write(\'\\r\\n\\r\\n<head>\\r\\n    <!-- Required meta tags -->\\r\\n    <meta charset="utf-8">\\r\\n    <meta name="viewport" content="width=device-width, initial-scale=1, shrink-to-fit=no">\\r\\n    \', escape=False)\nresponse.write(cms.metadc())\nresponse.write(\'\\r\\n    <!-- Bootstrap Min CSS -->\\r\\n    <link rel="stylesheet" href="\', escape=False)\nresponse.write(URL(\'static\',\'%s/css\')%(static_default))\nresponse.write(\'/bootstrap.min.css">\\r\\n    <!-- Owl Theme Default Min CSS -->\\r\\n    <link rel="stylesheet" href="\', escape=False)\nresponse.write(URL(\'static\',\'%s/css\')%(static_default))\nresponse.write(\'/owl.theme.default.min.css">\\r\\n    <!-- Owl Carousel Min CSS -->\\r\\n    <link rel="stylesheet" href="\', escape=False)\nresponse.write(URL(\'static\',\'%s/css\')%(static_default))\nresponse.write(\'/owl.carousel.min.css">\\r\\n    <!-- Owl Magnific Min CSS -->\\r\\n    <link rel="stylesheet" href="\', escape=False)\nresponse.write(URL(\'static\',\'%s/css\')%(static_default))\nresponse.write(\'/magnific-popup.min.css">\\r\\n    <!-- Animate Min CSS -->\\r\\n    <link rel="stylesheet" href="\', escape=False)\nresponse.write(URL(\'static\',\'%s/css\')%(static_default))\nresponse.write(\'/animate.min.css">\\r\\n    <!-- Boxicons Min CSS -->\\r\\n    <link rel="stylesheet" href="\', escape=False)\nresponse.write(URL(\'static\',\'%s/css\')%(static_default))\nresponse.write(\'/boxicons.min.css">\\r\\n    <!-- Flaticon CSS -->\\r\\n    <link rel="stylesheet" href="\', escape=False)\nresponse.write(URL(\'static\',\'%s/css\')%(static_default))\nresponse.write(\'/flaticon.css">\\r\\n    <!-- Meanmenu Min CSS -->\\r\\n    <link rel="stylesheet" href="\', escape=False)\nresponse.write(URL(\'static\',\'%s/css\')%(static_default))\nresponse.write(\'/meanmenu.min.css">\\r\\n    <!-- Nice Select Min CSS -->\\r\\n    <!-- <link rel="stylesheet" href="\', escape=False)\nresponse.write(URL(\'static\',\'%s/css\')%(static_default))\nresponse.write(\'/nice-select.min.css"> -->\\r\\n    <!-- Odometer Min CSS-->\\r\\n    <link rel="stylesheet" href="\', escape=False)\nresponse.write(URL(\'static\',\'%s/css\')%(static_default))\nresponse.write(\'/odometer.min.css">\\r\\n    <!-- Style CSS -->\\r\\n    <link rel="stylesheet" href="\', escape=False)\nresponse.write(URL(\'static\',\'%s/css\')%(static_default))\nresponse.write(\'/style.css">\\r\\n    <!-- Dark CSS -->\\r\\n    <link rel="stylesheet" href="\', escape=False)\nresponse.write(URL(\'static\',\'%s/css\')%(static_default))\nresponse.write(\'/dark.css">\\r\\n    <!-- Responsive CSS -->\\r\\n    <link rel="stylesheet" href="\', escape=False)\nresponse.write(URL(\'static\',\'%s/css\')%(static_default))\nresponse.write(\'/responsive.css">\\r\\n    \', escape=False)\nresponse.write(\'\\r\\n    \', escape=False)\nresponse.write(\'\\r\\n    \', escape=False)\nresponse.write(\'\\n<script type="text/javascript"><!--\\n    // These variables are used by the web2py_ajax_init function in web2py_ajax.js (which is loaded below).\\n    var w2p_ajax_confirm_message = "\', escape=False)\nresponse.write(T(\'Are you sure you want to delete this object?\'))\nresponse.write(\'";\\n    var w2p_ajax_disable_with_message = "\', escape=False)\nresponse.write(T(\'Working...\'))\nresponse.write(\'";\\n    var w2p_ajax_date_format = "\', escape=False)\nresponse.write(T(\'%d/%m/%Y\'))\nresponse.write(\'";\\n    var w2p_ajax_datetime_format = "\', escape=False)\nresponse.write(T(\'%d/%m/%Y %H:%M:%S\'))\nresponse.write(\'";\\n    var ajax_error_500 = \\\'\', escape=False)\nresponse.write(T.M(\'An error occured, please [[reload %s]] the page\') % URL(args=request.args, vars=request.get_vars))\nresponse.write("\'\\n    //--></script>\\n", escape=False)\nresponse.files.insert(0,URL(\'static\',\'js/jquery.js\'))\nresponse.files.insert(1,URL(\'static\',\'css/calendar.css\'))\nresponse.files.insert(2,URL(\'static\',\'js/calendar.js\'))\nresponse.files.insert(3,URL(\'static\',\'js/web2py.js\'))\nresponse.files.insert(3,URL(\'static\',\'js/jquery.browser.min.js\'))\nresponse.include_meta()\nresponse.include_files()\nresponse.write(\'\\n\', escape=False)\nresponse.write(\'\\r\\n    <!-- Favicon -->\\r\\n    <!-- Title -->\\r\\n    <style>\\r\\n\\r\\n\\r\\n        body {\\r\\n            font-family: \\\'Cabin\\\', sans-serif;\\r\\n            margin: 0;\\r\\n            padding: 0;\\r\\n            box-sizing: border-box;\\r\\n            background-color: #f5f5f5;\\r\\n        }\\r\\n        .app-form{\\r\\n\\r\\n            display: flex;\\r\\n            justify-content: center;\\r\\n            align-items: center;\\r\\n\\r\\n        }\\r\\n        .app-form-1 {\\r\\n    flex-shrink: 0;\\r\\n    margin: 20px;\\r\\n    padding: 15px 0;\\r\\n    background-color: rgba(241, 243, 244, 0.8);\\r\\n    display: flex;\\r\\n    flex-direction: column;\\r\\n    justify-content: center;\\r\\n    align-items: center;\\r\\n    box-sizing: border-box;\\r\\n    width: 400px; /* Gi\\xc3\\xa1 tr\\xe1\\xbb\\x8b m\\xe1\\xba\\xb7c \\xc4\\x91\\xe1\\xbb\\x8bnh */\\r\\n\\r\\n}\\r\\n\\r\\n@media (min-width: 601px) {\\r\\n    .app-form-1 {\\r\\n        width: 600px; /* Khi m\\xc3\\xa0n h\\xc3\\xacnh r\\xe1\\xbb\\x99ng h\\xc6\\xa1n 600px, width s\\xe1\\xba\\xbd l\\xc3\\xa0 600px */\\r\\n    }\\r\\n\\r\\n}\\r\\n\\r\\n@media (max-width: 1245px) {\\r\\n    .app-form-1 {\\r\\n        width: 500px; /* Khi m\\xc3\\xa0n h\\xc3\\xacnh nh\\xe1\\xbb\\x8f h\\xc6\\xa1n 600px, width s\\xe1\\xba\\xbd l\\xc3\\xa0 400px */\\r\\n    }\\r\\n}\\r\\n@media (max-width: 960px) {\\r\\n    .app-form-1 {\\r\\n        width: 400px; /* Khi m\\xc3\\xa0n h\\xc3\\xacnh nh\\xe1\\xbb\\x8f h\\xc6\\xa1n 600px, width s\\xe1\\xba\\xbd l\\xc3\\xa0 400px */\\r\\n    }\\r\\n}\\r\\n@media (max-width: 843px) {\\r\\n    .app-form-1 {\\r\\n        width: 300px; /* Khi m\\xc3\\xa0n h\\xc3\\xacnh nh\\xe1\\xbb\\x8f h\\xc6\\xa1n 600px, width s\\xe1\\xba\\xbd l\\xc3\\xa0 400px */\\r\\n    }\\r\\n}\\r\\n        .text-1 {\\r\\n            text-align: center;\\r\\n            display: block;\\r\\n\\r\\n            font-size: 30px;\\r\\n            color: #3C3C3B;\\r\\n        }\\r\\n\\r\\n        .icon-button {\\r\\n            display: flex;\\r\\n            justify-content: center;\\r\\n            align-items: center;\\r\\n            margin: 15px;\\r\\n            max-width: 100%;\\r\\n            gap: 10px;\\r\\n        }\\r\\n\\r\\n        .images-logo {\\r\\n            width: 150px;\\r\\n            border-radius: 20%;\\r\\n            display: block;\\r\\n            margin: 10px auto;\\r\\n            overflow: hidden;\\r\\n        }\\r\\n\\r\\n        .images-logo img {\\r\\n            max-width: 100%;\\r\\n            height: auto;\\r\\n            border-radius: 23%;\\r\\n        }\\r\\n\\r\\n        .icon-button-app {\\r\\n            width: 150px;\\r\\n            margin: 0 5px;\\r\\n        }\\r\\n\\r\\n        @media (max-width: 768px) {\\r\\n            .app-form {\\r\\n                flex-direction: column;\\r\\n            }\\r\\n\\r\\n            .app-form-1 {\\r\\n                width: 100%;\\r\\n                max-width: none;\\r\\n            }\\r\\n\\r\\n            .icon-button-app {\\r\\n                width: 100px;\\r\\n            }\\r\\n        }\\r\\n        .search-wrap .container {\\r\\n            margin-top: 50px;\\r\\n            padding: 60px 40px;\\r\\n            transform: translatey(0);\\r\\n            background: white;\\r\\n        }\\r\\n\\r\\n        .form:not(.open) iframe {\\r\\n            display: none\\r\\n        }\\r\\n\\r\\n        #overlay {\\r\\n            position: fixed;\\r\\n            display: none;\\r\\n            width: 100%;\\r\\n            height: 100%;\\r\\n            top: 0;\\r\\n            left: 0;\\r\\n            right: 0;\\r\\n            bottom: 0;\\r\\n            background-color: rgba(0, 0, 0, 0.5);\\r\\n            z-index: 2;\\r\\n            cursor: pointer;\\r\\n        }\\r\\n\\r\\n        .floating-action-menu {\\r\\n            bottom: 10px;\\r\\n            right: 10px;\\r\\n            z-index: 999;\\r\\n        }\\r\\n\\r\\n        .text-right {\\r\\n            text-align: right !important;\\r\\n        }\\r\\n\\r\\n        .floating-action-menu>.action-menu {\\r\\n            visibility: hidden;\\r\\n            -webkit-transform: translateY(65px);\\r\\n            transform: translateY(65px);\\r\\n            opacity: 0;\\r\\n            max-height: 0;\\r\\n            overflow: hidden;\\r\\n            -webkit-transition: all 300ms linear;\\r\\n            transition: all 300ms linear;\\r\\n        }\\r\\n\\r\\n        .floating-action {\\r\\n            background-color: #fff;\\r\\n            border-radius: 28px;\\r\\n            margin-top: 5px;\\r\\n            width: -webkit-fit-content;\\r\\n            width: -moz-fit-content;\\r\\n            width: fit-content;\\r\\n            float: right;\\r\\n            clear: both;\\r\\n        }\\r\\n\\r\\n        .floating-action:hover {\\r\\n            background-color: #fff4f3;\\r\\n        }\\r\\n\\r\\n        .floating-action-menu.active>.action-menu {\\r\\n            visibility: visible;\\r\\n            -webkit-transform: translate(0);\\r\\n            transform: translate(0);\\r\\n            opacity: 1;\\r\\n            padding-bottom: 5px;\\r\\n            max-height: 1000px;\\r\\n        }\\r\\n\\r\\n        .floating-action .badge {\\r\\n            font-weight: 400;\\r\\n            font-size: 15px;\\r\\n            line-height: 18px;\\r\\n            color: #1a1a1a;\\r\\n        }\\r\\n\\r\\n        .badge {\\r\\n            display: inline-block;\\r\\n            padding: 0.25em 0.4em;\\r\\n            font-size: 75%;\\r\\n            font-weight: 500;\\r\\n            line-height: 1;\\r\\n            text-align: center;\\r\\n            white-space: nowrap;\\r\\n            vertical-align: baseline;\\r\\n            border-radius: 0.25rem;\\r\\n        }\\r\\n\\r\\n        a.floating-action:hover .badge {\\r\\n            color: #fa4612;\\r\\n        }\\r\\n\\r\\n\\r\\n\\r\\n        .floating-action-menu.active>.action-menu .btn-floating,\\r\\n        .floating-action-menu.active>.action-menu .badge {\\r\\n            -webkit-transform: scale(1);\\r\\n            transform: scale(1);\\r\\n        }\\r\\n\\r\\n        .floating-action-menu>.action-menu .btn-floating,\\r\\n        .floating-action-menu>.action-menu .badge {\\r\\n            -webkit-transform: scale(0.4);\\r\\n            transform: scale(0.4);\\r\\n            -webkit-transition: all 300ms ease-in-out;\\r\\n            transition: all 300ms ease-in-out;\\r\\n        }\\r\\n        .white video-btn popup-youtube{\\r\\n            position: absolute;\\r\\n    top: 50%;\\r\\n    left: 45%;\\r\\n    transform: translate(-50%, -50%);\\r\\n    z-index: 1;\\r\\n        }\\r\\n    </style>\\r\\n    <meta name="zalo-platform-site-verification" content="EFQQUBBhINfPxUCbXUDg65AIxZo-x3LaD3O" />\\r\\n</head>\\r\\n\\r\\n<body>\\r\\n    <!-- Start Preloader Area -->\\r\\n    <div class="preloader">\\r\\n        <div class="lds-ripple">\\r\\n            <div></div>\\r\\n            <div></div>\\r\\n        </div>\\r\\n    </div>\\r\\n    <!-- End Preloader Area -->\\r\\n    \', escape=False)\nresponse.write(\' \', escape=False)\nresponse.write(\'\\r\\n    \', escape=False)\nresponse.write(\'<header class="header-area-four \', escape=False)\nresponse.write(class_top)\nresponse.write(\'">\\r\\n    <!-- Start Top Header Area -->\\r\\n    <div class="header-style-four">\\r\\n        <div class="container">\\r\\n            <div class="row align-items-center">\\r\\n                <div class="col-lg-4 col-md-5">\\r\\n                    <div class="header-left-content">\\r\\n                        <ul>\\r\\n                            <li>\\r\\n                                <a href="tel:1900888678">\\r\\n                                    <i class="bx bx-phone-call"></i>\\r\\n                                    1900.888.678\\r\\n                                </a>\\r\\n                            </li>\\r\\n                            <li>\\r\\n                                <a href="mailto:info@ghephang.com">\\r\\n                                    <i class="bx bx-envelope"></i>\\r\\n                                    [info@ghephang.com]\\r\\n                                </a>\\r\\n                            </li>\\r\\n                        </ul>\\r\\n                    </div>\\r\\n                </div>\\r\\n                <div class="col-lg-8 col-md-7">\\r\\n                    <div class="header-right-content">\\r\\n                        <ul class="additional-link">\\r\\n                            <li>\\r\\n                                <a href="/uu-dai">\\xc6\\xafu \\xc4\\x91\\xc3\\xa3i</a>\\r\\n                            </li>\\r\\n                            <li>\\r\\n                                <a href="/tuyen-dung">Tuy\\xe1\\xbb\\x83n d\\xe1\\xbb\\xa5ng</a>\\r\\n                            </li>\\r\\n                            <li>\\r\\n                                <a href="/faq">C\\xc3\\xa2u h\\xe1\\xbb\\x8fi th\\xc6\\xb0\\xe1\\xbb\\x9dng g\\xe1\\xba\\xb7p</a>\\r\\n                            </li>\\r\\n                        </ul>\\r\\n                        <ul class="social-links">\\r\\n                             \', escape=False)\nresponse.write(\'<li>\\r\\n    <a href="#">\\r\\n        <i class=\\\'bx bxl-twitter\\\'></i>\\r\\n    </a>\\r\\n</li>\\r\\n<li>\\r\\n    <a href="#">\\r\\n        <i class=\\\'bx bxl-facebook\\\'></i>\\r\\n    </a>\\r\\n</li>\\r\\n<li>\\r\\n    <a href="#">\\r\\n        <i class=\\\'bx bxl-instagram\\\'></i>\\r\\n    </a>\\r\\n</li>\\r\\n<li>\\r\\n    <a href="#">\\r\\n        <i class=\\\'bx bxl-linkedin\\\'></i>\\r\\n    </a>\\r\\n</li>\\r\\n\', escape=False)\nresponse.write(\'\\r\\n                        </ul>\\r\\n                    </div>\\r\\n                </div>\\r\\n            </div>\\r\\n        </div>\\r\\n    </div>\\r\\n    <!-- End Top Header Area -->\\r\\n\\r\\n    <!-- Start Prevoz Navbar Area -->\\r\\n    <div class="prevoz-nav-style prevoz-nav-style-four">\\r\\n        <div class="navbar-area">\\r\\n            <!-- Menu For Mobile Device -->\\r\\n            <div class="mobile-nav">\\r\\n                <a href="/trang-chu" class="logo">\\r\\n                    <img src="\', escape=False)\nresponse.write(URL(\'static\',\'%s/img\')%(static_default))\nresponse.write(\'/logo.png" alt="Logo">\\r\\n                </a>\\r\\n            </div>\\r\\n            <!-- Menu For Desktop Device -->\\r\\n            <div class="main-nav">\\r\\n                <nav class="navbar navbar-expand-md navbar-light">\\r\\n                    <div class="container">\\r\\n                        <a class="navbar-brand" href="/trang-chu">\\r\\n                            <img src="\', escape=False)\nresponse.write(URL(\'static\',\'%s/img\')%(static_default))\nresponse.write(\'/logo.png" alt="Logo">\\r\\n                        </a>\\r\\n                        <div class="collapse navbar-collapse mean-menu" id="navbarSupportedContent">\\r\\n                            \', escape=False)\nresponse.write(\'<ul class="navbar-nav mr-auto">\\r\\n    <li class="nav-item">\\r\\n        <a href="/khach-hang" class="nav-link">Kh\\xc3\\xa1ch h\\xc3\\xa0ng</a>\\r\\n    </li>\\r\\n    \\r\\n    <li class="nav-item">\\r\\n        <a href="/buu-cuc" class="nav-link">B\\xc6\\xb0u c\\xe1\\xbb\\xa5c</a>\\r\\n    </li>\\r\\n    \\r\\n    <li class="nav-item">\\r\\n        <a href="/tai-xe" class="nav-link">T\\xc3\\xa0i x\\xe1\\xba\\xbf</a>\\r\\n    </li>\\r\\n      \\r\\n\\t<li class="nav-item">\\r\\n        <a href="/gioi-thieu" class="nav-link dropdown-toggle">\\r\\n            Ti\\xe1\\xbb\\x87n \\xc3\\xadch\\r\\n            <i class=\\\'bx bx-chevron-down\\\'></i>\\r\\n        </a>\\r\\n        <ul class="dropdown-menu">\\r\\n            <li class="nav-item">\\r\\n\\t\\t\\t\\t<a href="/tra-van-don" class="nav-link">Tra c\\xe1\\xbb\\xa9u v\\xe1\\xba\\xadn \\xc4\\x91\\xc6\\xa1n</a>\\r\\n            </li>\\r\\n            <li class="nav-item">\\r\\n\\t\\t\\t\\t<a href="/tim-buu-cuc" class="nav-link">T\\xc3\\xacm b\\xc6\\xb0u c\\xe1\\xbb\\xa5c</a>\\r\\n            </li>\\r\\n\\t\\t\\t\\r\\n        </ul>\\r\\n    </li>\\r\\n \\r\\n\\t<li class="nav-item">\\r\\n        <a href="/gioi-thieu" class="nav-link dropdown-toggle">\\r\\n            V\\xe1\\xbb\\x81 ch\\xc3\\xbang t\\xc3\\xb4i\\r\\n            <i class=\\\'bx bx-chevron-down\\\'></i>\\r\\n        </a>\\r\\n        <ul class="dropdown-menu">\\r\\n            <li class="nav-item">\\r\\n                <a href="/gioi-thieu" class="nav-link">V\\xe1\\xbb\\x81 ch\\xc3\\xbang t\\xc3\\xb4i</a>\\r\\n            </li>\\r\\n            <li class="nav-item">\\r\\n                <a href="/faq" class="nav-link">C\\xc3\\xa2u h\\xe1\\xbb\\x8fi th\\xc6\\xb0\\xe1\\xbb\\x9dng g\\xe1\\xba\\xb7p</a>\\r\\n            </li>\\r\\n\\t\\t\\t<li class="nav-item">\\r\\n\\t\\t\\t\\t<a href="/tin-tuc-su-kien" class="nav-link">Tin t\\xe1\\xbb\\xa9c s\\xe1\\xbb\\xb1 ki\\xe1\\xbb\\x87n</a>\\r\\n\\t\\t\\t</li>\\r\\n\\t\\t\\t<li class="nav-item">\\r\\n\\t\\t\\t\\t<a href="/lien-he" class="nav-link">Li\\xc3\\xaan h\\xe1\\xbb\\x87</a>\\r\\n\\t\\t\\t</li>\\r\\n        </ul>\\r\\n    </li>\\r\\n \\r\\n    \\r\\n</ul>\', escape=False)\nresponse.write(\'\\r\\n                            <!-- Start Other Option -->\\r\\n                            <div class="others-option">\\r\\n                                <div class="search-wrap">\\r\\n                                    <a href=".search">\\r\\n                                        <i class=\\\'bx bx-search\\\'></i>\\r\\n                                    </a>\\r\\n                                </div>\\r\\n                                <!-- <button type="button" class="sidebar-menu" data-bs-toggle="modal"\\r\\n                                    data-bs-target="#myModal2">\\r\\n                                    <i class="flaticon-menu"></i>\\r\\n                                </button> -->\\r\\n                                <!-- <a class="default-btn" href="/tao-don"> -->\\r\\n                                    <!-- T\\xe1\\xba\\xa1o \\xc4\\x91\\xc6\\xa1n -->\\r\\n                                <!-- </a> -->\\r\\n<!-- \\r\\n                                <div class="dark-switch">\\r\\n                                    <div class="switch-box">\\r\\n                                        <label id="switch" class="switch">\\r\\n                                            <input type="checkbox" onchange="toggleTheme()" id="slider">\\r\\n                                            <span class="slider round"></span>\\r\\n                                        </label>\\r\\n                                    </div>\\r\\n                                </div> -->\\r\\n                            </div>\\r\\n                            <!-- End Other Option -->\\r\\n                        </div>\\r\\n                    </div>\\r\\n                </nav>\\r\\n            </div>\\r\\n        </div>\\r\\n    </div>\\r\\n    <!-- End Prevoz Navbar Area -->\\r\\n</header>\', escape=False)\nresponse.write(\'\\r\\n    <!-- Start Header Area -->\\r\\n    \', escape=False)\nresponse.write(\'<!-- Start Sidebar Modal -->\\r\\n<div class="sidebar-modal">\\r\\n    <div class="modal right fade" id="myModal2" tabindex="-1" role="dialog" aria-labelledby="myModalLabel2">\\r\\n        <div class="modal-dialog" role="document">\\r\\n            <div class="modal-content">\\r\\n                <div class="modal-header">\\r\\n                    <button type="button" class="close" data-bs-dismiss="modal" aria-label="Close">\\r\\n                        <span aria-hidden="true">\\r\\n                            <i class="bx bx-x"></i>\\r\\n                        </span>\\r\\n                    </button>\\r\\n                    </button>\\r\\n                    <h2 class="modal-title" id="myModalLabel2">\\r\\n                        <a href="/trang-chu">\\r\\n                            <img src="\', escape=False)\nresponse.write(URL(\'static\',\'%s/img\')%(static_default))\nresponse.write(\'/logo.png" alt="Logo">\\r\\n                        </a>\\r\\n                    </h2>\\r\\n                </div>\\r\\n                <div class="modal-body">\\r\\n                    <div class="sidebar-modal-widget">\\r\\n                        <h3 class="title">Th\\xc3\\xb4ng tin v\\xe1\\xbb\\x81 ch\\xc3\\xbang t\\xc3\\xb4i</h3>\\r\\n                        <p><b>Ghephang.com</b> v\\xe1\\xbb\\x9bi mong mu\\xe1\\xbb\\x91n \\xc4\\x91\\xc6\\xa1n gi\\xe1\\xba\\xa3n h\\xc3\\xb3a vi\\xe1\\xbb\\x87c giao h\\xc3\\xa0ng, gi\\xc3\\xbap c\\xc3\\xa1c ch\\xe1\\xbb\\xa7 c\\xe1\\xbb\\xada h\\xc3\\xa0ng, c\\xc3\\xa1c nh\\xc3\\xa0 h\\xc3\\xa0ng \\xc4\\x91\\xe1\\xba\\xbfn c\\xc3\\xa1c c\\xc3\\xb4ng ty t\\xe1\\xba\\xa1i Vi\\xe1\\xbb\\x87t Nam\\r\\n                        c\\xc3\\xb3 th\\xe1\\xbb\\x83 t\\xe1\\xba\\xadn h\\xc6\\xb0\\xe1\\xbb\\x9fng m\\xe1\\xbb\\x99t d\\xe1\\xbb\\x8bch v\\xe1\\xbb\\xa5 cao c\\xe1\\xba\\xa5p ti\\xe1\\xbb\\x87n l\\xe1\\xbb\\xa3i nh\\xc6\\xb0ng v\\xe1\\xbb\\x9bi gi\\xe1\\xba\\xa3 c\\xe1\\xba\\xa3 h\\xe1\\xbb\\xa3p l\\xc3\\xbd.</p>\\r\\n                    </div>\\r\\n                    <div class="sidebar-modal-widget">\\r\\n                        <h3 class="title">Li\\xc3\\xaan k\\xe1\\xba\\xbft b\\xe1\\xbb\\x95 sung</h3>\\r\\n                        <ul>\\r\\n                            <li>\\r\\n                                <a href="#">\\xc4\\x90\\xc4\\x83ng nh\\xe1\\xba\\xadp</a>\\r\\n                            </li>\\r\\n                            <li>\\r\\n                                <a href="#">\\xc4\\x90\\xc4\\x83ng k\\xc3\\xbd ngay</a>\\r\\n                            </li>\\r\\n                            <li>\\r\\n                                <a href="/faq">FAQ</a>\\r\\n                            </li>\\r\\n                            <li>\\r\\n                                <a href="#">\\xc4\\x90\\xc4\\x83ng xu\\xe1\\xba\\xa5t</a>\\r\\n                            </li>\\r\\n                        </ul>\\r\\n                    </div>\\r\\n                    <div class="sidebar-modal-widget">\\r\\n                        <h3 class="title">Contact Info</h3>\\r\\n                        <ul class="contact-info">\\r\\n                            <li>\\r\\n                                <i class="bx bx-location-plus"></i>\\r\\n                                \\xc4\\x90\\xe1\\xbb\\x8ba ch\\xe1\\xbb\\x89\\r\\n                                <span>New York - 1060, Str. First 78 Great Western Road</span>\\r\\n                            </li>\\r\\n                            <li>\\r\\n                                <i class="bx bx-envelope"></i>\\r\\n                                Email\\r\\n                                <a\\r\\n                                    href="mailto:info@ghephang.com"><span\\r\\n                                        class="__cf_email__">[info@ghephang.com]</span></a>\\r\\n                                <a\\r\\n                                    href="mailto:info@ghephang.com"><span\\r\\n                                        class="__cf_email__" >[info@ghephang.com]</span></a>\\r\\n                            </li>\\r\\n                            <li>\\r\\n                                <i class="bx bxs-phone-call"></i>\\r\\n                                Phone\\r\\n                                <a href="tel:0356 656 777">0356 656 777</a>\\r\\n                                <a href="tel:0356 656 777">0356 656 777</a>\\r\\n                            </li>\\r\\n                        </ul>\\r\\n                    </div>\\r\\n                    <div class="sidebar-modal-widget">\\r\\n                        <h3 class="title">K\\xe1\\xba\\xbft n\\xe1\\xbb\\x91i v\\xe1\\xbb\\x9bi ch\\xc3\\xbang t\\xc3\\xb4i</h3>\\r\\n                        <ul class="social-list">\\r\\n                            \', escape=False)\nresponse.write(\'<li>\\r\\n    <a href="#">\\r\\n        <i class=\\\'bx bxl-twitter\\\'></i>\\r\\n    </a>\\r\\n</li>\\r\\n<li>\\r\\n    <a href="#">\\r\\n        <i class=\\\'bx bxl-facebook\\\'></i>\\r\\n    </a>\\r\\n</li>\\r\\n<li>\\r\\n    <a href="#">\\r\\n        <i class=\\\'bx bxl-instagram\\\'></i>\\r\\n    </a>\\r\\n</li>\\r\\n<li>\\r\\n    <a href="#">\\r\\n        <i class=\\\'bx bxl-linkedin\\\'></i>\\r\\n    </a>\\r\\n</li>\\r\\n\', escape=False)\nresponse.write(\'\\r\\n                        </ul>\\r\\n                    </div>\\r\\n                </div>\\r\\n            </div>\\r\\n        </div>\\r\\n    </div>\\r\\n</div>\\r\\n<!-- End Sidebar Modal -->\', escape=False)\nresponse.write(\'\\r\\n\\r\\n    <!-- Start Search Box Modal -->\\r\\n    \', escape=False)\nresponse.write(\'<!-- Start Search Box Modal -->\\r\\n<div class="search-wrap hiden-load"  style="display: none;">\\r\\n    <div class="search">\\r\\n        <button type="button" class="close">\\xc3\\x97</button>\\r\\n        <form>\\r\\n            <input type="search" value="" class="form-control" placeholder="Type Here..." />\\r\\n            <button type="submit" class="default-btn">\\r\\n                Search\\r\\n            </button>\\r\\n        </form>\\r\\n    </div>\\r\\n</div>\\r\\n<!-- End Search Box Modal -->\\r\\n\\r\\n\\r\\n\', escape=False)\nresponse.write(\'\\r\\n    <!-- End Search Box Modal -->\\r\\n\\r\\n    <div>\\r\\n        \', escape=False)\nresponse.write(\'\\r\\n<head>\\r\\n\\r\\n</head>\\r\\n<!-- Start Prevoz Slider Area -->\\r\\n<section class="prevoz-slider-area prevoz-slider-area-six">\\r\\n    <div class="prevoz-slider-style owl-carousel owl-theme">\\r\\n        <div class="prevoz-slider-item slider-item-bg-16">\\r\\n            <div class="d-table">\\r\\n                <div class="d-table-cell">\\r\\n                    <div class="container">\\r\\n                        <div class="prevoz-slider-text one">\\r\\n                            <h1 style="padding-top:20px">Gh\\xc3\\xa9p h\\xc3\\xa0ng si\\xc3\\xaau t\\xe1\\xbb\\x91c</h1>\\r\\n                            <p>\\xe1\\xbb\\xa8ng d\\xe1\\xbb\\xa5ng Gh\\xc3\\xa9p h\\xc3\\xa0ng si\\xc3\\xaau t\\xe1\\xbb\\x91c.</p>\\r\\n\\r\\n                            <div class="app-form">\\r\\n                            <div class="app-form-1">\\r\\n                                <a class="text-1" >D\\xc3\\xa0nh cho kh\\xc3\\xa1ch h\\xc3\\xa0ng </a>\\r\\n                                <div class="images-logo" >\\r\\n                                <img  src="https://play-lh.googleusercontent.com/Kq8wCaVdA3nxpmSHJ9FuYZh8BKHoY_3UEIhF_rb6I-COzeeAaq1UGMV7pey0MCYK-LZ1=w240-h480-rw" >\\r\\n                                <img src="\', escape=False)\nresponse.write(URL(\'static\',\'%s/img\')%(static_default))\nresponse.write(\'/\', escape=False)\nresponse.write(data[\'img\'])\nresponse.write(\'">\\r\\n                                </div>\\r\\n                                <div class="icon-button" >\\r\\n                                    <div class="icon-button-app">\\r\\n                                    <img  src="https://www.lalamove.com/hubfs/icon-apple-app-store-3.png">\\r\\n                                    </div>\\r\\n                                    <div class="icon-button-app">\\r\\n                                    <img  src="https://www.lalamove.com/hubfs/icon-google-play-3.webp">\\r\\n                                    </div>\\r\\n                                </div>\\r\\n                            </div>\\r\\n                            <div class="app-form-1">\\r\\n                                <a class="text-1">D\\xc3\\xa0nh cho t\\xc3\\xa0i x\\xe1\\xba\\xbf </a>\\r\\n                                <div class="images-logo">\\r\\n                                <img src="https://play-lh.googleusercontent.com/aV4fFPxstjawLSez3UpWr7-vcd2ZmL8uXGJ7EEfkM62OYFa3ZRp7yhzASoKquq4wIs4" >\\r\\n                                </div>\\r\\n                                <div class="icon-button">\\r\\n                                    <div class="icon-button-app">\\r\\n                                    <img  src="https://www.lalamove.com/hubfs/icon-apple-app-store-3.png">\\r\\n                                    </div>\\r\\n                                    <div class="icon-button-app" >\\r\\n                                    <img src="https://www.lalamove.com/hubfs/icon-google-play-3.webp">\\r\\n                                    </div>\\r\\n                                </div>\\r\\n                            </div>\\r\\n                        </div>\\r\\n\\r\\n                            </div>\\r\\n\\r\\n                    </div>\\r\\n                </div>\\r\\n            </div>\\r\\n        </div>\\r\\n\\r\\n        <div class="prevoz-slider-item slider-item-bg-17">\\r\\n            <div class="d-table">\\r\\n                <div class="d-table-cell">\\r\\n                    <div class="container">\\r\\n                        <div class="prevoz-slider-text two">\\r\\n                            <h1>Gh\\xc3\\xa9p h\\xc3\\xa0ng m\\xe1\\xbb\\x8di n\\xc6\\xa1i</h1>\\r\\n                            <p>D\\xc3\\xb9 h\\xc3\\xa0ng nh\\xe1\\xbb\\x8f hay h\\xc3\\xa0ng to c\\xc3\\xb4ng k\\xe1\\xbb\\x81nh.</p>\\r\\n                            <div class="app-form">\\r\\n                            <div class="app-form-1">\\r\\n                                <a class="text-1" >D\\xc3\\xa0nh cho kh\\xc3\\xa1ch h\\xc3\\xa0ng </a>\\r\\n                                <div class="images-logo" >\\r\\n                                <img  src="https://play-lh.googleusercontent.com/Kq8wCaVdA3nxpmSHJ9FuYZh8BKHoY_3UEIhF_rb6I-COzeeAaq1UGMV7pey0MCYK-LZ1=w240-h480-rw" >\\r\\n                                </div>\\r\\n                                <div class="icon-button" >\\r\\n                                    <div class="icon-button-app">\\r\\n                                    <img  src="https://www.lalamove.com/hubfs/icon-apple-app-store-3.png">\\r\\n                                    </div>\\r\\n                                    <div class="icon-button-app">\\r\\n                                    <img  src="https://www.lalamove.com/hubfs/icon-google-play-3.webp">\\r\\n                                    </div>\\r\\n                                </div>\\r\\n                            </div>\\r\\n                            <div class="app-form-1">\\r\\n                                <a class="text-1">D\\xc3\\xa0nh cho t\\xc3\\xa0i x\\xe1\\xba\\xbf </a>\\r\\n                                <div class="images-logo">\\r\\n                                <img src="https://play-lh.googleusercontent.com/aV4fFPxstjawLSez3UpWr7-vcd2ZmL8uXGJ7EEfkM62OYFa3ZRp7yhzASoKquq4wIs4" >\\r\\n                                </div>\\r\\n                                <div class="icon-button">\\r\\n                                    <div class="icon-button-app">\\r\\n                                    <img  src="https://www.lalamove.com/hubfs/icon-apple-app-store-3.png">\\r\\n                                    </div>\\r\\n                                    <div class="icon-button-app" >\\r\\n                                    <img src="https://www.lalamove.com/hubfs/icon-google-play-3.webp">\\r\\n                                    </div>\\r\\n                                </div>\\r\\n                            </div>\\r\\n                        </div>\\r\\n                        </div>\\r\\n                    </div>\\r\\n                </div>\\r\\n            </div>\\r\\n        </div>\\r\\n\\r\\n    </div>\\r\\n</section>\\r\\n\\r\\n\\r\\n\\r\\n\', escape=False)\ndata = {\n\'dis\': \'V\xe1\xbb\x81 ch\xc3\xbang t\xc3\xb4i\',\n\'title\': \'C\xc3\xa1c gi\xe1\xba\xa3i ph\xc3\xa1p h\xe1\xba\xadu c\xe1\xba\xa7n v\xc3\xa0 v\xe1\xba\xadn chuy\xe1\xbb\x83n \xc4\x91\xc3\xa1ng tin c\xe1\xba\xady v\xc3\xa0 nhanh ch\xc3\xb3ng Kh\xc3\xb4ng l\xc3\xa3ng ph\xc3\xad th\xe1\xbb\x9di gian c\xe1\xbb\xa7a b\xe1\xba\xa1n!\',\n\'content\': P(\' \xe1\xbb\xa8ng d\xe1\xbb\xa5ng giao h\xc3\xa0ng theo y\xc3\xaau c\xe1\xba\xa7u nhanh ch\xc3\xb3ng v\xc3\xa0 \xc4\x91\xc3\xa1ng tin c\xe1\xba\xady, giao ngay si\xc3\xaau t\xe1\xbb\x91c ho\xe1\xba\xb7c ch\xe1\xbb\xa7 \xc4\x91\xe1\xbb\x99ng \xc4\x91\xe1\xba\xb7t l\xe1\xbb\x8bch h\xe1\xba\xb9n gi\xe1\xbb\x9d giao h\xc3\xa0ng, h\xe1\xbb\x97 tr\xe1\xbb\xa3 \xc4\x91\xe1\xba\xafc l\xe1\xbb\xb1c cho c\xc3\xb4ng vi\xe1\xbb\x87c kinh doanh c\xe1\xbb\xa7a b\xe1\xba\xa1n \xe1\xbb\x9f m\xe1\xbb\x8di quy m\xc3\xb4.\'),\n\'img\': \'about-img-six.png\',\n\'video\': \'https://www.youtube.com/watch?v=kWltTADSvdk&t=20s\',\n\'benefit\': [\n{\n\'title\': \'Gi\xe1\xba\xa3m chi ph\xc3\xad ho\xe1\xba\xa1t \xc4\x91\xe1\xbb\x99ng\',\n\'content\': \'D\xe1\xbb\x8bch v\xe1\xbb\xa5 chuy\xe1\xbb\x83n ph\xc3\xa1t nhanh inno gi\xe1\xba\xa3i ph\xc3\xa1p h\xe1\xba\xadu c\xe1\xba\xa7n hi\xe1\xbb\x87u qu\xe1\xba\xa3 cho vi\xe1\xbb\x87c cung c\xe1\xba\xa5p d\xe1\xbb\x8bch v\xe1\xbb\xa5 v\xe1\xba\xadn chuy\xe1\xbb\x83n h\xc3\xa0ng h\xc3\xb3a nh\xe1\xbb\x8f l\xe1\xba\xbb.\',\n\'img\': I(_class=\'bx bxl-codepen\')\n},\n{\n\'title\': \'Giao h\xc3\xa0ng nhanh ch\xc3\xb3ng v\xc3\xa0 linh ho\xe1\xba\xa1t\',\n\'content\': \'Giao nhanh si\xc3\xaau t\xe1\xbb\x91c, giao trong ng\xc3\xa0y ho\xe1\xba\xb7c ch\xe1\xbb\xa7 \xc4\x91\xe1\xbb\x99ng l\xc3\xaan l\xe1\xbb\x8bch tr\xc6\xb0\xe1\xbb\x9bc. Ch\xc3\xbang t\xc3\xb4i lu\xc3\xb4n s\xe1\xba\xb5n s\xc3\xa0ng b\xe1\xba\xa5t c\xe1\xbb\xa9 khi n\xc3\xa0o b\xe1\xba\xa1n c\xe1\xba\xa7n v\xc3\xa0 lu\xc3\xb4n cam k\xe1\xba\xbft ch\xe1\xba\xa5t l\xc6\xb0\xe1\xbb\xa3ng ph\xe1\xbb\xa5c v\xe1\xbb\xa5 t\xe1\xbb\x91t nh\xe1\xba\xa5t.\',\n\'img\': I(_class=\'bx bx-store\')\n},\n{\n\'title\': \'Ho\xc3\xa0n to\xc3\xa0n an t\xc3\xa2m\',\n\'content\': \'\xc4\x90\xe1\xbb\x91i t\xc3\xa1c t\xc3\xa0i x\xe1\xba\xbf \xc4\x91\xc6\xb0\xe1\xbb\xa3c \xc4\x91\xc3\xa0o t\xe1\xba\xa1o b\xc3\xa0i b\xe1\xba\xa3n v\xc3\xa0 chuy\xc3\xaan nghi\xe1\xbb\x87p. B\xe1\xba\xa1n d\xe1\xbb\x85 d\xc3\xa0ng theo d\xc3\xb5i \xc4\x91\xc6\xa1n h\xc3\xa0ng v\xc3\xa0 lu\xc3\xb4n \xc4\x91\xc6\xb0\xe1\xbb\xa3c h\xe1\xbb\x97 tr\xe1\xbb\xa3 qu\xe1\xba\xa3n l\xc3\xbd c\xc5\xa9ng nh\xc6\xb0 x\xe1\xbb\xad l\xc3\xbd n\xe1\xba\xbfu c\xc3\xb3 ph\xc3\xa1t sinh. Ch\xc3\xbang t\xc3\xb4i \xc4\x91ang \xc4\x91\xe1\xbb\x93ng h\xc3\xa0nh c\xc3\xb9ng h\xc3\xa0ng ng\xc3\xa0n doanh nghi\xe1\xbb\x87p \xc4\x91\xe1\xbb\x83 th\xe1\xbb\xb1c hi\xe1\xbb\x87n d\xe1\xbb\x8bch v\xe1\xbb\xa5 giao h\xc3\xa0ng si\xc3\xaau t\xe1\xbb\x91c m\xe1\xbb\x97i ng\xc3\xa0y.\',\n\'img\': I(_class=\'bx bx-box\')\n},\n]\n}\nresponse.write(\'\\r\\n\\r\\n\\r\\n\', escape=False)\nresponse.write(\'<!-- Start About Area -->\\r\\n<section class="about-area about-area-two about-area-four about-area-six bg-f7f7f7 ptb-100">\\r\\n    <div class="container">\\r\\n        <div class="row align-items-center">\\r\\n            <div class="col-lg-6">\\r\\n                <div class="about-content">\\r\\n                    <span>\', escape=False)\nresponse.write(data[\'dis\'])\nresponse.write(\'</span>\\r\\n                    <h2>\', escape=False)\nresponse.write(data[\'title\'])\nresponse.write(\'</h2>\\r\\n                    <p>\', escape=False)\nresponse.write(data[\'content\'])\nresponse.write(\'</p>\\r\\n                    <a class="default-btn" href="/tao-don">\\r\\n                        T\\xe1\\xba\\xa1o \\xc4\\x91\\xc6\\xa1n\\r\\n                    </a>\\r\\n                </div>\\r\\n            </div>\\r\\n\\r\\n            <div class="col-lg-6">\\r\\n    <div class="about-img-six" style="position: relative;">\\r\\n        <img src="\', escape=False)\nresponse.write(URL(\'static\',\'%s/img\')%(static_default))\nresponse.write(\'/\', escape=False)\nresponse.write(data[\'img\'])\nresponse.write(\'" alt="image">\\r\\n        <a class="white video-btn popup-youtube" href="\', escape=False)\nresponse.write(data[\'video\'])\nresponse.write(\'" style="position: absolute;\\r\\n    top: 50%;\\r\\n    left: 45%;\\r\\n    transform: translate(-50%, -50%);\\r\\n    z-index: 1;">\\r\\n            <i class=\\\'bx bx-play\\\'></i>\\r\\n        </a>\\r\\n    </div>\\r\\n</div>\\r\\n        </div>\\r\\n    </div>\\r\\n    <div class="lines">\\r\\n        <div class="line-two"></div>\\r\\n        <div class="line-two"></div>\\r\\n        <div class="line-two"></div>\\r\\n    </div>\\r\\n</section>\\r\\n<!-- End About Area -->\\r\\n\\r\\n<!-- Stat Choose Area -->\\r\\n<section class="choose-area pt-100 pb-70">\\r\\n    <div class="container">\\r\\n        <div class="section-title">\\r\\n            <h2>T\\xe1\\xba\\xa1i sao b\\xe1\\xba\\xa1n ch\\xe1\\xbb\\x8dn ch\\xc3\\xbang t\\xc3\\xb4i?</h2>\\r\\n            <p>Chuy\\xe1\\xbb\\x83n ph\\xc3\\xa1t nhanh l\\xc3\\xa0 m\\xe1\\xbb\\x99t d\\xe1\\xbb\\x8bch v\\xe1\\xbb\\xa5 s\\xc3\\xa1ng t\\xe1\\xba\\xa1o l\\xc3\\xa0 gi\\xe1\\xba\\xa3i ph\\xc3\\xa1p h\\xe1\\xba\\xadu c\\xe1\\xba\\xa7n hi\\xe1\\xbb\\x87u qu\\xe1\\xba\\xa3 cho vi\\xe1\\xbb\\x87c v\\xe1\\xba\\xadn chuy\\xe1\\xbb\\x83n h\\xc3\\xa0ng h\\xc3\\xb3a nh\\xe1\\xbb\\x8f. D\\xe1\\xbb\\x8bch v\\xe1\\xbb\\xa5 n\\xc3\\xa0y r\\xe1\\xba\\xa5t h\\xe1\\xbb\\xafu \\xc3\\xadch cho c\\xc3\\xa1c c\\xc3\\xb4ng ty kh\\xc3\\xa1c nhau...</p>\\r\\n        </div>\\r\\n\\r\\n        <div class="row">\\r\\n            \', escape=False)\nfor item in data[\'benefit\'] :\n    response.write(\'\\r\\n                <div class="col-lg-4 col-sm-6">\\r\\n                    <div class="single-choose text-center">\\r\\n                        <div class="choose-head">\\r\\n                            \', escape=False)\n    response.write(item[\'img\'])\n    response.write(\'\\r\\n                            <h3>\', escape=False)\n    response.write(item[\'title\'])\n    response.write(\'</h3>\\r\\n                        </div>\\r\\n                        <div class="choose-content" STYLE="height:200px">\\r\\n                            <p class="ellipsis-hidden-4">\', escape=False)\n    response.write(item[\'content\'])\n    response.write(\'</p>\\r\\n\\r\\n                        </div>\\r\\n                    </div>\\r\\n                </div>\\r\\n            \', escape=False)\n    pass\nresponse.write(\'\\r\\n        </div>\\r\\n    </div>\\r\\n</section>\\r\\n<!-- End Choose Area -->\', escape=False)\nresponse.write(\'\\r\\n\\r\\n<!-- Start Track Area -->\\r\\n<section class="track-area track-area-six ptb-100">\\r\\n    \', escape=False)\nresponse.write(\'<!-- Start Track Area -->\\r\\n    <div class="container">\\r\\n        <div class="row">\\r\\n            <div class="col-lg-12">\\r\\n                <div class="tab quote-list-tab">\\r\\n                    <ul class="tabs">\\r\\n                        <!-- <li>\\r\\n                            <a href="#">\\r\\n                                <i class="flaticon-truck"></i>\\r\\n                                T\\xe1\\xba\\xa1o \\xc4\\x91\\xc6\\xa1n h\\xc3\\xa0ng\\r\\n                            </a>\\r\\n                        </li> -->\\r\\n                        <li>\\r\\n                            <a href="#">\\r\\n                                Y\\xc3\\xaau c\\xe1\\xba\\xa7u b\\xc3\\xa1o gi\\xc3\\xa1\\r\\n                                <i class="flaticon-quote"></i>\\r\\n                            </a>\\r\\n                        </li>\\r\\n                    </ul>\\r\\n                    <div class="tab_content">\\r\\n                        <div class="tabs_item">\\r\\n                            <iframe frameborder="1" style="width:100%" id="ecrm-optin-1" width="100%" height="400px"></iframe>\\r\\n                            <script>\\r\\n                                function setOptinForm1Src() {\\r\\n                                    var utm = get_utm_url();\\r\\n                                    var qs = getQueryString(utm);\\r\\n                                    var rootUrl = location.href;\\r\\n                                    var s = "https://ghephang.nobi.pro/optinform/1?u=" + rootUrl + "?" + qs;\\r\\n                                    var iframe1 = document.getElementById("ecrm-optin-1");\\r\\n                                    (navigator.userAgent.indexOf("MSIE") == -1) ? (iframe1.src = s) : (iframe1.location = s);\\r\\n                                }\\r\\n                                function ecrmSetCookie(name, value, days) {\\r\\n                                    var expires = "";\\r\\n                                    if (days) {\\r\\n                                        var date = new Date();\\r\\n                                        date.setTime(date.getTime() + (days * 24 * 60 * 60 * 1000));\\r\\n                                        expires = "; expires=" + date.toUTCString();\\r\\n                                    }\\r\\n                                    document.cookie = name + "=" + (value || "") + expires + "; path=/";\\r\\n                                }\\r\\n\\r\\n                                function ecrmGetCookie(name) {\\r\\n                                    var nameEQ = name + "=";\\r\\n                                    var ca = document.cookie.split(\\\';\\\');\\r\\n                                    for (var i = 0; i < ca.length; i++) {\\r\\n                                        var c = ca[i];\\r\\n                                        while (c.charAt(0) == \\\' \\\') c = c.substring(1, c.length);\\r\\n                                        if (c.indexOf(nameEQ) == 0) return c.substring(nameEQ.length, c.length);\\r\\n                                    }\\r\\n                                    return null;\\r\\n                                }\\r\\n\\r\\n                                function get_utm_url() {\\r\\n                                    var utmStr = ecrmGetCookie("nobita-utm");\\r\\n\\r\\n                                    var old = {};\\r\\n                                    if (utmStr && utmStr !== null) {\\r\\n                                        old = JSON.parse(atob(utmStr));\\r\\n                                    }\\r\\n\\r\\n                                    var params = new URLSearchParams(window.location.search);\\r\\n                                    var check = false;\\r\\n                                    // check tr\\xc3\\xaan url xem c\\xc3\\xb3 ph\\xe1\\xba\\xa3i l\\xc3\\xa0 link utm kh\\xc3\\xb4ng\\r\\n                                    for (var [key, value] of params.entries()) {\\r\\n                                        old[key] = value;\\r\\n                                    }\\r\\n                                    ecrmSetCookie("nobita-utm", btoa(JSON.stringify(old)), 30);\\r\\n\\r\\n                                    return old;\\r\\n                                }\\r\\n\\r\\n                                function getQueryString(params) {\\r\\n                                    return Object.keys(params)\\r\\n                                        .map(key => key + "=" + params[key])\\r\\n                                        .join(\\\'&\\\');\\r\\n                                }\\r\\n\\r\\n                                setTimeout(setOptinForm1Src, 5);\\r\\n                            </script>\\r\\n                        </div>\\r\\n                    </div>\\r\\n                </div>\\r\\n            </div>\\r\\n        </div>\\r\\n    </div>\\r\\n<!-- End Track Area -->\', escape=False)\nresponse.write(\'\\r\\n</section>\\r\\n<!-- End Track Area -->\\r\\n\\r\\n<!-- Start What We Offer Area -->\\r\\n<section class="what-offer-area-two what-offer-area-four pb-70">\\r\\n    <div class="container">\\r\\n        <div class="row align-items-center">\\r\\n            <div class="col-lg-6">\\r\\n                <div class="row">\\r\\n                    <div class="col-lg-6 col-sm-6">\\r\\n                        <div class="single-offer"style="margin-top: 30px;height:225px" >\\r\\n                            <i class="icon flaticon-air-freight" ></i>\\r\\n                            <h3 style="text-transform: uppercase;">DOANH NGHI\\xe1\\xbb\\x86P</h3>\\r\\n                            <p class="ellipsis-hidden-4">\\xc4\\x90a d\\xe1\\xba\\xa1ng ph\\xc6\\xb0\\xc6\\xa1ng ti\\xe1\\xbb\\x87n v\\xe1\\xba\\xadn chuy\\xe1\\xbb\\x83n gi\\xc3\\xbap \\xc4\\x91\\xc3\\xa1p \\xe1\\xbb\\xa9ng m\\xe1\\xbb\\x8di y\\xc3\\xaau c\\xe1\\xba\\xa7u giao h\\xc3\\xa0ng c\\xe1\\xbb\\xa7a b\\xe1\\xba\\xa1n b\\xe1\\xba\\xa5t c\\xe1\\xbb\\xa9 l\\xc3\\xbac n\\xc3\\xa0o. H\\xe1\\xbb\\x97 tr\\xe1\\xbb\\xa3 giao ngay si\\xc3\\xaau t\\xe1\\xbb\\x91c.</p>\\r\\n                        </div>\\r\\n                    </div>\\r\\n                    <div class="col-lg-6 col-sm-6">\\r\\n                        <div class="single-offer"style="height:225px">\\r\\n                            <i class="icon flaticon-air-freight"></i>\\r\\n                            <h3>C\\xc6\\xaf\\xe1\\xbb\\x9aC PH\\xc3\\x8d TH\\xe1\\xba\\xa4P V\\xc3\\x80 R\\xc3\\x95 R\\xc3\\x80NG</h3>\\r\\n                            <p class="ellipsis-hidden-4">Gi\\xc3\\xa1 c\\xe1\\xba\\xa3 r\\xc3\\xb5 r\\xc3\\xa0ng v\\xc3\\xa0 kh\\xc3\\xb4ng c\\xc3\\xb3 chi ph\\xc3\\xad \\xe1\\xba\\xa9n. Thanh to\\xc3\\xa1n tr\\xe1\\xbb\\xb1c ti\\xe1\\xba\\xbfp qua \\xe1\\xbb\\xa9ng d\\xe1\\xbb\\xa5ng ho\\xe1\\xba\\xb7c thanh to\\xc3\\xa1n b\\xe1\\xba\\xb1ng ti\\xe1\\xbb\\x81n m\\xe1\\xba\\xb7t cho t\\xc3\\xa0i x\\xe1\\xba\\xbf c\\xe1\\xbb\\xa7a\\r\\n                            b\\xe1\\xba\\xa1n.</p>\\r\\n                        </div>\\r\\n                    </div>\\r\\n                    <div class="col-lg-6 col-sm-6">\\r\\n                        <div class="single-offer" style="height:250px;margin-top: 0px;">\\r\\n                            <i class="icon flaticon-plastic-bottle"></i>\\r\\n                            <h3>AN TO\\xc3\\x80N C\\xe1\\xba\\xa8N TR\\xe1\\xbb\\x8cNG</h3>\\r\\n                            <p class="ellipsis-hidden-4" style="">\\xc4\\x90\\xe1\\xbb\\x99i ng\\xc5\\xa9 t\\xc3\\xa0i x\\xe1\\xba\\xbf chuy\\xc3\\xaan nghi\\xe1\\xbb\\x87p \\xc4\\x91\\xc6\\xb0\\xe1\\xbb\\xa3c \\xc4\\x91\\xc3\\xa0o t\\xe1\\xba\\xa1o b\\xc3\\xa0i b\\xe1\\xba\\xa3n, \\xc4\\x91\\xe1\\xba\\xa3m b\\xe1\\xba\\xa3o t\\xe1\\xba\\xa5t c\\xe1\\xba\\xa3 h\\xc3\\xa0ng ho\\xc3\\xa1 c\\xe1\\xbb\\xa7a b\\xe1\\xba\\xa1n \\xc4\\x91\\xc6\\xb0\\xe1\\xbb\\xa3c v\\xe1\\xba\\xadn chuy\\xe1\\xbb\\x83n v\\xc3\\xa0 b\\xe1\\xba\\xa3o qu\\xe1\\xba\\xa3n \\xc4\\x91\\xe1\\xba\\xbfn t\\xe1\\xba\\xadn\\r\\n                            n\\xc6\\xa1i m\\xe1\\xbb\\x99t c\\xc3\\xa1ch an to\\xc3\\xa0n.</p>\\r\\n                        </div>\\r\\n                    </div>\\r\\n                    <div class="col-lg-6 col-sm-6">\\r\\n                        <div class="single-offer" style="height:250px">\\r\\n                            <i class="icon flaticon-street"></i>\\r\\n                            <h3>TI\\xe1\\xbb\\x86N L\\xe1\\xbb\\xa2I V\\xc3\\x80 NHANH CH\\xc3\\x93NG</h3>\\r\\n                            <p class="ellipsis-hidden-4">D\\xe1\\xbb\\x85 d\\xc3\\xa0ng theo d\\xc3\\xb5i \\xc4\\x91\\xc6\\xa1n h\\xc3\\xa0ng theo t\\xe1\\xbb\\xabng giai \\xc4\\x91o\\xe1\\xba\\xa1n v\\xe1\\xba\\xadn chuy\\xe1\\xbb\\x83n theo th\\xe1\\xbb\\x9di gian th\\xe1\\xbb\\xb1c nh\\xe1\\xbb\\x9d \\xe1\\xbb\\xa9ng d\\xe1\\xbb\\xa5ng th\\xc3\\xb4ng minh v\\xc3\\xa0 quy tr\\xc3\\xacnh t\\xe1\\xbb\\xb1\\r\\n                            \\xc4\\x91\\xe1\\xbb\\x99ng ho\\xc3\\xa1.</p>\\r\\n                        </div>\\r\\n                    </div>\\r\\n                </div>\\r\\n            </div>\\r\\n            <div class="col-lg-6">\\r\\n                <div class="what-offer-content">\\r\\n                    <span>D\\xe1\\xbb\\x8aCH V\\xe1\\xbb\\xa4 C\\xe1\\xbb\\x90T L\\xc3\\x95I</span>\\r\\n                    <h2>Gi\\xe1\\xba\\xa3i ph\\xc3\\xa1p h\\xe1\\xba\\xadu c\\xe1\\xba\\xa7n & v\\xe1\\xba\\xadn chuy\\xe1\\xbb\\x83n d\\xc3\\xa0nh cho b\\xe1\\xba\\xa1n an to\\xc3\\xa0n v\\xc3\\xa0 b\\xe1\\xba\\xa3o m\\xe1\\xba\\xadt h\\xc6\\xa1n c\\xc3\\xa1c d\\xe1\\xbb\\x8bch v\\xe1\\xbb\\xa5 kh\\xc3\\xa1c</h2>\\r\\n                    <p class="">\\xe1\\xbb\\xa8ng d\\xe1\\xbb\\xa5ng giao h\\xc3\\xa0ng theo y\\xc3\\xaau c\\xe1\\xba\\xa7u nhanh ch\\xc3\\xb3ng v\\xc3\\xa0 \\xc4\\x91\\xc3\\xa1ng tin c\\xe1\\xba\\xady, giao ngay si\\xc3\\xaau t\\xe1\\xbb\\x91c ho\\xe1\\xba\\xb7c ch\\xe1\\xbb\\xa7 \\xc4\\x91\\xe1\\xbb\\x99ng \\xc4\\x91\\xe1\\xba\\xb7t l\\xe1\\xbb\\x8bch h\\xe1\\xba\\xb9n gi\\xe1\\xbb\\x9d giao h\\xc3\\xa0ng, h\\xe1\\xbb\\x97 tr\\xe1\\xbb\\xa3 \\xc4\\x91\\xe1\\xba\\xafc l\\xe1\\xbb\\xb1c cho c\\xc3\\xb4ng vi\\xe1\\xbb\\x87c kinh doanh c\\xe1\\xbb\\xa7a b\\xe1\\xba\\xa1n \\xe1\\xbb\\x9f m\\xe1\\xbb\\x8di quy m\\xc3\\xb4.</p>\\r\\n                    <a class="default-btn" href="#">\\r\\n                        Xem t\\xe1\\xba\\xa5t c\\xe1\\xba\\xa3\\r\\n                    </a>\\r\\n                </div>\\r\\n            </div>\\r\\n        </div>\\r\\n    </div>\\r\\n</section>\\r\\n<!-- End What We Offer Area -->\\r\\n\\r\\n<!-- Start video Area -->\\r\\n<section class="video-area-six ptb-100">\\r\\n    <div class="container">\\r\\n        <div class="video-content">\\r\\n            <a href="https://www.youtube.com/watch?v=cTxCqUwnLg4" class="video-btn popup-youtube">\\r\\n                <i class=\\\'bx bx-play\\\'></i>\\r\\n            </a>\\r\\n            <h2>B\\xe1\\xba\\xa1n l\\xc3\\xa0 t\\xc3\\xa0i x\\xe1\\xba\\xbf? Gia nh\\xe1\\xba\\xadp v\\xe1\\xbb\\x9bi ch\\xc3\\xbang t\\xc3\\xb4i</h2>\\r\\n            <span style="text-transform: uppercase; font-size: 1.1em; font-weight: 500; color: #fa4612;">L\\xe1\\xbb\\xa3i \\xc3\\xadch nh\\xe1\\xba\\xadn \\xc4\\x91\\xc6\\xb0\\xe1\\xbb\\xa3c</span>\\r\\n            <p>T\\xc4\\x83ng th\\xc3\\xaam thu nh\\xe1\\xba\\xadp m\\xe1\\xbb\\x97i th\\xc3\\xa1ng t\\xe1\\xbb\\xab nh\\xe1\\xbb\\xafng \\xc4\\x91\\xc6\\xa1n giao h\\xc3\\xa0ng. Nh\\xe1\\xba\\xadn ti\\xe1\\xbb\\x81n ngay sau m\\xe1\\xbb\\x97i \\xc4\\x91\\xc6\\xa1n ho\\xc3\\xa0n th\\xc3\\xa0nh.<br>\\r\\n                T\\xe1\\xbb\\xb1 do l\\xe1\\xbb\\xb1a ch\\xe1\\xbb\\x8dn bao nhi\\xc3\\xaau \\xc4\\x91\\xc6\\xa1n h\\xc3\\xa0ng t\\xc3\\xb9y th\\xc3\\xadch b\\xe1\\xba\\xb1ng c\\xc3\\xa1ch l\\xc3\\xa0m vi\\xe1\\xbb\\x87c trong th\\xe1\\xbb\\x9di gian r\\xe1\\xba\\xa3nh.<br />\\r\\n                Linh \\xc4\\x91\\xe1\\xbb\\x99ng l\\xe1\\xbb\\xb1a ch\\xe1\\xbb\\x8dn th\\xe1\\xbb\\x9di gian b\\xe1\\xba\\xa1n mu\\xe1\\xbb\\x91n l\\xc3\\xa0m vi\\xe1\\xbb\\x87c v\\xc3\\xa0 \\xc4\\x91\\xc6\\xa1n h\\xc3\\xa0ng m\\xc3\\xa0 b\\xe1\\xba\\xa1n mu\\xe1\\xbb\\x91n giao.</p>\\r\\n            <a href="/tai-xe" class="default-btn">\\r\\n                T\\xc3\\xacm hi\\xe1\\xbb\\x83u th\\xc3\\xaam\\r\\n            </a>\\r\\n        </div>\\r\\n    </div>\\r\\n</section>\\r\\n<!-- End video Area -->\\r\\n\\r\\n\\r\\n<!-- Start Project Area -->\\r\\n<section class="project-area-six ptb-100">\\r\\n    <div class="container">\\r\\n        <div class="section-title">\\r\\n            <span>C\\xc3\\x81C D\\xe1\\xbb\\xb0 \\xc3\\x81N C\\xe1\\xbb\\xa6A CH\\xc3\\x9aNG T\\xc3\\x94I</span>\\r\\n            <h2>D\\xe1\\xbb\\xb1 \\xc3\\xa1n n\\xe1\\xbb\\x95i b\\xe1\\xba\\xadt \\xc4\\x91\\xc3\\xa3 th\\xe1\\xbb\\xb1c hi\\xe1\\xbb\\x87n</h2>\\r\\n            <p></p>\\r\\n        </div>\\r\\n\\r\\n        <div class="project-wraps">\\r\\n            <div class="row">\\r\\n                <div class="col-12">\\r\\n                    <div class="row">\\r\\n                        <div class="col-lg-4 col-md-6">\\r\\n                            <div class="single-project">\\r\\n                                <div class="project-image bg-1">\\r\\n                                    <div class="price-wrap"></div>\\r\\n                                </div>\\r\\n\\r\\n                                <div class="project-content">\\r\\n                                    <div>\\r\\n                                        <span>V\\xe1\\xba\\xadn chuy\\xe1\\xbb\\x83n thi\\xe1\\xba\\xbft b\\xe1\\xbb\\x8b</span>\\r\\n\\r\\n                                        <h3>\\r\\n                                            <a href="#">\\r\\n                                            V\\xe1\\xba\\xadn t\\xe1\\xba\\xa3i m\\xc3\\xa1y bi\\xe1\\xba\\xbfn th\\xe1\\xba\\xbf d\\xe1\\xbb\\xb1 \\xc3\\xa1n th\\xe1\\xbb\\xa7y \\xc4\\x91i\\xe1\\xbb\\x87n th\\xc6\\xb0\\xe1\\xbb\\xa3ng kon tum\\r\\n                                            </a>\\r\\n                                        </h3>\\r\\n\\r\\n                                        <a class="read-more" href="#">\\r\\n                                            Xem th\\xc3\\xaam\\r\\n                                        </a>\\r\\n                                    </div>\\r\\n                                </div>\\r\\n                            </div>\\r\\n                        </div>\\r\\n\\r\\n                        <div class="col-lg-4 col-md-6">\\r\\n                            <div class="single-project">\\r\\n                                <div class="project-image bg-2">\\r\\n                                    <div class="price-wrap">\\r\\n                                    </div>\\r\\n                                </div>\\r\\n\\r\\n                                <div class="project-content">\\r\\n                                    <div>\\r\\n                                        <span>V\\xe1\\xba\\xadn chuy\\xe1\\xbb\\x83n thi\\xe1\\xba\\xbft b\\xe1\\xbb\\x8b</span>\\r\\n\\r\\n                                        <h3>\\r\\n                                            <a href="#">\\r\\n                                            V\\xe1\\xba\\xadt li\\xe1\\xbb\\x87u trang tr\\xc3\\xad n\\xe1\\xbb\\x99i ngo\\xe1\\xba\\xa1i th\\xe1\\xba\\xa5t v\\xe1\\xbb\\x9bi c\\xc3\\xb4ng ty abt\\r\\n                                            </a>\\r\\n                                        </h3>\\r\\n\\r\\n                                        <a class="read-more" href="#">\\r\\n                                            Xem th\\xc3\\xaam\\r\\n                                        </a>\\r\\n                                    </div>\\r\\n                                </div>\\r\\n                            </div>\\r\\n                        </div>\\r\\n\\r\\n                        <div class="col-lg-4 col-md-12">\\r\\n                            <div class="single-project">\\r\\n                                <div class="project-image bg-3">\\r\\n                                    <div class="price-wrap">\\r\\n                                    </div>\\r\\n                                </div>\\r\\n\\r\\n                                <div class="project-content">\\r\\n                                    <div>\\r\\n                                        <span>V\\xe1\\xba\\xadn chuy\\xe1\\xbb\\x83n l\\xc3\\xb4</span>\\r\\n\\r\\n                                        <h3>\\r\\n                                            <a href="#">\\r\\n                                                H\\xc3\\xa0ng d\\xe1\\xbb\\xb1 \\xc3\\xa1n nh\\xc3\\xa0 m\\xc3\\xa1y xi m\\xc4\\x83ng\\r\\n                                            </a>\\r\\n                                        </h3>\\r\\n\\r\\n                                        <a class="read-more" href="#">\\r\\n                                            Xem th\\xc3\\xaam\\r\\n                                        </a>\\r\\n                                    </div>\\r\\n                                </div>\\r\\n                            </div>\\r\\n                        </div>\\r\\n                    </div>\\r\\n                </div>\\r\\n\\r\\n                <div class="col-12">\\r\\n                    <div class="row">\\r\\n                        <div class="col-lg-4 col-md-6">\\r\\n                            <div class="single-project">\\r\\n                                <div class="project-image bg-4">\\r\\n                                    <div class="price-wrap">\\r\\n                                    </div>\\r\\n                                </div>\\r\\n\\r\\n                                <div class="project-content">\\r\\n                                    <div>\\r\\n                                        <span>V\\xe1\\xba\\xadn t\\xe1\\xba\\xa3i h\\xc3\\xa0ng thi\\xe1\\xba\\xbft b\\xe1\\xbb\\x8b</span>\\r\\n\\r\\n                                        <h3>\\r\\n                                            <a href="#">\\r\\n                                                B\\xe1\\xba\\xbfp cho c\\xc3\\xb4ng ty c\\xe1\\xbb\\x95 ph\\xe1\\xba\\xa9n aroki\\r\\n                                            </a>\\r\\n                                        </h3>\\r\\n\\r\\n                                        <a class="read-more" href="#">\\r\\n                                            Xem th\\xc3\\xaam\\r\\n                                        </a>\\r\\n                                    </div>\\r\\n                                </div>\\r\\n                            </div>\\r\\n                        </div>\\r\\n\\r\\n                        <div class="col-lg-8 col-md-6">\\r\\n                            <div class="single-project">\\r\\n                                <div class="project-image bg-5">\\r\\n                                    <div class="price-wrap"></div>\\r\\n                                </div>\\r\\n\\r\\n                                <div class="project-content">\\r\\n                                    <div>\\r\\n                                        <span>K\\xc3\\xbd k\\xe1\\xba\\xbft h\\xe1\\xbb\\xa3p \\xc4\\x91\\xe1\\xbb\\x93ng</span>\\r\\n\\r\\n                                        <h3>\\r\\n                                            <a href="#">\\r\\n                                                L\\xe1\\xbb\\x85 k\\xc3\\xbd k\\xe1\\xba\\xbft v\\xe1\\xba\\xadn t\\xe1\\xba\\xa3i v\\xe1\\xba\\xadt li\\xe1\\xbb\\x87u trang tr\\xc3\\xad n\\xe1\\xbb\\x99i ngo\\xe1\\xba\\xa1i th\\xe1\\xba\\xa5t v\\xe1\\xbb\\x9bi c\\xc3\\xb4ng ty abt\\r\\n                                            </a>\\r\\n                                        </h3>\\r\\n\\r\\n                                        <a class="read-more" href="#">\\r\\n                                            Xem th\\xc3\\xaam\\r\\n                                        </a>\\r\\n                                    </div>\\r\\n                                </div>\\r\\n                            </div>\\r\\n                        </div>\\r\\n                    </div>\\r\\n                </div>\\r\\n\\r\\n                <div class="col-12">\\r\\n                    <a class="default-btn" href="#">\\r\\n                        Xem th\\xc3\\xaam\\r\\n                    </a>\\r\\n                </div>\\r\\n            </div>\\r\\n        </div>\\r\\n    </div>\\r\\n</section>\\r\\n<!-- End Project Area -->\\r\\n\\r\\n\\r\\n<!-- Start Counter Area -->\\r\\n<section class="counter-area-six pb-70">\\r\\n    <div class="container">\\r\\n        <div class="row">\\r\\n            <div class="col-lg-3 col-sm-6">\\r\\n                <div class="single-counter">\\r\\n                    <i class="flaticon-box"></i>\\r\\n\\r\\n                    <h2>\\r\\n                        <span class="odometer" data-count="8845">00</span>\\r\\n                        <span class="target">   </span>\\r\\n                    </h2>\\r\\n\\r\\n                    <p>G\\xc3\\xb3i h\\xc3\\xa0ng \\xc4\\x91\\xc3\\xa3 giao</p>\\r\\n                </div>\\r\\n            </div>\\r\\n\\r\\n            <div class="col-lg-3 col-sm-6">\\r\\n                <div class="single-counter">\\r\\n                    <i class="flaticon-planet-earth"></i>\\r\\n\\r\\n                    <h2>\\r\\n                        <span class="odometer" data-count="1507">00</span>\\r\\n                        <span class="target"></span>\\r\\n                    </h2>\\r\\n\\r\\n                    <p>\\xc4\\x90i\\xe1\\xbb\\x83m nh\\xe1\\xba\\xadn h\\xc3\\xa0ng</p>\\r\\n                </div>\\r\\n            </div>\\r\\n\\r\\n            <div class="col-lg-3 col-sm-6">\\r\\n                <div class="single-counter">\\r\\n                    <i class="flaticon-support"></i>\\r\\n\\r\\n                    <h2>\\r\\n                        <span class="odometer" data-count="1000">00</span>\\r\\n                        <span class="traget"></span>\\r\\n                    </h2>\\r\\n\\r\\n                    <p>\\xc4\\x90\\xe1\\xbb\\x91i t\\xc3\\xa1c doanh ngi\\xe1\\xbb\\x87p</p>\\r\\n                </div>\\r\\n            </div>\\r\\n\\r\\n            <div class="col-lg-3 col-sm-6">\\r\\n                <div class="single-counter">\\r\\n                    <i class="flaticon-product-realise"></i>\\r\\n\\r\\n                    <h2>\\r\\n                        <span class="odometer" data-count="4586">00</span>\\r\\n                        <span class="traget"></span>\\r\\n                    </h2>\\r\\n\\r\\n                    <p>\\xc4\\x90\\xe1\\xbb\\x91i t\\xc3\\xa1c t\\xc3\\xa0i x\\xe1\\xba\\xbf</p>\\r\\n                </div>\\r\\n            </div>\\r\\n        </div>\\r\\n    </div>\\r\\n</section>\\r\\n<!-- End Counter Area -->\\r\\n\\r\\n<!-- End Began Area -->\\r\\n\', escape=False)\nresponse.write(\'<!-- End Began Area -->\\n<section class="began-area began-area-three began-area-four">\\n    <div class="container-fluid p-0">\\n        <div class="began-top-wrap">\\n            <div class="row">\\n                <div class="col-lg-5 pr-0">\\n                    <div class="begans-bg">\\n                    </div>\\n                </div>\\n                <div class="col-lg-7 pl-0">\\n                    <div class="began-wrap">\\n                        <h2>Gi\\xe1\\xbb\\xaf an to\\xc3\\xa0n cho h\\xc3\\xa0ng h\\xc3\\xb3a c\\xe1\\xbb\\xa7a b\\xe1\\xba\\xa1n v\\xe1\\xbb\\x9bi Ghephang</h2>\\n                        <div class="row">\\n                            <div class="col-lg-4 col-sm-6 p-0">\\n                                <div class="single-began">\\n                                    <i class="flaticon-fast-delivery"></i>\\n                                    <h3>Giao h\\xc3\\xa0ng nhanh v\\xc3\\xa0 hi\\xe1\\xbb\\x87u qu\\xe1\\xba\\xa3</h3>\\n                                </div>\\n                            </div>\\n                            <div class="col-lg-4 col-sm-6 p-0">\\n                                <div class="single-began">\\n                                    <i class="flaticon-lock"></i>\\n                                    <h3>B\\xe1\\xba\\xa3o hi\\xe1\\xbb\\x83m cho ph\\xc6\\xb0\\xc6\\xa1ng ti\\xe1\\xbb\\x87n v\\xe1\\xba\\xadn chuy\\xe1\\xbb\\x83n</h3>\\n                                </div>\\n                            </div>\\n                            <div class="col-lg-4 col-sm-6 p-0">\\n                                <div class="single-began">\\n                                    <i class="flaticon-stopwatch"></i>\\n                                    <h3>Theo d\\xc3\\xb5i th\\xe1\\xbb\\x9di gian th\\xe1\\xbb\\xb1c</h3>\\n                                </div>\\n                            </div>\\n                            <div class="col-lg-4 col-sm-6 p-0">\\n                                <div class="single-began">\\n                                    <i class="flaticon-payment-method"></i>\\n                                    <h3>Ph\\xc6\\xb0\\xc6\\xa1ng th\\xe1\\xbb\\xa9c thanh to\\xc3\\xa1n d\\xe1\\xbb\\x85 d\\xc3\\xa0ng</h3>\\n                                </div>\\n                            </div>\\n                            <div class="col-lg-4 col-sm-6 p-0">\\n                                <div class="single-began">\\n                                    <i class="flaticon-warehouse"></i>\\n                                    <h3>H\\xe1\\xbb\\x97 tr\\xe1\\xbb\\xa3 24/7</h3>\\n                                </div>\\n                            </div>\\n                            <div class="col-lg-4 col-sm-6 p-0">\\n                                <div class="single-began">\\n                                    <i class="flaticon-distribution"></i>\\n                                    <h3>Kho l\\xc6\\xb0u tr\\xe1\\xbb\\xaf an to\\xc3\\xa0n</h3>\\n                                </div>\\n                            </div>\\n                        </div>\\n                    </div>\\n                </div>\\n            </div>\\n        </div>\\n    </div>\\n</section>\\n<!-- End Began Area -->\', escape=False)\nresponse.write(\'\\r\\n<!-- End Began Area -->\\r\\n\\r\\n<!-- Start Testimonials Area Three -->\\r\\n\', escape=False)\nresponse.write(\'<section class="testimonials-three pt-100 pb-70">\\r\\n    <div class="container">\\r\\n        <div class="section-title">\\r\\n            <span>Kh\\xc3\\xa1ch h\\xc3\\xa0ng chia s\\xe1\\xba\\xbb v\\xe1\\xbb\\x81</span>\\r\\n            <h2>D\\xe1\\xbb\\x8aCH V\\xe1\\xbb\\xa4 C\\xe1\\xbb\\xa6A GH\\xc3\\x89P H\\xc3\\x80NG</h2>\\r\\n        </div>\\r\\n        <div class="row">\\r\\n            <div class="testimonials-wrap-three owl-carousel owl-theme">\\r\\n                <div class="testimonials-content-three">\\r\\n                    <div class="testimonials-top-content">\\r\\n                        <img src="\', escape=False)\nresponse.write(URL(\'static\',\'%s/img\')%(static_default))\nresponse.write(\'/testimonials/breaking.png" alt="Image">\\r\\n                        <h3>Ho\\xc3\\xa0ng Minh</h3>\\r\\n                        <span>Tr\\xc6\\xb0\\xe1\\xbb\\x9fng ph\\xc3\\xb2ng v\\xe1\\xba\\xadn chuy\\xe1\\xbb\\x83n \\xc4\\x90i\\xe1\\xbb\\x87n M\\xc3\\xa1y Xanh</span>\\r\\n                    </div>\\r\\n                    <p>D\\xe1\\xbb\\x8bch v\\xe1\\xbb\\xa5 chuy\\xc3\\xaan nghi\\xe1\\xbb\\x87p, l\\xc3\\xa0m vi\\xe1\\xbb\\x87c hi\\xe1\\xbb\\x87u qu\\xe1\\xba\\xa3, nhanh ch\\xc3\\xb3ng. Gi\\xc3\\xa1 c\\xe1\\xba\\xa3 c\\xc5\\xa9ng r\\xe1\\xba\\xa5t ph\\xc3\\xb9 h\\xe1\\xbb\\xa3p, nh\\xc3\\xa2n vi\\xc3\\xaan r\\xe1\\xba\\xa5t c\\xc3\\xb3 tr\\xc3\\xa1ch nhi\\xe1\\xbb\\x87m.</p>\\r\\n                    <ul>\\r\\n                        <li>\\r\\n                            <i class=\\\'bx bxs-star\\\'></i>\\r\\n                        </li>\\r\\n                        <li>\\r\\n                            <i class=\\\'bx bxs-star\\\'></i>\\r\\n                        </li>\\r\\n                        <li>\\r\\n                            <i class=\\\'bx bxs-star\\\'></i>\\r\\n                        </li>\\r\\n                        <li>\\r\\n                            <i class=\\\'bx bxs-star\\\'></i>\\r\\n                        </li>\\r\\n                        <li>\\r\\n                            <i class=\\\'bx bxs-star\\\'></i>\\r\\n                        </li>\\r\\n                    </ul>\\r\\n                </div>\\r\\n                <div class="testimonials-content-three">\\r\\n                    <div class="testimonials-top-content">\\r\\n                        <img src="\', escape=False)\nresponse.write(URL(\'static\',\'%s/img\')%(static_default))\nresponse.write(\'/testimonials/User-Avatar-in-Suit-PNG.png" alt="Image">\\r\\n                        <h3>Ho\\xc3\\xa0ng Th\\xe1\\xba\\xafng</h3>\\r\\n                        <span>Ph\\xc3\\xb3 gi\\xc3\\xa1m \\xc4\\x91\\xe1\\xbb\\x91c BIH</span>\\r\\n                    </div>\\r\\n                    <p>Hi\\xe1\\xbb\\x87u qu\\xe1\\xba\\xa3 mang l\\xe1\\xba\\xa1i cao. Ch\\xe1\\xba\\xa5m 10 \\xc4\\x91i\\xe1\\xbb\\x83m cho s\\xe1\\xbb\\xb1 nhanh ch\\xc3\\xb3ng. Gi\\xc3\\xa1 c\\xe1\\xba\\xa3 c\\xc5\\xa9ng r\\xe1\\xba\\xa5t h\\xe1\\xbb\\xa3p l\\xc3\\xbd. Kh\\xc3\\xb4ng c\\xe1\\xba\\xa7n ph\\xe1\\xba\\xa3i b\\xc3\\xa0n c\\xc3\\xa3i nhi\\xe1\\xbb\\x81u v\\xe1\\xbb\\x81 ch\\xe1\\xba\\xa5t\\r\\n                    l\\xc6\\xb0\\xe1\\xbb\\xa3ng !!!</p>\\r\\n                    <ul>\\r\\n                        <li>\\r\\n                            <i class=\\\'bx bxs-star\\\'></i>\\r\\n                        </li>\\r\\n                        <li>\\r\\n                            <i class=\\\'bx bxs-star\\\'></i>\\r\\n                        </li>\\r\\n                        <li>\\r\\n                            <i class=\\\'bx bxs-star\\\'></i>\\r\\n                        </li>\\r\\n                        <li>\\r\\n                            <i class=\\\'bx bxs-star\\\'></i>\\r\\n                        </li>\\r\\n                        <li>\\r\\n                            <i class=\\\'bx bxs-star\\\'></i>\\r\\n                        </li>\\r\\n                    </ul>\\r\\n                </div>\\r\\n                <div class="testimonials-content-three">\\r\\n                    <div class="testimonials-top-content">\\r\\n                        <img src="\', escape=False)\nresponse.write(URL(\'static\',\'%s/img\')%(static_default))\nresponse.write(\'/testimonials/User-Avatar-Profile-PNG-Isolated-Transparent-Picture.png" alt="Image">\\r\\n                        <h3>Mr Nam Vinh</h3>\\r\\n                        <span>Gi\\xc3\\xa1m \\xc4\\x91\\xe1\\xbb\\x91c v\\xe1\\xba\\xadn h\\xc3\\xa0nh Nam Vinh Group</span>\\r\\n                    </div>\\r\\n                    <p>D\\xe1\\xbb\\x8bch v\\xe1\\xbb\\xa5 Gh\\xc3\\xa9p H\\xc3\\xa0ng v\\xe1\\xba\\xadn chuy\\xe1\\xbb\\x83n h\\xc3\\xa0ng h\\xc3\\xb3a m\\xe1\\xbb\\x8di kh\\xe1\\xbb\\x91i l\\xc6\\xb0\\xe1\\xbb\\xa3ng l\\xe1\\xbb\\x9bn nh\\xe1\\xbb\\x8f, \\xc4\\x91\\xe1\\xba\\xa3m b\\xe1\\xba\\xa3o kh\\xc3\\xb4ng h\\xc6\\xb0 h\\xe1\\xbb\\x8fng, va ch\\xe1\\xba\\xa1m trong qu\\xc3\\xa1 tr\\xc3\\xacnh v\\xe1\\xba\\xadn chuy\\xe1\\xbb\\x83n\\r\\n                    h\\xc3\\xa0ng.</p>\\r\\n                    <ul>\\r\\n                        <li>\\r\\n                            <i class=\\\'bx bxs-star\\\'></i>\\r\\n                        </li>\\r\\n                        <li>\\r\\n                            <i class=\\\'bx bxs-star\\\'></i>\\r\\n                        </li>\\r\\n                        <li>\\r\\n                            <i class=\\\'bx bxs-star\\\'></i>\\r\\n                        </li>\\r\\n                        <li>\\r\\n                            <i class=\\\'bx bxs-star\\\'></i>\\r\\n                        </li>\\r\\n                        <li>\\r\\n                            <i class=\\\'bx bxs-star\\\'></i>\\r\\n                        </li>\\r\\n                    </ul>\\r\\n                </div>\\r\\n            </div>\\r\\n        </div>\\r\\n    </div>\\r\\n</section>\', escape=False)\nresponse.write(\'\\r\\n<!-- End Testimonials Area Three -->\\r\\n\\r\\n<!-- Start Blog Area -->\\r\\n<section class="blog-area pb-70">\\r\\n    <div class="container">\\r\\n        <div class="section-title">\\r\\n            <span>News & Blog</span>\\r\\n            <h2>Tin t\\xe1\\xbb\\xa9c m\\xe1\\xbb\\x9bi nh\\xe1\\xba\\xa5t.</h2>\\r\\n            <p>C\\xe1\\xba\\xadp nh\\xe1\\xba\\xadt tin t\\xe1\\xbb\\xa9c m\\xe1\\xbb\\x9bi nh\\xe1\\xba\\xa5t h\\xc3\\xa0ng ng\\xc3\\xa0y</p>\\r\\n        </div>\\r\\n\\r\\n        <div class="row">\\r\\n             <!-- portlet 170 -->\\r\\n            \', escape=False)\nresponse.write(portlet.display_no_wr(170))\nresponse.write(\'\\r\\n        </div>\\r\\n    </div>\\r\\n</section>\\r\\n<!-- End Blog Area -->\\r\\n\\r\\n<!-- Start Brand Area -->\\r\\n<div class="brand-area pb-70">\\r\\n    <div class="container">\\r\\n        <div class="row">\\r\\n            <div class="brand-wrap owl-carousel owl-theme">\\r\\n                <!-- portlet 174 -->\\r\\n                \', escape=False)\nresponse.write(portlet.display_no_wr(174))\nresponse.write(\'\\r\\n            </div>\\r\\n        </div>\\r\\n    </div>\\r\\n</div>\\r\\n<!-- End Brand Area -->\\r\\n\\r\\n<!-- Start Subscribe Area -->\\r\\n<div class="subscribe-area subscribe-area-three subscribe-area-four">\\r\\n    <div class="container">\\r\\n        <div class="subscribe-wrap">\\r\\n            <div class="row align-items-center">\\r\\n                <div class="col-lg-6 col-md-6">\\r\\n                    <div class="tracking-logo">\\r\\n                        \\r\\n                    </div>\\r\\n                </div>\\r\\n                <div class="col-lg-6 col-md-6">\\r\\n                    <div class="tracking-body" style="padding-left: 50px">\\r\\n                        <form class="tracking-wrap newsletter-form" data-toggle="validator" >\\r\\n                            <input type="email" class="input-tracking" placeholder="Email c\\xe1\\xbb\\xa7a b\\xe1\\xba\\xa1n" name="EMAIL" required\\r\\n                                autocomplete="off">\\r\\n\\r\\n                            <button class="default-btn active" type="submit">\\r\\n                                \\xc4\\x90\\xc4\\x83ng k\\xc3\\xbd\\r\\n                            </button>\\r\\n                            <div id="validator-newsletter" class="form-result"></div>\\r\\n                        </form>\\r\\n                    </div>\\r\\n                </div>\\r\\n            </div>\\r\\n        </div>\\r\\n\\r\\n    </div>\\r\\n</div>\\r\\n<!-- End Subscribe Area -->\\r\\n\\r\\n<!-- Start Regional offices  Area -->\\r\\n<section class="office-map-area office-map-area-two office-map-area-four mt-minus-70" style="position: relative;">\\r\\n    <div class="container" style="width: 325px; margin-left: 100%; transform: translateX(-120%);  z-index: 1;">\\r\\n        \', escape=False)\nresponse.write(portlet.display(171))\nresponse.write(\'\\r\\n    </div>\\r\\n\\r\\n    <!-- Google maps -->\\r\\n    \', escape=False)\nresponse.write(\'<iframe\\r\\n    src="https://www.google.com/maps/embed?pb=!1m18!1m12!1m3!1d3779.9548884879973!2d105.66507638832722!3d18.66602021949211!2m3!1f0!2f0!3f0!3m2!1i1024!2i768!4f13.1!3m3!1m2!1s0x3139ce6179195467%3A0x6f9e1fa1de9d74e!2zMTE3IFBoYW4gxJDDrG5oIFBow7luZywgQ-G7rWEgTmFtLCBUaMOgbmggcGjhu5EgVmluaCwgTmdo4buHIEFuLCBWaeG7h3QgTmFt!5e0!3m2!1svi!2s!4v1690789591292!5m2!1svi!2s"\\r\\n    width="2800" height="600" style="border:0;" allowfullscreen="" loading="lazy"\\r\\n    referrerpolicy="no-referrer-when-downgrade"></iframe>\', escape=False)\nresponse.write(\'\\r\\n\\r\\n</section>\\r\\n<!-- End Regional offices Area -->\\r\\n\\r\\n\', escape=False)\nresponse.write(\'\\r\\n    </div>\\r\\n\\r\\n    \', escape=False)\nresponse.write(\'\\r\\n    \', escape=False)\nresponse.write(\'\\r\\n\\r\\n    \', escape=False)\nresponse.write(\'<footer class="footer-top-area pt-100 pb-70 bg-f7f7f7">\\r\\n    <div class="container">\\r\\n        <div class="row">\\r\\n            <div class="col-lg-3 col-md-6">\\r\\n                 \', escape=False)\nresponse.write(portlet.display(116))\nresponse.write(\'\\r\\n            </div>\\r\\n            <div class="col-lg-3 col-md-6">\\r\\n                 \', escape=False)\nresponse.write(portlet.display(166))\nresponse.write(\'\\r\\n            </div>\\r\\n            <div class="col-lg-3 col-md-6">\\r\\n                 \', escape=False)\nresponse.write(portlet.display(118))\nresponse.write(\'\\r\\n            </div>\\r\\n            <div class="col-lg-3 col-md-6">\\r\\n                <div class="single-widget">\\r\\n                    <h3>Theo d\\xc3\\xb5i ch\\xc3\\xbang t\\xc3\\xb4i </h3>\\r\\n                    <div id="fb-root"></div>\\r\\n                    <script>(function (d, s, id) {\\r\\n                            var js, fjs = d.getElementsByTagName(s)[0];\\r\\n                            if (d.getElementById(id)) return;\\r\\n                            js = d.createElement(s); js.id = id;\\r\\n                            js.src = "//connect.facebook.net/vi_VN/sdk.js#xfbml=1&version=v2.6&appId=215619355450603";\\r\\n                            fjs.parentNode.insertBefore(js, fjs);\\r\\n                        }(document, \\\'script\\\', \\\'facebook-jssdk\\\'));</script>\\r\\n\\r\\n                    <div style="margin-top: 12px;" class="fb-page" data-href="https://www.facebook.com/Ghephangcom" data-small-header="false"\\r\\n                        data-adapt-container-width="true" data-hide-cover="false" data-show-facepile="true"></div>\\r\\n                    <p></p>\\r\\n                    <ul class="social-link">\\r\\n                        \', escape=False)\nresponse.write(\'<li>\\r\\n    <a href="#">\\r\\n        <i class=\\\'bx bxl-twitter\\\'></i>\\r\\n    </a>\\r\\n</li>\\r\\n<li>\\r\\n    <a href="#">\\r\\n        <i class=\\\'bx bxl-facebook\\\'></i>\\r\\n    </a>\\r\\n</li>\\r\\n<li>\\r\\n    <a href="#">\\r\\n        <i class=\\\'bx bxl-instagram\\\'></i>\\r\\n    </a>\\r\\n</li>\\r\\n<li>\\r\\n    <a href="#">\\r\\n        <i class=\\\'bx bxl-linkedin\\\'></i>\\r\\n    </a>\\r\\n</li>\\r\\n\', escape=False)\nresponse.write(\'\\r\\n                    </ul>\\r\\n                </div>\\r\\n            </div>\\r\\n        </div>\\r\\n        <hr/>\\r\\n        <div class="row">\\r\\n            \', escape=False)\nresponse.write(portlet.display(163))\nresponse.write(\'\\r\\n        </div>\\r\\n    </div>\\r\\n    <div class="lines">\\r\\n        <div class="line"></div>\\r\\n        <div class="line"></div>\\r\\n        <div class="line"></div>\\r\\n        <div class="line"></div>\\r\\n    </div>\\r\\n</footer>\', escape=False)\nresponse.write(\'\\r\\n    <!-- Start Footer Bottom Area -->\\r\\n    <footer class="footer-bottom-area footer-bottom-area-four">\\r\\n        <div class="container">\\r\\n            <div class="row align-items-center">\\r\\n                <div class="col-lg-6">\\r\\n                    <div class="single-widget-bottom">\\r\\n                        <ul>\\r\\n                            <li>\\r\\n                                <a href="#">\\xc4\\x90i\\xe1\\xbb\\x81u kho\\xe1\\xba\\xa3n v\\xc3\\xa0 \\xc4\\x91i\\xe1\\xbb\\x81u ki\\xe1\\xbb\\x87n</a>\\r\\n                            </li>\\r\\n                            <li>\\r\\n                                <a href="#">Ch\\xc3\\xadnh s\\xc3\\xa1ch b\\xe1\\xba\\xa3o m\\xe1\\xba\\xadt</a>\\r\\n                            </li>\\r\\n                            <li>\\r\\n                                <a href="#">\\xc4\\x90\\xc4\\x83ng nh\\xe1\\xba\\xadp</a>\\r\\n                            </li>\\r\\n                        </ul>\\r\\n                    </div>\\r\\n                </div>\\r\\n                <div class="col-lg-6">\\r\\n                    <div class="single-widget-bottom">\\r\\n                        <p>Copyright <i class="bx bx-copyright"></i> by ghephang.com. All rights reserved</p>\\r\\n                    </div>\\r\\n                </div>\\r\\n            </div>\\r\\n        </div>\\r\\n    </footer>\\r\\n\\r\\n    <div>\\r\\n        <div id="overlay" onclick="off()" style="display: none;"></div>\\r\\n        <div class="position-fixed text-right floating-action-menu">\\r\\n            <div class="action-menu">\\r\\n                <a class="floating-action px-2 py-2" href="/tra-van-don">\\r\\n                    <div class="badge">Tra c\\xe1\\xbb\\xa9u v\\xe1\\xba\\xadn \\xc4\\x91\\xc6\\xa1n</div>\\r\\n                    <span class="btn-floating">\\r\\n                        <img src="\', escape=False)\nresponse.write(URL(\'static\',\'%s/images\')%(static_default))\nresponse.write(\'/icon-fab-search-bill.svg"\\r\\n                            alt="icon-fab-search-bill" class="img-fluid" width="30">\\r\\n                    </span>\\r\\n                </a>\\r\\n                <a class="floating-action px-2 py-2" href="/tao-don">\\r\\n                    <div class="badge">Y\\xc3\\xaau c\\xe1\\xba\\xa7u b\\xc3\\xa1o gi\\xc3\\xa1</div>\\r\\n                    <span class="btn-floating">\\r\\n                        <img src="\', escape=False)\nresponse.write(URL(\'static\',\'%s/images\')%(static_default))\nresponse.write(\'/icon-fab-create-bill.svg"\\r\\n                            alt="icon-fab-create-bill" class="img-fluid" width="30">\\r\\n                    </span>\\r\\n                </a>\\r\\n                <a class="floating-action px-2 py-2" href="/tim-buu-cuc">\\r\\n                    <div class="badge">T\\xc3\\xacm b\\xc6\\xb0u c\\xe1\\xbb\\xa5c</div>\\r\\n                    <span class="btn-floating">\\r\\n                        <img src="\', escape=False)\nresponse.write(URL(\'static\',\'%s/images\')%(static_default))\nresponse.write(\'/icon-fab-search-price.svg"\\r\\n                            alt="icon-fab-search-price" class="img-fluid" width="30">\\r\\n                    </span>\\r\\n                </a>\\r\\n                <!-- <a class="floating-action px-2 py-2" href="bang-gia-dich-vu">\\r\\n                    <div class="badge">Nh\\xe1\\xba\\xafn tin</div>\\r\\n                    <span class="btn-floating">\\r\\n                        <img src="\', escape=False)\nresponse.write(URL(\'static\',\'%s/images\')%(static_default))\nresponse.write(\'/icon-fab-price-list.svg" alt="icon-fab-price-list" class="img-fluid"\\r\\n                            width="30">\\r\\n                    </span>\\r\\n                </a> -->\\r\\n                <!-- <a class="floating-action px-2 py-2" href="/#footer-v2">\\r\\n                    <div class="badge">T\\xe1\\xba\\xa3i App NTX</div>\\r\\n                    <span class="btn-floating">\\r\\n                        <img src="\', escape=False)\nresponse.write(URL(\'static\',\'%s/images\')%(static_default))\nresponse.write(\'/icon-fab-get-app.svg" alt="icon-fab-get-app" class="img-fluid" width="30">\\r\\n                    </span>\\r\\n                </a> -->\\r\\n                <!-- fb-messenger://user-thread/149397918580307  https://zalo.me/0377888678-->\\r\\n\\r\\n\\r\\n                <a class="floating-action px-2 py-2" id="chat_message_id" target="_blank" href="#">\\r\\n                    <div class="badge">Chat v\\xe1\\xbb\\x9bi GhepHang</div>\\r\\n                    <span class="btn-floating">\\r\\n                        <img src="\', escape=False)\nresponse.write(URL(\'static\',\'%s/images\')%(static_default))\nresponse.write(\'/icon-fab-chat.svg" alt="icon-fab-chat"\\r\\n                            class="img-fluid" width="30">\\r\\n                    </span>\\r\\n                </a>\\r\\n                <a class="floating-action px-2 py-2" href="tel:1900888678">\\r\\n                    <div class="badge">Li\\xc3\\xaan h\\xe1\\xbb\\x87: <strong>1900888678</strong></div>\\r\\n                    <span class="btn-floating">\\r\\n                        <img src="\', escape=False)\nresponse.write(URL(\'static\',\'%s/images\')%(static_default))\nresponse.write(\'/icon-fab-phone.svg"\\r\\n                            alt="icon-fab-phone" class="img-fluid" width="30">\\r\\n                    </span>\\r\\n                </a>\\r\\n            </div>\\r\\n            <div class="d-block action-button">\\r\\n                <a class="btn-floating" onclick="on()">\\r\\n                    <img src="\', escape=False)\nresponse.write(URL(\'static\',\'%s/images\')%(static_default))\nresponse.write(\'/icon-fab.svg" alt="icon-fab"\\r\\n                        class="img-fluid" width="48" style="filter: drop-shadow(2px 4px 15px rgba(0, 0, 0, 0.3));">\\r\\n                </a>\\r\\n            </div>\\r\\n\\r\\n            <script>\\r\\n                window.onload = (event) => {\\r\\n                    const mesa = document.getElementById(\\\'chat_message_id\\\')\\r\\n                    let url = \\\'https://www.facebook.com/Ghephangcom/\\\'\\r\\n                     if (/Android|webOS|iPhone|iPad|iPod|BlackBerry|IEMobile|Opera Mini/i.test(navigator.userAgent) && window.innerWidth <= 550) {\\r\\n                        url = \\\'fb-messenger://user-thread/149397918580307\\\'\\r\\n                    } \\r\\n                    mesa.setAttribute(\\\'href\\\', url);\\r\\n                };\\r\\n               \\r\\n            </script>\\r\\n        </div>\\r\\n    </div>\\r\\n\\r\\n    \', escape=False)\nresponse.write(\'<style>\\r\\n    #show_popup {\\r\\n        position: fixed;\\r\\n        z-index: 1200;\\r\\n        bottom: 32px;\\r\\n        left: 32px;\\r\\n   }\\r\\n    .custom-div {\\r\\n        padding: 15px 20px;\\r\\n        background: rgb(234, 234, 234);\\r\\n        max-height: 0;\\r\\n        opacity: 0;\\r\\n        font-size: 13px;\\r\\n        border-radius: 8px;\\r\\n        transition: max-height 1s ease, opacity 1s ease;\\r\\n        line-height: 1.6em;\\r\\n    }\\r\\n     .custom-div.active {\\r\\n        max-height: 500px;\\r\\n        opacity: 1;\\r\\n        transition: max-height 1s ease, opacity 1s ease;\\r\\n    }\\r\\n\\r\\n    .custom-div .place {\\r\\n        color: rgb(0, 97, 193);\\r\\n        font-weight: 500;\\r\\n    }\\r\\n\\r\\n    .custom-div .image-container {\\r\\n        margin-top: 16px;\\r\\n        display: flex;\\r\\n        align-items: flex-start;\\r\\n    }\\r\\n\\r\\n    .custom-div .image-container img {\\r\\n        width: 70px;\\r\\n        margin-right: 8px;\\r\\n    }\\r\\n\\r\\n    .custom-div .info-container {\\r\\n        display: flex;\\r\\n        flex-direction: column;\\r\\n    }\\r\\n\\r\\n    .custom-div .info-container p {\\r\\n        color: rgb(0, 97, 193);\\r\\n    }\\r\\n\\r\\n    p {\\r\\n        margin: 0;\\r\\n    }\\r\\n</style>\\r\\n<div id="show_popup"></div>\\r\\n<script>\\r\\n    function generateRandomTime() {\\r\\n        const randomMinutesAgo = Math.floor(Math.random() * 26) + 5; // Random time between 5 and 30 minutes\\r\\n        return `${randomMinutesAgo} ph\\xc3\\xbat tr\\xc6\\xb0\\xe1\\xbb\\x9bc`;\\r\\n    }\\r\\n\\r\\n    const card = document.getElementById(\\\'custom-card\\\');\\r\\n    const urldefault = "\', escape=False)\nresponse.write(URL(\'static\',\'%s/images\')%(static_default))\nresponse.write(\'";\\r\\n    const imageUrls = [\\r\\n        urldefault + \\\'/truck.png\\\',\\r\\n        urldefault + \\\'/truck2.png\\\',\\r\\n        urldefault + \\\'/truck3.png\\\',\\r\\n        urldefault + \\\'/truck4.png\\\',\\r\\n        urldefault + \\\'/truck.png\\\',\\r\\n        urldefault + \\\'/truck2.png\\\',\\r\\n        urldefault + \\\'/truck.png\\\',\\r\\n        urldefault + \\\'/truck2.png\\\',\\r\\n        urldefault + \\\'/truck3.png\\\',\\r\\n        urldefault + \\\'/truck4.png\\\',\\r\\n        urldefault + \\\'/truck.png\\\',\\r\\n        urldefault + \\\'/truck.png\\\',\\r\\n        urldefault + \\\'/truck2.png\\\',\\r\\n        urldefault + \\\'/truck.png\\\',\\r\\n\\r\\n    ];\\r\\n    let imageIndex = 0;\\r\\n    let dataIndex = 0;\\r\\n\\r\\n    function formatPhoneNumber(phone) {\\r\\n        return phone.slice(0, phone.length / 2) + \\\'x\\\'.repeat(phone.length - phone.length / 2);\\r\\n    }\\r\\n\\r\\n    function formatCurrency(value) {\\r\\n        return value.toLocaleString(\\\'vi-VN\\\', { style: \\\'currency\\\', currency: \\\'VND\\\' });\\r\\n    }\\r\\n\\r\\n    function renderhtml(item, img){\\r\\n        console.log(item);\\r\\n        let data = `\\r\\n            <div class="custom-div active" id="custom-card">\\r\\n                <span style="color: red; font-weight: bold;">\\xc4\\x90\\xc6\\xa0N H\\xc3\\x80NG M\\xe1\\xbb\\x9aI NH\\xe1\\xba\\xa4T</span>\\r\\n                <p>Kh\\xc3\\xa1ch: <span id="customerName">${item.customer_send.name}</span></p>\\r\\n                <p id="phoneNumber">S\\xc4\\x90T: <span id="phoneText">${formatPhoneNumber(item.customer_send.phone) }</span> - C\\xc6\\xb0\\xe1\\xbb\\x9bc: <span id="transportFee">${item.transport_fee}</span></p>\\r\\n                <p> - <span id="locations">${generateRandomTime()}</span></p>\\r\\n                <div class="image-container">\\r\\n                    <img src="${img}" alt="" id="truckImage">\\r\\n                    <div>\\r\\n                        <p>Nh\\xe1\\xba\\xadn \\xc4\\x91\\xc6\\xa1n th\\xc3\\xa0nh c\\xc3\\xb4ng</p>\\r\\n                        <p id="truckInfo">L\\xc3\\xa1i xe: ${item.trucks.name??\\\'\\xc4\\x90ang c\\xe1\\xba\\xadp nh\\xe1\\xba\\xadt\\\'}</p>\\r\\n                        <p id="truckRoute">Tuy\\xe1\\xba\\xbfn: ${item.trucks?.router?.name??\\\'\\xc4\\x90ang c\\xe1\\xba\\xadp nh\\xe1\\xba\\xadt\\\'}</p>\\r\\n                    </div>\\r\\n                </div>\\r\\n            </div>\\r\\n        `;\\r\\n        document.getElementById(\\\'show_popup\\\').innerHTML = data;\\r\\n    }\\r\\n\\r\\n    function remmeveActive(){\\r\\n        $(\\\'.custom-div\\\').removeClass(\\\'active\\\');\\r\\n    }   \\r\\n\\r\\n    function fetchDataAndDisplayFromAPI() {\\r\\n        fetch(\\\'https://quanly.ghephang.com/gh/api_v1/getListNotice.json\\\')\\r\\n            .then(response => response.json())\\r\\n            .then(data => {\\r\\n                const record = data.list[dataIndex];\\r\\n\\r\\n                let index = 0;\\r\\n                setInterval(function () {\\r\\n                    index = (index + 1) % data.list.length;\\r\\n                    img = imageUrls[index];\\r\\n                    item = data.list[index];\\r\\n                    renderhtml(item, img);\\r\\n                    setTimeout(remmeveActive, 7000); // 2000ms (2 gi\\xc3\\xa2y)\\r\\n                }, 14000); \\r\\n            })\\r\\n            .catch(error => {\\r\\n                console.error(\\\'Error fetching data from API:\\\', error);\\r\\n            });\\r\\n    }\\r\\n\\r\\n    document.addEventListener(\\\'DOMContentLoaded\\\', fetchDataAndDisplayFromAPI);\\r\\n\\r\\n</script>\', escape=False)\nresponse.write(\'\\r\\n    <!-- End Footer Bottom Area -->\\r\\n\\r\\n    <!-- Start Go Top Area -->\\r\\n    <div class="go-top">\\r\\n        <i class=\\\'bx bx-chevrons-up bx-fade-up\\\'></i>\\r\\n        <i class=\\\'bx bx-chevrons-up bx-fade-up\\\'></i>\\r\\n    </div>\\r\\n    <!-- End Go Top Area -->\\r\\n\\r\\n\\r\\n\\r\\n    <!-- Jquery Min JS -->\\r\\n    <script src="\', escape=False)\nresponse.write(URL(\'static\',\'%s/js\')%(static_default))\nresponse.write(\'/jquery.min.js"></script>\\r\\n    <!-- Bootstrap Bundle Min JS -->\\r\\n    <script src="\', escape=False)\nresponse.write(URL(\'static\',\'%s/js\')%(static_default))\nresponse.write(\'/bootstrap.bundle.min.js"></script>\\r\\n    <!-- Meanmenu Min JS -->\\r\\n    <script>\\r\\n        "use strict"; function on() { $(".floating-action-menu").hasClass("active") ? ($(".floating-action-menu").toggleClass("active"), document.getElementById("overlay").style.display = "none") : ($(".floating-action-menu").toggleClass("active"), document.getElementById("overlay").style.display = "block") } function off() { $(".floating-action-menu").toggleClass("active"), document.getElementById("overlay").style.display = "none" }\\r\\n    </script>\\r\\n    <script src="\', escape=False)\nresponse.write(URL(\'static\',\'%s/js\')%(static_default))\nresponse.write(\'/meanmenu.min.js"></script>\\r\\n    <!-- Wow Min JS -->\\r\\n    <script src="\', escape=False)\nresponse.write(URL(\'static\',\'%s/js\')%(static_default))\nresponse.write(\'/wow.min.js"></script>\\r\\n    <!-- Owl Carousel Min JS -->\\r\\n    <script src="\', escape=False)\nresponse.write(URL(\'static\',\'%s/js\')%(static_default))\nresponse.write(\'/owl.carousel.min.js"></script>\\r\\n    <!-- Owl Magnific Min JS -->\\r\\n    <script src="\', escape=False)\nresponse.write(URL(\'static\',\'%s/js\')%(static_default))\nresponse.write(\'/magnific-popup.min.js"></script>\\r\\n    <!-- Nice Select Min JS -->\\r\\n    <!-- <script src="\', escape=False)\nresponse.write(URL(\'static\',\'%s/js\')%(static_default))\nresponse.write(\'/nice-select.min.js"></script> -->\\r\\n    <!-- Appear JS -->\\r\\n    <script src="\', escape=False)\nresponse.write(URL(\'static\',\'%s/js\')%(static_default))\nresponse.write(\'/appear.min.js"></script>\\r\\n    <!-- Odometer JS -->\\r\\n    <script src="\', escape=False)\nresponse.write(URL(\'static\',\'%s/js\')%(static_default))\nresponse.write(\'/odometer.min.js"></script>\\r\\n    <!-- jarallax Min JS -->\\r\\n    <script src="\', escape=False)\nresponse.write(URL(\'static\',\'%s/js\')%(static_default))\nresponse.write(\'/jarallax.min.js"></script>\\r\\n    <!-- Form Ajaxchimp Min JS -->\\r\\n    <script src="\', escape=False)\nresponse.write(URL(\'static\',\'%s/js\')%(static_default))\nresponse.write(\'/ajaxchimp.min.js"></script>\\r\\n    <!-- Form Validator Min JS -->\\r\\n    <script src="\', escape=False)\nresponse.write(URL(\'static\',\'%s/js\')%(static_default))\nresponse.write(\'/form-validator.min.js"></script>\\r\\n    <!-- Contact JS -->\\r\\n    <script src="\', escape=False)\nresponse.write(URL(\'static\',\'%s/js\')%(static_default))\nresponse.write(\'/contact-form-script.js"></script>\\r\\n    <!-- Custom JS -->\\r\\n    <script src="\', escape=False)\nresponse.write(URL(\'static\',\'%s/js\')%(static_default))\nresponse.write(\'/custom.js"></script>\\r\\n    <script src="\', escape=False)\nresponse.write(URL(\'static\',\'%s/js\')%(static_default))\nresponse.write(\'/redirect.js"></script>\\r\\n    \', escape=False)\nresponse.write(\'\\r\\n    \', escape=False)\nresponse.write(\'\\r\\n</body>\\r\\n\\r\\n</html>\', escape=False)'
p7
sS'snapshot'
p8
(dp9
S'exception'
p10
(dp11
S'__hash__'
p12
S"<method-wrapper '__hash__' of exceptions.NameError object>"
p13
sS'__setattr__'
p14
S"<method-wrapper '__setattr__' of exceptions.NameError object>"
p15
sS'__reduce_ex__'
p16
S'<built-in method __reduce_ex__ of exceptions.NameError object>'
p17
sS'__getslice__'
p18
S"<method-wrapper '__getslice__' of exceptions.NameError object>"
p19
sS'__getitem__'
p20
S"<method-wrapper '__getitem__' of exceptions.NameError object>"
p21
sS'__setstate__'
p22
S'<built-in method __setstate__ of exceptions.NameError object>'
p23
sS'__reduce__'
p24
S'<built-in method __reduce__ of exceptions.NameError object>'
p25
sS'__str__'
p26
S"<method-wrapper '__str__' of exceptions.NameError object>"
p27
sS'__format__'
p28
S'<built-in method __format__ of exceptions.NameError object>'
p29
sS'__getattribute__'
p30
S"<method-wrapper '__getattribute__' of exceptions.NameError object>"
p31
sS'__class__'
p32
S"<type 'exceptions.NameError'>"
p33
sS'__unicode__'
p34
S'<built-in method __unicode__ of exceptions.NameError object>'
p35
sS'__delattr__'
p36
S"<method-wrapper '__delattr__' of exceptions.NameError object>"
p37
sS'__subclasshook__'
p38
S'<built-in method __subclasshook__ of type object>'
p39
sS'__repr__'
p40
S"<method-wrapper '__repr__' of exceptions.NameError object>"
p41
sS'args'
p42
S'("name \'data\' is not defined",)'
p43
sS'__dict__'
p44
S'{}'
p45
sS'__sizeof__'
p46
S'<built-in method __sizeof__ of exceptions.NameError object>'
p47
sS'__doc__'
p48
S"'Name not found globally.'"
p49
sS'__init__'
p50
S"<method-wrapper '__init__' of exceptions.NameError object>"
p51
sS'__new__'
p52
S'<built-in method __new__ of type object>'
p53
ssS'evalue'
p54
S"name 'data' is not defined"
p55
sS'request'
p56
cgluon.html
XML_unpickle
p57
(S'sC]\x00\x00<div><table><tr><td style="font-weight:bold;vertical-align:top;">ajax</td><td style="vertical-align:top;">:</td><td><div>False</div></td></tr><tr><td style="font-weight:bold;vertical-align:top;">application</td><td style="vertical-align:top;">:</td><td><div>cms</div></td></tr><tr><td style="font-weight:bold;vertical-align:top;">args</td><td style="vertical-align:top;">:</td><td><div><table><tr><td><div>trang-chu</div></td></tr></table></div></td></tr><tr><td style="font-weight:bold;vertical-align:top;">cid</td><td style="vertical-align:top;">:</td><td><div>None</div></td></tr><tr><td style="font-weight:bold;vertical-align:top;">client</td><td style="vertical-align:top;">:</td><td><div>192.168.1.93</div></td></tr><tr><td style="font-weight:bold;vertical-align:top;">controller</td><td style="vertical-align:top;">:</td><td><div>portal</div></td></tr><tr><td style="font-weight:bold;vertical-align:top;">cookies</td><td style="vertical-align:top;">:</td><td><div><table><tr><td style="font-weight:bold;vertical-align:top;">nobita-utm</td><td style="vertical-align:top;">:</td><td><div>e30=<table><tr><td style="font-weight:bold;vertical-align:top;">comment</td><td style="vertical-align:top;">:</td><td><div></div></td></tr><tr><td style="font-weight:bold;vertical-align:top;">domain</td><td style="vertical-align:top;">:</td><td><div></div></td></tr><tr><td style="font-weight:bold;vertical-align:top;">expires</td><td style="vertical-align:top;">:</td><td><div></div></td></tr><tr><td style="font-weight:bold;vertical-align:top;">httponly</td><td style="vertical-align:top;">:</td><td><div></div></td></tr><tr><td style="font-weight:bold;vertical-align:top;">max-age</td><td style="vertical-align:top;">:</td><td><div></div></td></tr><tr><td style="font-weight:bold;vertical-align:top;">path</td><td style="vertical-align:top;">:</td><td><div></div></td></tr><tr><td style="font-weight:bold;vertical-align:top;">secure</td><td style="vertical-align:top;">:</td><td><div></div></td></tr><tr><td style="font-weight:bold;vertical-align:top;">version</td><td style="vertical-align:top;">:</td><td><div></div></td></tr></table></div></td></tr><tr><td style="font-weight:bold;vertical-align:top;">session_id_admin</td><td style="vertical-align:top;">:</td><td><div>192.168.1.93-305f13fb-b1d3-4d86-8df9-f2a059cb2ce7<table><tr><td style="font-weight:bold;vertical-align:top;">comment</td><td style="vertical-align:top;">:</td><td><div></div></td></tr><tr><td style="font-weight:bold;vertical-align:top;">domain</td><td style="vertical-align:top;">:</td><td><div></div></td></tr><tr><td style="font-weight:bold;vertical-align:top;">expires</td><td style="vertical-align:top;">:</td><td><div></div></td></tr><tr><td style="font-weight:bold;vertical-align:top;">httponly</td><td style="vertical-align:top;">:</td><td><div></div></td></tr><tr><td style="font-weight:bold;vertical-align:top;">max-age</td><td style="vertical-align:top;">:</td><td><div></div></td></tr><tr><td style="font-weight:bold;vertical-align:top;">path</td><td style="vertical-align:top;">:</td><td><div></div></td></tr><tr><td style="font-weight:bold;vertical-align:top;">secure</td><td style="vertical-align:top;">:</td><td><div></div></td></tr><tr><td style="font-weight:bold;vertical-align:top;">version</td><td style="vertical-align:top;">:</td><td><div></div></td></tr></table></div></td></tr><tr><td style="font-weight:bold;vertical-align:top;">session_id_cms</td><td style="vertical-align:top;">:</td><td><div>8d/192.168.1.93-9eb54105-21e9-4bbb-b53f-e1de526d0e8d<table><tr><td style="font-weight:bold;vertical-align:top;">comment</td><td style="vertical-align:top;">:</td><td><div></div></td></tr><tr><td style="font-weight:bold;vertical-align:top;">domain</td><td style="vertical-align:top;">:</td><td><div></div></td></tr><tr><td style="font-weight:bold;vertical-align:top;">expires</td><td style="vertical-align:top;">:</td><td><div></div></td></tr><tr><td style="font-weight:bold;vertical-align:top;">httponly</td><td style="vertical-align:top;">:</td><td><div></div></td></tr><tr><td style="font-weight:bold;vertical-align:top;">max-age</td><td style="vertical-align:top;">:</td><td><div></div></td></tr><tr><td style="font-weight:bold;vertical-align:top;">path</td><td style="vertical-align:top;">:</td><td><div></div></td></tr><tr><td style="font-weight:bold;vertical-align:top;">secure</td><td style="vertical-align:top;">:</td><td><div></div></td></tr><tr><td style="font-weight:bold;vertical-align:top;">version</td><td style="vertical-align:top;">:</td><td><div></div></td></tr></table></div></td></tr></table></div></td></tr><tr><td style="font-weight:bold;vertical-align:top;">env</td><td style="vertical-align:top;">:</td><td><div><table><tr><td style="font-weight:bold;vertical-align:top;">HTTP_ACCEPT</td><td style="vertical-align:top;">:</td><td><div>text/html,application/xhtml+xml,application/xml;q=0.9,image/avif,image/webp,image/apng,*/*;q=0.8,application/signed-exchange;v=b3;q=0.7</div></td></tr><tr><td style="font-weight:bold;vertical-align:top;">HTTP_ACCEPT_ENCODING</td><td style="vertical-align:top;">:</td><td><div>gzip, deflate</div></td></tr><tr><td style="font-weight:bold;vertical-align:top;">HTTP_ACCEPT_LANGUAGE</td><td style="vertical-align:top;">:</td><td><div>en-US,en;q=0.9,vi-VN;q=0.8,vi;q=0.7,fr-FR;q=0.6,fr;q=0.5</div></td></tr><tr><td style="font-weight:bold;vertical-align:top;">HTTP_CACHE_CONTROL</td><td style="vertical-align:top;">:</td><td><div>max-age=0</div></td></tr><tr><td style="font-weight:bold;vertical-align:top;">HTTP_CONNECTION</td><td style="vertical-align:top;">:</td><td><div>keep-alive</div></td></tr><tr><td style="font-weight:bold;vertical-align:top;">HTTP_COOKIE</td><td style="vertical-align:top;">:</td><td><div>nobita-utm=e30=; session_id_admin=192.168.1.93-305f13fb-b1d3-4d86-8df9-f2a059cb2ce7; session_id_cms=&quot;8d/192.168.1.93-9eb54105-21e9-4bbb-b53f-e1de526d0e8d&quot;</div></td></tr><tr><td style="font-weight:bold;vertical-align:top;">HTTP_HOST</td><td style="vertical-align:top;">:</td><td><div>192.168.1.93:8000</div></td></tr><tr><td style="font-weight:bold;vertical-align:top;">HTTP_UPGRADE_INSECURE_REQUESTS</td><td style="vertical-align:top;">:</td><td><div>1</div></td></tr><tr><td style="font-weight:bold;vertical-align:top;">HTTP_USER_AGENT</td><td style="vertical-align:top;">:</td><td><div>Mozilla/5.0 (Windows NT 10.0; Win64; x64) AppleWebKit/537.36 (KHTML, like Gecko) Chrome/127.0.0.0 Safari/537.36</div></td></tr><tr><td style="font-weight:bold;vertical-align:top;">PATH_INFO</td><td style="vertical-align:top;">:</td><td><div>/trang-chu</div></td></tr><tr><td style="font-weight:bold;vertical-align:top;">QUERY_STRING</td><td style="vertical-align:top;">:</td><td><div></div></td></tr><tr><td style="font-weight:bold;vertical-align:top;">REMOTE_ADDR</td><td style="vertical-align:top;">:</td><td><div>192.168.1.93</div></td></tr><tr><td style="font-weight:bold;vertical-align:top;">REMOTE_PORT</td><td style="vertical-align:top;">:</td><td><div>54886</div></td></tr><tr><td style="font-weight:bold;vertical-align:top;">REQUEST_METHOD</td><td style="vertical-align:top;">:</td><td><div>GET</div></td></tr><tr><td style="font-weight:bold;vertical-align:top;">SCRIPT_NAME</td><td style="vertical-align:top;">:</td><td><div></div></td></tr><tr><td style="font-weight:bold;vertical-align:top;">SERVER_NAME</td><td style="vertical-align:top;">:</td><td><div>DESKTOP-GUAHLA8</div></td></tr><tr><td style="font-weight:bold;vertical-align:top;">SERVER_PORT</td><td style="vertical-align:top;">:</td><td><div>8000</div></td></tr><tr><td style="font-weight:bold;vertical-align:top;">SERVER_PROTOCOL</td><td style="vertical-align:top;">:</td><td><div>HTTP/1.1</div></td></tr><tr><td style="font-weight:bold;vertical-align:top;">SERVER_SOFTWARE</td><td style="vertical-align:top;">:</td><td><div>Rocket 1.2.6</div></td></tr><tr><td style="font-weight:bold;vertical-align:top;">app_folders</td><td style="vertical-align:top;">:</td><td><div>set([&#x27;C:\\\\Users\\\\F6\\\\Downloads\\\\bahadi\\\\9026-py2\\\\applications\\\\admin\\\\&#x27;, &#x27;C:\\\\Users\\\\F6\\\\Downloads\\\\bahadi\\\\9026-py2\\\\applications\\\\cms\\\\&#x27;])</div></td></tr><tr><td style="font-weight:bold;vertical-align:top;">applications_parent</td><td style="vertical-align:top;">:</td><td><div>C:\\Users\\F6\\Downloads\\bahadi\\9026-py2</div></td></tr><tr><td style="font-weight:bold;vertical-align:top;">cmd_args</td><td style="vertical-align:top;">:</td><td><div><table></table></div></td></tr><tr><td style="font-weight:bold;vertical-align:top;">cmd_options</td><td style="vertical-align:top;">:</td><td><div>&lt;Values at 0x3cfd468: {&#x27;verbose&#x27;: False, &#x27;ip&#x27;: &#x27;127.0.0.1&#x27;, &#x27;debuglevel&#x27;: 30, &#x27;with_scheduler&#x27;: False, &#x27;shutdown_timeout&#x27;: 5, &#x27;taskbar&#x27;: False, &#x27;with_coverage&#x27;: False, &#x27;pid_filename&#x27;: &#x27;httpserver.pid&#x27;, &#x27;maxthreads&#x27;: None, &#x27;softcron&#x27;: False, &#x27;server_name&#x27;: &#x27;DESKTOP-GUAHLA8&#x27;, &#x27;bpython&#x27;: False, &#x27;nogui&#x27;: False, &#x27;port&#x27;: 8000, &#x27;print_errors&#x27;: False, &#x27;extcron&#x27;: False, &#x27;runcron&#x27;: False, &#x27;run_system_tests&#x27;: False, &#x27;test&#x27;: None, &#x27;folder&#x27;: &#x27;C:\\\\Users\\\\F6\\\\Downloads\\\\bahadi\\\\9026-py2&#x27;, &#x27;config&#x27;: &#x27;&#x27;, &#x27;minthreads&#x27;: None, &#x27;shell&#x27;: None, &#x27;run&#x27;: &#x27;&#x27;, &#x27;log_filename&#x27;: &#x27;httpserver.log&#x27;, &#x27;profiler_dir&#x27;: None, &#x27;args&#x27;: [&#x27;&#x27;], &#x27;socket_timeout&#x27;: 5, &#x27;ssl_ca_certificate&#x27;: None, &#x27;scheduler&#x27;: None, &#x27;interfaces&#x27;: None, &#x27;ssl_private_key&#x27;: &#x27;&#x27;, &#x27;gae&#x27;: None, &#x27;password&#x27;: &#x27;******&#x27;, &#x27;request_queue_size&#x27;: 5, &#x27;ssl_certificate&#x27;: &#x27;&#x27;, &#x27;cronjob&#x27;: False, &#x27;numthreads&#x27;: None, &#x27;quiet&#x27;: False, &#x27;import_models&#x27;: False, &#x27;timeout&#x27;: 10, &#x27;plain&#x27;: False, &#x27;nobanner&#x27;: False}&gt;</div></td></tr><tr><td style="font-weight:bold;vertical-align:top;">db_sessions</td><td style="vertical-align:top;">:</td><td><div>set([])</div></td></tr><tr><td style="font-weight:bold;vertical-align:top;">debugging</td><td style="vertical-align:top;">:</td><td><div>False</div></td></tr><tr><td style="font-weight:bold;vertical-align:top;">gluon_parent</td><td style="vertical-align:top;">:</td><td><div>C:\\Users\\F6\\Downloads\\bahadi\\9026-py2</div></td></tr><tr><td style="font-weight:bold;vertical-align:top;">http_accept</td><td style="vertical-align:top;">:</td><td><div>text/html,application/xhtml+xml,application/xml;q=0.9,image/avif,image/webp,image/apng,*/*;q=0.8,application/signed-exchange;v=b3;q=0.7</div></td></tr><tr><td style="font-weight:bold;vertical-align:top;">http_accept_encoding</td><td style="vertical-align:top;">:</td><td><div>gzip, deflate</div></td></tr><tr><td style="font-weight:bold;vertical-align:top;">http_accept_language</td><td style="vertical-align:top;">:</td><td><div>en-US,en;q=0.9,vi-VN;q=0.8,vi;q=0.7,fr-FR;q=0.6,fr;q=0.5</div></td></tr><tr><td style="font-weight:bold;vertical-align:top;">http_cache_control</td><td style="vertical-align:top;">:</td><td><div>max-age=0</div></td></tr><tr><td style="font-weight:bold;vertical-align:top;">http_connection</td><td style="vertical-align:top;">:</td><td><div>keep-alive</div></td></tr><tr><td style="font-weight:bold;vertical-align:top;">http_cookie</td><td style="vertical-align:top;">:</td><td><div>nobita-utm=e30=; session_id_admin=192.168.1.93-305f13fb-b1d3-4d86-8df9-f2a059cb2ce7; session_id_cms=&quot;8d/192.168.1.93-9eb54105-21e9-4bbb-b53f-e1de526d0e8d&quot;</div></td></tr><tr><td style="font-weight:bold;vertical-align:top;">http_host</td><td style="vertical-align:top;">:</td><td><div>192.168.1.93:8000</div></td></tr><tr><td style="font-weight:bold;vertical-align:top;">http_upgrade_insecure_requests</td><td style="vertical-align:top;">:</td><td><div>1</div></td></tr><tr><td style="font-weight:bold;vertical-align:top;">http_user_agent</td><td style="vertical-align:top;">:</td><td><div>Mozilla/5.0 (Windows NT 10.0; Win64; x64) AppleWebKit/537.36 (KHTML, like Gecko) Chrome/127.0.0.0 Safari/537.36</div></td></tr><tr><td style="font-weight:bold;vertical-align:top;">is_jython</td><td style="vertical-align:top;">:</td><td><div>False</div></td></tr><tr><td style="font-weight:bold;vertical-align:top;">is_pypy</td><td style="vertical-align:top;">:</td><td><div>False</div></td></tr><tr><td style="font-weight:bold;vertical-align:top;">is_source</td><td style="vertical-align:top;">:</td><td><div>True</div></td></tr><tr><td style="font-weight:bold;vertical-align:top;">local_hosts</td><td style="vertical-align:top;">:</td><td><div><table><tr><td><div>192.168.1.93</div></td></tr><tr><td><div>fe80::87a4:edc7:3b27:db6f%15</div></td></tr><tr><td><div>fe80::7fed:a3c0:ee6e:c02e%2</div></td></tr><tr><td><div>::ffff:127.0.0.1</div></td></tr><tr><td><div>::1</div></td></tr><tr><td><div>DESKTOP-GUAHLA8</div></td></tr><tr><td><div>192.168.186.1</div></td></tr><tr><td><div>169.254.226.3</div></td></tr><tr><td><div>fe80::d487:29a4:871:bc6e%14</div></td></tr><tr><td><div>127.0.0.1</div></td></tr></table></div></td></tr><tr><td style="font-weight:bold;vertical-align:top;">path_info</td><td style="vertical-align:top;">:</td><td><div>/trang-chu</div></td></tr><tr><td style="font-weight:bold;vertical-align:top;">query_string</td><td style="vertical-align:top;">:</td><td><div></div></td></tr><tr><td style="font-weight:bold;vertical-align:top;">remote_addr</td><td style="vertical-align:top;">:</td><td><div>192.168.1.93</div></td></tr><tr><td style="font-weight:bold;vertical-align:top;">remote_port</td><td style="vertical-align:top;">:</td><td><div>54886</div></td></tr><tr><td style="font-weight:bold;vertical-align:top;">request_method</td><td style="vertical-align:top;">:</td><td><div>GET</div></td></tr><tr><td style="font-weight:bold;vertical-align:top;">request_uri</td><td style="vertical-align:top;">:</td><td><div>/cms/portal/folder/trang-chu</div></td></tr><tr><td style="font-weight:bold;vertical-align:top;">script_name</td><td style="vertical-align:top;">:</td><td><div></div></td></tr><tr><td style="font-weight:bold;vertical-align:top;">server_name</td><td style="vertical-align:top;">:</td><td><div>DESKTOP-GUAHLA8</div></td></tr><tr><td style="font-weight:bold;vertical-align:top;">server_port</td><td style="vertical-align:top;">:</td><td><div>8000</div></td></tr><tr><td style="font-weight:bold;vertical-align:top;">server_protocol</td><td style="vertical-align:top;">:</td><td><div>HTTP/1.1</div></td></tr><tr><td style="font-weight:bold;vertical-align:top;">server_software</td><td style="vertical-align:top;">:</td><td><div>Rocket 1.2.6</div></td></tr><tr><td style="font-weight:bold;vertical-align:top;">web2py_original_uri</td><td style="vertical-align:top;">:</td><td><div>/trang-chu</div></td></tr><tr><td style="font-weight:bold;vertical-align:top;">web2py_path</td><td style="vertical-align:top;">:</td><td><div>C:\\Users\\F6\\Downloads\\bahadi\\9026-py2</div></td></tr><tr><td style="font-weight:bold;vertical-align:top;">web2py_version</td><td style="vertical-align:top;">:</td><td><div>2.21.1-stable+timestamp.2020.11.28.04.10.44</div></td></tr><tr><td style="font-weight:bold;vertical-align:top;">wsgi.errors</td><td style="vertical-align:top;">:</td><td><div>&lt;open file &#x27;&lt;stderr&gt;&#x27;, mode &#x27;w&#x27; at 0x02D3D0D0&gt;</div></td></tr><tr><td style="font-weight:bold;vertical-align:top;">wsgi.file_wrapper</td><td style="vertical-align:top;">:</td><td><div>&lt;class wsgiref.util.FileWrapper at 0x03C91B20&gt;</div></td></tr><tr><td style="font-weight:bold;vertical-align:top;">wsgi.input</td><td style="vertical-align:top;">:</td><td><div>&lt;socket._fileobject object at 0x0ADCA570&gt;</div></td></tr><tr><td style="font-weight:bold;vertical-align:top;">wsgi.multiprocess</td><td style="vertical-align:top;">:</td><td><div>False</div></td></tr><tr><td style="font-weight:bold;vertical-align:top;">wsgi.multithread</td><td style="vertical-align:top;">:</td><td><div>True</div></td></tr><tr><td style="font-weight:bold;vertical-align:top;">wsgi.run_once</td><td style="vertical-align:top;">:</td><td><div>False</div></td></tr><tr><td style="font-weight:bold;vertical-align:top;">wsgi.url_scheme</td><td style="vertical-align:top;">:</td><td><div>http</div></td></tr><tr><td style="font-weight:bold;vertical-align:top;">wsgi.version</td><td style="vertical-align:top;">:</td><td><div><table><tr><td><div>1</div></td></tr><tr><td><div>0</div></td></tr></table></div></td></tr><tr><td style="font-weight:bold;vertical-align:top;">wsgi_errors</td><td style="vertical-align:top;">:</td><td><div>&lt;open file &#x27;&lt;stderr&gt;&#x27;, mode &#x27;w&#x27; at 0x02D3D0D0&gt;</div></td></tr><tr><td style="font-weight:bold;vertical-align:top;">wsgi_file_wrapper</td><td style="vertical-align:top;">:</td><td><div>&lt;class wsgiref.util.FileWrapper at 0x03C91B20&gt;</div></td></tr><tr><td style="font-weight:bold;vertical-align:top;">wsgi_input</td><td style="vertical-align:top;">:</td><td><div>&lt;socket._fileobject object at 0x0ADCA570&gt;</div></td></tr><tr><td style="font-weight:bold;vertical-align:top;">wsgi_multiprocess</td><td style="vertical-align:top;">:</td><td><div>False</div></td></tr><tr><td style="font-weight:bold;vertical-align:top;">wsgi_multithread</td><td style="vertical-align:top;">:</td><td><div>True</div></td></tr><tr><td style="font-weight:bold;vertical-align:top;">wsgi_run_once</td><td style="vertical-align:top;">:</td><td><div>False</div></td></tr><tr><td style="font-weight:bold;vertical-align:top;">wsgi_url_scheme</td><td style="vertical-align:top;">:</td><td><div>http</div></td></tr><tr><td style="font-weight:bold;vertical-align:top;">wsgi_version</td><td style="vertical-align:top;">:</td><td><div><table><tr><td><div>1</div></td></tr><tr><td><div>0</div></td></tr></table></div></td></tr></table></div></td></tr><tr><td style="font-weight:bold;vertical-align:top;">extension</td><td style="vertical-align:top;">:</td><td><div>html</div></td></tr><tr><td style="font-weight:bold;vertical-align:top;">folder</td><td style="vertical-align:top;">:</td><td><div>C:\\Users\\F6\\Downloads\\bahadi\\9026-py2\\applications\\cms\\</div></td></tr><tr><td style="font-weight:bold;vertical-align:top;">function</td><td style="vertical-align:top;">:</td><td><div>folder</div></td></tr><tr><td style="font-weight:bold;vertical-align:top;">global_settings</td><td style="vertical-align:top;">:</td><td><div><table><tr><td style="font-weight:bold;vertical-align:top;">app_folders</td><td style="vertical-align:top;">:</td><td><div>set([&#x27;C:\\\\Users\\\\F6\\\\Downloads\\\\bahadi\\\\9026-py2\\\\applications\\\\admin\\\\&#x27;, &#x27;C:\\\\Users\\\\F6\\\\Downloads\\\\bahadi\\\\9026-py2\\\\applications\\\\cms\\\\&#x27;])</div></td></tr><tr><td style="font-weight:bold;vertical-align:top;">applications_parent</td><td style="vertical-align:top;">:</td><td><div>C:\\Users\\F6\\Downloads\\bahadi\\9026-py2</div></td></tr><tr><td style="font-weight:bold;vertical-align:top;">cmd_args</td><td style="vertical-align:top;">:</td><td><div><table></table></div></td></tr><tr><td style="font-weight:bold;vertical-align:top;">cmd_options</td><td style="vertical-align:top;">:</td><td><div>&lt;Values at 0x3cfd468: {&#x27;verbose&#x27;: False, &#x27;ip&#x27;: &#x27;127.0.0.1&#x27;, &#x27;debuglevel&#x27;: 30, &#x27;with_scheduler&#x27;: False, &#x27;shutdown_timeout&#x27;: 5, &#x27;taskbar&#x27;: False, &#x27;with_coverage&#x27;: False, &#x27;pid_filename&#x27;: &#x27;httpserver.pid&#x27;, &#x27;maxthreads&#x27;: None, &#x27;softcron&#x27;: False, &#x27;server_name&#x27;: &#x27;DESKTOP-GUAHLA8&#x27;, &#x27;bpython&#x27;: False, &#x27;nogui&#x27;: False, &#x27;port&#x27;: 8000, &#x27;print_errors&#x27;: False, &#x27;extcron&#x27;: False, &#x27;runcron&#x27;: False, &#x27;run_system_tests&#x27;: False, &#x27;test&#x27;: None, &#x27;folder&#x27;: &#x27;C:\\\\Users\\\\F6\\\\Downloads\\\\bahadi\\\\9026-py2&#x27;, &#x27;config&#x27;: &#x27;&#x27;, &#x27;minthreads&#x27;: None, &#x27;shell&#x27;: None, &#x27;run&#x27;: &#x27;&#x27;, &#x27;log_filename&#x27;: &#x27;httpserver.log&#x27;, &#x27;profiler_dir&#x27;: None, &#x27;args&#x27;: [&#x27;&#x27;], &#x27;socket_timeout&#x27;: 5, &#x27;ssl_ca_certificate&#x27;: None, &#x27;scheduler&#x27;: None, &#x27;interfaces&#x27;: None, &#x27;ssl_private_key&#x27;: &#x27;&#x27;, &#x27;gae&#x27;: None, &#x27;password&#x27;: &#x27;******&#x27;, &#x27;request_queue_size&#x27;: 5, &#x27;ssl_certificate&#x27;: &#x27;&#x27;, &#x27;cronjob&#x27;: False, &#x27;numthreads&#x27;: None, &#x27;quiet&#x27;: False, &#x27;import_models&#x27;: False, &#x27;timeout&#x27;: 10, &#x27;plain&#x27;: False, &#x27;nobanner&#x27;: False}&gt;</div></td></tr><tr><td style="font-weight:bold;vertical-align:top;">db_sessions</td><td style="vertical-align:top;">:</td><td><div>set([])</div></td></tr><tr><td style="font-weight:bold;vertical-align:top;">debugging</td><td style="vertical-align:top;">:</td><td><div>False</div></td></tr><tr><td style="font-weight:bold;vertical-align:top;">gluon_parent</td><td style="vertical-align:top;">:</td><td><div>C:\\Users\\F6\\Downloads\\bahadi\\9026-py2</div></td></tr><tr><td style="font-weight:bold;vertical-align:top;">is_jython</td><td style="vertical-align:top;">:</td><td><div>False</div></td></tr><tr><td style="font-weight:bold;vertical-align:top;">is_pypy</td><td style="vertical-align:top;">:</td><td><div>False</div></td></tr><tr><td style="font-weight:bold;vertical-align:top;">is_source</td><td style="vertical-align:top;">:</td><td><div>True</div></td></tr><tr><td style="font-weight:bold;vertical-align:top;">local_hosts</td><td style="vertical-align:top;">:</td><td><div><table><tr><td><div>192.168.1.93</div></td></tr><tr><td><div>fe80::87a4:edc7:3b27:db6f%15</div></td></tr><tr><td><div>fe80::7fed:a3c0:ee6e:c02e%2</div></td></tr><tr><td><div>::ffff:127.0.0.1</div></td></tr><tr><td><div>::1</div></td></tr><tr><td><div>DESKTOP-GUAHLA8</div></td></tr><tr><td><div>192.168.186.1</div></td></tr><tr><td><div>169.254.226.3</div></td></tr><tr><td><div>fe80::d487:29a4:871:bc6e%14</div></td></tr><tr><td><div>127.0.0.1</div></td></tr></table></div></td></tr><tr><td style="font-weight:bold;vertical-align:top;">web2py_version</td><td style="vertical-align:top;">:</td><td><div>2.21.1-stable+timestamp.2020.11.28.04.10.44</div></td></tr></table></div></td></tr><tr><td style="font-weight:bold;vertical-align:top;">is_https</td><td style="vertical-align:top;">:</td><td><div>False</div></td></tr><tr><td style="font-weight:bold;vertical-align:top;">is_local</td><td style="vertical-align:top;">:</td><td><div>True</div></td></tr><tr><td style="font-weight:bold;vertical-align:top;">is_restful</td><td style="vertical-align:top;">:</td><td><div>False</div></td></tr><tr><td style="font-weight:bold;vertical-align:top;">is_scheduler</td><td style="vertical-align:top;">:</td><td><div>False</div></td></tr><tr><td style="font-weight:bold;vertical-align:top;">is_shell</td><td style="vertical-align:top;">:</td><td><div>False</div></td></tr><tr><td style="font-weight:bold;vertical-align:top;">now</td><td style="vertical-align:top;">:</td><td><div>datetime.datetime(2024, 8, 8, 16, 20, 7, 485000)</div></td></tr><tr><td style="font-weight:bold;vertical-align:top;">url</td><td style="vertical-align:top;">:</td><td><div>/trang-chu</div></td></tr><tr><td style="font-weight:bold;vertical-align:top;">utcnow</td><td style="vertical-align:top;">:</td><td><div>datetime.datetime(2024, 8, 8, 9, 20, 7, 485000)</div></td></tr><tr><td style="font-weight:bold;vertical-align:top;">wsgi</td><td style="vertical-align:top;">:</td><td><div>&lt;gluon.main.LazyWSGI object at 0x0B35E510&gt;</div></td></tr></table></div>'
tRp58
sS'frames'
p59
(lp60
(dp61
S'file'
p62
S'C:\\Users\\F6\\Downloads\\bahadi\\9026-py2\\gluon\\restricted.py'
p63
sS'dump'
p64
(dp65
S'environment'
p66
S"{'A': <class 'gluon.html.A'>, 'ANY_OF': <class 'gluon.validators.ANY_OF'>, 'ASSIGNJS': <function ASSIGNJS>, 'AppConfig': <function AppConfig>, 'Auth': <class 'gluon.tools.Auth'>, 'B': <class 'gluon.html.B'>, 'BEAUTIFY': <class 'gluon.html.BEAUTIFY'>, 'BODY': <class 'gluon.html.BODY'>, 'BR': <class 'gluon.html.BR'>, 'BUTTON': <class 'gluon.html.BUTTON'>, ...}"
p67
sS'ccode'
p68
S'<code object <module> at 0AE6FCC8, file "C:\\User...ws\\site/ghephang/default/trang_chu.html", line 1>'
p69
ssS'lnum'
p70
I227
sS'lines'
p71
(dp72
I224
S'            ccode = code'
p73
sI225
S'        else:'
p74
sI226
S'            ccode = compile2(code, layer)'
p75
sI227
S'        exec ccode in environment'
p76
sI228
S'    except HTTP:'
p77
sI229
S'        raise'
p78
sI230
S'    except RestrictedError:'
p79
sI231
S'        # do not encapsulate (obfuscate) the original RestrictedError'
p80
sI222
S'    try:'
p81
sI223
S'        if isinstance(code, types.CodeType):'
p82
ssS'call'
p83
S'(code=\'response.write(\\\'<!doctype html>\\\\r\\\\n<html lang="e...write(\\\'\\\\r\\\\n</body>\\\\r\\\\n\\\\r\\\\n</html>\\\', escape=False)\', environment={\'A\': <class \'gluon.html.A\'>, \'ANY_OF\': <class \'gluon.validators.ANY_OF\'>, \'ASSIGNJS\': <function ASSIGNJS>, \'AppConfig\': <function AppConfig>, \'Auth\': <class \'gluon.tools.Auth\'>, \'B\': <class \'gluon.html.B\'>, \'BEAUTIFY\': <class \'gluon.html.BEAUTIFY\'>, \'BODY\': <class \'gluon.html.BODY\'>, \'BR\': <class \'gluon.html.BR\'>, \'BUTTON\': <class \'gluon.html.BUTTON\'>, ...}, layer=r\'C:\\Users\\F6\\Downloads\\bahadi\\9026-py2\\applications\\cms\\views\\site/ghephang/default/trang_chu.html\')'
p84
sS'func'
p85
S'restricted'
p86
sa(dp87
g62
S'C:\\Users\\F6\\Downloads\\bahadi\\9026-py2\\applications\\cms\\views\\site\\ghephang\\default\\trang_chu.html'
p88
sg64
(dp89
S'src'
p90
S'undefined'
p91
sS'img'
p92
g91
ssg70
I87
sg71
(dp93
I96
S'{'
sI97
S"'title': 'Gi\xe1\xba\xa3m chi ph\xc3\xad ho\xe1\xba\xa1t \xc4\x91\xe1\xbb\x99ng',"
p94
sI78
S'response.write(\'/logo.png" alt="Logo">\\r\\n                        </a>\\r\\n                    </h2>\\r\\n                </div>\\r\\n                <div class="modal-body">\\r\\n                    <div class="sidebar-modal-widget">\\r\\n                        <h3 class="title">Th\\xc3\\xb4ng tin v\\xe1\\xbb\\x81 ch\\xc3\\xbang t\\xc3\\xb4i</h3>\\r\\n                        <p><b>Ghephang.com</b> v\\xe1\\xbb\\x9bi mong mu\\xe1\\xbb\\x91n \\xc4\\x91\\xc6\\xa1n gi\\xe1\\xba\\xa3n h\\xc3\\xb3a vi\\xe1\\xbb\\x87c giao h\\xc3\\xa0ng, gi\\xc3\\xbap c\\xc3\\xa1c ch\\xe1\\xbb\\xa7 c\\xe1\\xbb\\xada h\\xc3\\xa0ng, c\\xc3\\xa1c nh\\xc3\\xa0 h\\xc3\\xa0ng \\xc4\\x91\\xe1\\xba\\xbfn c\\xc3\\xa1c c\\xc3\\xb4ng ty t\\xe1\\xba\\xa1i Vi\\xe1\\xbb\\x87t Nam\\r\\n                        c\\xc3\\xb3 th\\xe1\\xbb\\x83 t\\xe1\\xba\\xadn h\\xc6\\xb0\\xe1\\xbb\\x9fng m\\xe1\\xbb\\x99t d\\xe1\\xbb\\x8bch v\\xe1\\xbb\\xa5 cao c\\xe1\\xba\\xa5p ti\\xe1\\xbb\\x87n l\\xe1\\xbb\\xa3i nh\\xc6\\xb0ng v\\xe1\\xbb\\x9bi gi\\xe1\\xba\\xa3 c\\xe1\\xba\\xa3 h\\xe1\\xbb\\xa3p l\\xc3\\xbd.</p>\\r\\n                    </div>\\r\\n                    <div class="sidebar-modal-widget">\\r\\n                        <h3 class="title">Li\\xc3\\xaan k\\xe1\\xba\\xbft b\\xe1\\xbb\\x95 sung</h3>\\r\\n                        <ul>\\r\\n                            <li>\\r\\n                                <a href="#">\\xc4\\x90\\xc4\\x83ng nh\\xe1\\xba\\xadp</a>\\r\\n                            </li>\\r\\n                            <li>\\r\\n                                <a href="#">\\xc4\\x90\\xc4\\x83ng k\\xc3\\xbd ngay</a>\\r\\n                            </li>\\r\\n                            <li>\\r\\n                                <a href="/faq">FAQ</a>\\r\\n                            </li>\\r\\n                            <li>\\r\\n                                <a href="#">\\xc4\\x90\\xc4\\x83ng xu\\xe1\\xba\\xa5t</a>\\r\\n                            </li>\\r\\n                        </ul>\\r\\n                    </div>\\r\\n                    <div class="sidebar-modal-widget">\\r\\n                        <h3 class="title">Contact Info</h3>\\r\\n                        <ul class="contact-info">\\r\\n                            <li>\\r\\n                                <i class="bx bx-location-plus"></i>\\r\\n                                \\xc4\\x90\\xe1\\xbb\\x8ba ch\\xe1\\xbb\\x89\\r\\n                                <span>New York - 1060, Str. First 78 Great Western Road</span>\\r\\n                            </li>\\r\\n                            <li>\\r\\n                                <i class="bx bx-envelope"></i>\\r\\n                                Email\\r\\n                                <a\\r\\n                                    href="mailto:info@ghephang.com"><span\\r\\n                                        class="__cf_email__">[info@ghephang.com]</span></a>\\r\\n                                <a\\r\\n                                    href="mailto:info@ghephang.com"><span\\r\\n                                        class="__cf_email__" >[info@ghephang.com]</span></a>\\r\\n                            </li>\\r\\n                            <li>\\r\\n                                <i class="bx bxs-phone-call"></i>\\r\\n                                Phone\\r\\n                                <a href="tel:0356 656 777">0356 656 777</a>\\r\\n                                <a href="tel:0356 656 777">0356 656 777</a>\\r\\n                            </li>\\r\\n                        </ul>\\r\\n                    </div>\\r\\n                    <div class="sidebar-modal-widget">\\r\\n                        <h3 class="title">K\\xe1\\xba\\xbft n\\xe1\\xbb\\x91i v\\xe1\\xbb\\x9bi ch\\xc3\\xbang t\\xc3\\xb4i</h3>\\r\\n                        <ul class="social-list">\\r\\n                            \', escape=False)'
p95
sI79
S'response.write(\'<li>\\r\\n    <a href="#">\\r\\n        <i class=\\\'bx bxl-twitter\\\'></i>\\r\\n    </a>\\r\\n</li>\\r\\n<li>\\r\\n    <a href="#">\\r\\n        <i class=\\\'bx bxl-facebook\\\'></i>\\r\\n    </a>\\r\\n</li>\\r\\n<li>\\r\\n    <a href="#">\\r\\n        <i class=\\\'bx bxl-instagram\\\'></i>\\r\\n    </a>\\r\\n</li>\\r\\n<li>\\r\\n    <a href="#">\\r\\n        <i class=\\\'bx bxl-linkedin\\\'></i>\\r\\n    </a>\\r\\n</li>\\r\\n\', escape=False)'
p96
sI80
S"response.write('\\r\\n                        </ul>\\r\\n                    </div>\\r\\n                </div>\\r\\n            </div>\\r\\n        </div>\\r\\n    </div>\\r\\n</div>\\r\\n<!-- End Sidebar Modal -->', escape=False)"
p97
sI81
S"response.write('\\r\\n\\r\\n    <!-- Start Search Box Modal -->\\r\\n    ', escape=False)"
p98
sI82
S'response.write(\'<!-- Start Search Box Modal -->\\r\\n<div class="search-wrap hiden-load"  style="display: none;">\\r\\n    <div class="search">\\r\\n        <button type="button" class="close">\\xc3\\x97</button>\\r\\n        <form>\\r\\n            <input type="search" value="" class="form-control" placeholder="Type Here..." />\\r\\n            <button type="submit" class="default-btn">\\r\\n                Search\\r\\n            </button>\\r\\n        </form>\\r\\n    </div>\\r\\n</div>\\r\\n<!-- End Search Box Modal -->\\r\\n\\r\\n\\r\\n\', escape=False)'
p99
sI83
S"response.write('\\r\\n    <!-- End Search Box Modal -->\\r\\n\\r\\n    <div>\\r\\n        ', escape=False)"
p100
sI84
S'response.write(\'\\r\\n<head>\\r\\n\\r\\n</head>\\r\\n<!-- Start Prevoz Slider Area -->\\r\\n<section class="prevoz-slider-area prevoz-slider-area-six">\\r\\n    <div class="prevoz-slider-style owl-carousel owl-theme">\\r\\n        <div class="prevoz-slider-item slider-item-bg-16">\\r\\n            <div class="d-table">\\r\\n                <div class="d-table-cell">\\r\\n                    <div class="container">\\r\\n                        <div class="prevoz-slider-text one">\\r\\n                            <h1 style="padding-top:20px">Gh\\xc3\\xa9p h\\xc3\\xa0ng si\\xc3\\xaau t\\xe1\\xbb\\x91c</h1>\\r\\n                            <p>\\xe1\\xbb\\xa8ng d\\xe1\\xbb\\xa5ng Gh\\xc3\\xa9p h\\xc3\\xa0ng si\\xc3\\xaau t\\xe1\\xbb\\x91c.</p>\\r\\n\\r\\n                            <div class="app-form">\\r\\n                            <div class="app-form-1">\\r\\n                                <a class="text-1" >D\\xc3\\xa0nh cho kh\\xc3\\xa1ch h\\xc3\\xa0ng </a>\\r\\n                                <div class="images-logo" >\\r\\n                                <img  src="https://play-lh.googleusercontent.com/Kq8wCaVdA3nxpmSHJ9FuYZh8BKHoY_3UEIhF_rb6I-COzeeAaq1UGMV7pey0MCYK-LZ1=w240-h480-rw" >\\r\\n                                <img src="\', escape=False)'
p101
sI85
S"response.write(URL('static','%s/img')%(static_default))"
p102
sI86
S"response.write('/', escape=False)"
p103
sI87
S"response.write(data['img'])"
p104
sI88
S'response.write(\'">\\r\\n                                </div>\\r\\n                                <div class="icon-button" >\\r\\n                                    <div class="icon-button-app">\\r\\n                                    <img  src="https://www.lalamove.com/hubfs/icon-apple-app-store-3.png">\\r\\n                                    </div>\\r\\n                                    <div class="icon-button-app">\\r\\n                                    <img  src="https://www.lalamove.com/hubfs/icon-google-play-3.webp">\\r\\n                                    </div>\\r\\n                                </div>\\r\\n                            </div>\\r\\n                            <div class="app-form-1">\\r\\n                                <a class="text-1">D\\xc3\\xa0nh cho t\\xc3\\xa0i x\\xe1\\xba\\xbf </a>\\r\\n                                <div class="images-logo">\\r\\n                                <img src="https://play-lh.googleusercontent.com/aV4fFPxstjawLSez3UpWr7-vcd2ZmL8uXGJ7EEfkM62OYFa3ZRp7yhzASoKquq4wIs4" >\\r\\n                                </div>\\r\\n                                <div class="icon-button">\\r\\n                                    <div class="icon-button-app">\\r\\n                                    <img  src="https://www.lalamove.com/hubfs/icon-apple-app-store-3.png">\\r\\n                                    </div>\\r\\n                                    <div class="icon-button-app" >\\r\\n                                    <img src="https://www.lalamove.com/hubfs/icon-google-play-3.webp">\\r\\n                                    </div>\\r\\n                                </div>\\r\\n                            </div>\\r\\n                        </div>\\r\\n\\r\\n                            </div>\\r\\n\\r\\n                    </div>\\r\\n                </div>\\r\\n            </div>\\r\\n        </div>\\r\\n\\r\\n        <div class="prevoz-slider-item slider-item-bg-17">\\r\\n            <div class="d-table">\\r\\n                <div class="d-table-cell">\\r\\n                    <div class="container">\\r\\n                        <div class="prevoz-slider-text two">\\r\\n                            <h1>Gh\\xc3\\xa9p h\\xc3\\xa0ng m\\xe1\\xbb\\x8di n\\xc6\\xa1i</h1>\\r\\n                            <p>D\\xc3\\xb9 h\\xc3\\xa0ng nh\\xe1\\xbb\\x8f hay h\\xc3\\xa0ng to c\\xc3\\xb4ng k\\xe1\\xbb\\x81nh.</p>\\r\\n                            <div class="app-form">\\r\\n                            <div class="app-form-1">\\r\\n                                <a class="text-1" >D\\xc3\\xa0nh cho kh\\xc3\\xa1ch h\\xc3\\xa0ng </a>\\r\\n                                <div class="images-logo" >\\r\\n                                <img  src="https://play-lh.googleusercontent.com/Kq8wCaVdA3nxpmSHJ9FuYZh8BKHoY_3UEIhF_rb6I-COzeeAaq1UGMV7pey0MCYK-LZ1=w240-h480-rw" >\\r\\n                                </div>\\r\\n                                <div class="icon-button" >\\r\\n                                    <div class="icon-button-app">\\r\\n                                    <img  src="https://www.lalamove.com/hubfs/icon-apple-app-store-3.png">\\r\\n                                    </div>\\r\\n                                    <div class="icon-button-app">\\r\\n                                    <img  src="https://www.lalamove.com/hubfs/icon-google-play-3.webp">\\r\\n                                    </div>\\r\\n                                </div>\\r\\n                            </div>\\r\\n                            <div class="app-form-1">\\r\\n                                <a class="text-1">D\\xc3\\xa0nh cho t\\xc3\\xa0i x\\xe1\\xba\\xbf </a>\\r\\n                                <div class="images-logo">\\r\\n                                <img src="https://play-lh.googleusercontent.com/aV4fFPxstjawLSez3UpWr7-vcd2ZmL8uXGJ7EEfkM62OYFa3ZRp7yhzASoKquq4wIs4" >\\r\\n                                </div>\\r\\n                                <div class="icon-button">\\r\\n                                    <div class="icon-button-app">\\r\\n                                    <img  src="https://www.lalamove.com/hubfs/icon-apple-app-store-3.png">\\r\\n                                    </div>\\r\\n                                    <div class="icon-button-app" >\\r\\n                                    <img src="https://www.lalamove.com/hubfs/icon-google-play-3.webp">\\r\\n                                    </div>\\r\\n                                </div>\\r\\n                            </div>\\r\\n                        </div>\\r\\n                        </div>\\r\\n                    </div>\\r\\n                </div>\\r\\n            </div>\\r\\n        </div>\\r\\n\\r\\n    </div>\\r\\n</section>\\r\\n\\r\\n\\r\\n\\r\\n\', escape=False)'
p105
sI89
S'data = {'
p106
sI90
S"'dis': 'V\xe1\xbb\x81 ch\xc3\xbang t\xc3\xb4i',"
p107
sI91
S"'title': 'C\xc3\xa1c gi\xe1\xba\xa3i ph\xc3\xa1p h\xe1\xba\xadu c\xe1\xba\xa7n v\xc3\xa0 v\xe1\xba\xadn chuy\xe1\xbb\x83n \xc4\x91\xc3\xa1ng tin c\xe1\xba\xady v\xc3\xa0 nhanh ch\xc3\xb3ng Kh\xc3\xb4ng l\xc3\xa3ng ph\xc3\xad th\xe1\xbb\x9di gian c\xe1\xbb\xa7a b\xe1\xba\xa1n!',"
p108
sI92
S"'content': P(' \xe1\xbb\xa8ng d\xe1\xbb\xa5ng giao h\xc3\xa0ng theo y\xc3\xaau c\xe1\xba\xa7u nhanh ch\xc3\xb3ng v\xc3\xa0 \xc4\x91\xc3\xa1ng tin c\xe1\xba\xady, giao ngay si\xc3\xaau t\xe1\xbb\x91c ho\xe1\xba\xb7c ch\xe1\xbb\xa7 \xc4\x91\xe1\xbb\x99ng \xc4\x91\xe1\xba\xb7t l\xe1\xbb\x8bch h\xe1\xba\xb9n gi\xe1\xbb\x9d giao h\xc3\xa0ng, h\xe1\xbb\x97 tr\xe1\xbb\xa3 \xc4\x91\xe1\xba\xafc l\xe1\xbb\xb1c cho c\xc3\xb4ng vi\xe1\xbb\x87c kinh doanh c\xe1\xbb\xa7a b\xe1\xba\xa1n \xe1\xbb\x9f m\xe1\xbb\x8di quy m\xc3\xb4.'),"
p109
sI93
S"'img': 'about-img-six.png',"
p110
sI94
S"'video': 'https://www.youtube.com/watch?v=kWltTADSvdk&t=20s',"
p111
sI95
S"'benefit': ["
p112
ssg83
S'()'
p113
sg85
S'<module>'
p114
sasS'pyver'
p115
S'Python 2.7.18: C:\\Python27\\python.exe (prefix: C:\\Python27)'
p116
sS'session'
p117
g57
(S's\x1a\x00\x00\x00<div><table></table></div>'
tRp118
sS'etype'
p119
S"<type 'exceptions.NameError'>"
p120
sS'date'
p121
S'Thu Aug  8 16:20:07 2024'
p122
sS'response'
p123
g57
(S's`\x17\x00\x00<div><table><tr><td style="font-weight:bold;vertical-align:top;">body</td><td style="vertical-align:top;">:</td><td><div>&lt;cStringIO.StringO object at 0x0B3D7540&gt;</div></td></tr><tr><td style="font-weight:bold;vertical-align:top;">cookies</td><td style="vertical-align:top;">:</td><td><div><table><tr><td style="font-weight:bold;vertical-align:top;">session_id_cms</td><td style="vertical-align:top;">:</td><td><div>192.168.1.93-ab4296f1-ab27-4636-8a29-205ba3f93d56<table><tr><td style="font-weight:bold;vertical-align:top;">comment</td><td style="vertical-align:top;">:</td><td><div></div></td></tr><tr><td style="font-weight:bold;vertical-align:top;">domain</td><td style="vertical-align:top;">:</td><td><div></div></td></tr><tr><td style="font-weight:bold;vertical-align:top;">expires</td><td style="vertical-align:top;">:</td><td><div></div></td></tr><tr><td style="font-weight:bold;vertical-align:top;">httponly</td><td style="vertical-align:top;">:</td><td><div></div></td></tr><tr><td style="font-weight:bold;vertical-align:top;">max-age</td><td style="vertical-align:top;">:</td><td><div></div></td></tr><tr><td style="font-weight:bold;vertical-align:top;">path</td><td style="vertical-align:top;">:</td><td><div>/</div></td></tr><tr><td style="font-weight:bold;vertical-align:top;">secure</td><td style="vertical-align:top;">:</td><td><div></div></td></tr><tr><td style="font-weight:bold;vertical-align:top;">version</td><td style="vertical-align:top;">:</td><td><div></div></td></tr></table></div></td></tr></table></div></td></tr><tr><td style="font-weight:bold;vertical-align:top;">delimiters</td><td style="vertical-align:top;">:</td><td><div><table><tr><td><div>{{</div></td></tr><tr><td><div>}}</div></td></tr></table></div></td></tr><tr><td style="font-weight:bold;vertical-align:top;">files</td><td style="vertical-align:top;">:</td><td><div><table><tr><td><div>/cms/static/js/jquery.js</div></td></tr><tr><td><div>/cms/static/css/calendar.css</div></td></tr><tr><td><div>/cms/static/js/calendar.js</div></td></tr><tr><td><div>/cms/static/js/jquery.browser.min.js</div></td></tr><tr><td><div>/cms/static/js/web2py.js</div></td></tr></table></div></td></tr><tr><td style="font-weight:bold;vertical-align:top;">flash</td><td style="vertical-align:top;">:</td><td><div></div></td></tr><tr><td style="font-weight:bold;vertical-align:top;">form_label_separator</td><td style="vertical-align:top;">:</td><td><div></div></td></tr><tr><td style="font-weight:bold;vertical-align:top;">formstyle</td><td style="vertical-align:top;">:</td><td><div>bootstrap3_inline</div></td></tr><tr><td style="font-weight:bold;vertical-align:top;">generic_patterns</td><td style="vertical-align:top;">:</td><td><div><table><tr><td><div>*</div></td></tr></table></div></td></tr><tr><td style="font-weight:bold;vertical-align:top;">headers</td><td style="vertical-align:top;">:</td><td><div><table><tr><td style="font-weight:bold;vertical-align:top;">X-Powered-By</td><td style="vertical-align:top;">:</td><td><div>web2py</div></td></tr></table></div></td></tr><tr><td style="font-weight:bold;vertical-align:top;">menu</td><td style="vertical-align:top;">:</td><td><div><table></table></div></td></tr><tr><td style="font-weight:bold;vertical-align:top;">meta</td><td style="vertical-align:top;">:</td><td><div><table></table></div></td></tr><tr><td style="font-weight:bold;vertical-align:top;">models_to_run</td><td style="vertical-align:top;">:</td><td><div><table><tr><td><div>^\\w+\\.py$</div></td></tr><tr><td><div>^portal/\\w+\\.py$</div></td></tr><tr><td><div>^portal/folder/\\w+\\.py$</div></td></tr></table></div></td></tr><tr><td style="font-weight:bold;vertical-align:top;">postprocessing</td><td style="vertical-align:top;">:</td><td><div><table></table></div></td></tr><tr><td style="font-weight:bold;vertical-align:top;">session_client</td><td style="vertical-align:top;">:</td><td><div>192.168.1.93</div></td></tr><tr><td style="font-weight:bold;vertical-align:top;">session_cookie_compression_level</td><td style="vertical-align:top;">:</td><td><div>None</div></td></tr><tr><td style="font-weight:bold;vertical-align:top;">session_cookie_expires</td><td style="vertical-align:top;">:</td><td><div>None</div></td></tr><tr><td style="font-weight:bold;vertical-align:top;">session_data_name</td><td style="vertical-align:top;">:</td><td><div>session_data_cms</div></td></tr><tr><td style="font-weight:bold;vertical-align:top;">session_file</td><td style="vertical-align:top;">:</td><td><div>None</div></td></tr><tr><td style="font-weight:bold;vertical-align:top;">session_filename</td><td style="vertical-align:top;">:</td><td><div>C:\\Users\\F6\\Downloads\\bahadi\\9026-py2\\applications\\cms\\sessions\\192.168.1.93-ab4296f1-ab27-4636-8a29-205ba3f93d56</div></td></tr><tr><td style="font-weight:bold;vertical-align:top;">session_hash</td><td style="vertical-align:top;">:</td><td><div>c0762cbf4baf7f9af97c051e7fcb8083</div></td></tr><tr><td style="font-weight:bold;vertical-align:top;">session_id</td><td style="vertical-align:top;">:</td><td><div>192.168.1.93-ab4296f1-ab27-4636-8a29-205ba3f93d56</div></td></tr><tr><td style="font-weight:bold;vertical-align:top;">session_id_name</td><td style="vertical-align:top;">:</td><td><div>session_id_cms</div></td></tr><tr><td style="font-weight:bold;vertical-align:top;">session_masterapp</td><td style="vertical-align:top;">:</td><td><div>cms</div></td></tr><tr><td style="font-weight:bold;vertical-align:top;">session_new</td><td style="vertical-align:top;">:</td><td><div>True</div></td></tr><tr><td style="font-weight:bold;vertical-align:top;">session_storage_type</td><td style="vertical-align:top;">:</td><td><div>file</div></td></tr><tr><td style="font-weight:bold;vertical-align:top;">status</td><td style="vertical-align:top;">:</td><td><div>200</div></td></tr><tr><td style="font-weight:bold;vertical-align:top;">view</td><td style="vertical-align:top;">:</td><td><div>site/ghephang/default/trang_chu.html</div></td></tr></table></div>'
tRp124
sS'locals'
p125
(dp126
S'Service'
p127
S"<class 'gluon.tools.Service'>"
p128
sS'OBJECT'
p129
S"<class 'gluon.html.OBJECT'>"
p130
sS'SQLDB'
p131
S"<class 'pydal.base.DAL'>"
p132
sg117
S"<Storage {'_forget': True}>"
p133
sS'LINK'
p134
S"<class 'gluon.html.LINK'>"
p135
sS'BR'
p136
S"<class 'gluon.html.BR'>"
p137
sS'local_import'
p138
S'<function <lambda>>'
p139
sS'OPTGROUP'
p140
S"<class 'gluon.html.OPTGROUP'>"
p141
sS'__package__'
p142
S'None'
p143
sS'PRE'
p144
S"<class 'gluon.html.PRE'>"
p145
sS'IS_INT_IN_RANGE'
p146
S"<class 'gluon.validators.IS_INT_IN_RANGE'>"
p147
sS'IS_LOWER'
p148
S"<class 'gluon.validators.IS_LOWER'>"
p149
sS'IS_STRONG'
p150
S"<class 'gluon.validators.IS_STRONG'>"
p151
sS'PortalConfig'
p152
S"{'forms': {'formstyle': 'bootstrap3_inline', 'se...ize': '1'}, 'auth': {'ldap': '', 'provider': ''}}"
p153
sS'cache'
p154
S'<gluon.cache.Cache object>'
p155
sS'IS_IN_DB'
p156
S"<class 'gluon.validators.IS_IN_DB'>"
p157
sS'cas_provider'
p158
S'None'
p159
sS'TAG'
p160
S'<gluon.html.__TAG__ object>'
p161
sS'SQLField'
p162
S"<class 'pydal.objects.Field'>"
p163
sS'BODY'
p164
S"<class 'gluon.html.BODY'>"
p165
sS'IS_DATE_IN_RANGE'
p166
S"<class 'gluon.validators.IS_DATE_IN_RANGE'>"
p167
sS'IFRAME'
p168
S"<class 'gluon.html.IFRAME'>"
p169
sS'URL'
p170
S'<function URL>'
p171
sS'__file__'
p172
S"r'C:\\Users\\F6\\Downloads\\bahadi\\9026-py2\\applications\\cms\\views\\site/ghephang/default/trang_chu.html'"
p173
sS'db'
p174
S'<DAL uri="sqlite://cms.db3">'
p175
sS'class_top'
p176
S"'six fixed-top'"
p177
sS'auth'
p178
S'<applications.cms.modules.plugin_auth.ProcessAuth object>'
p179
sS'P'
S"<class 'gluon.html.P'>"
p180
sS'TFOOT'
p181
S"<class 'gluon.html.TFOOT'>"
p182
sS'XHTML'
p183
S"<class 'gluon.html.XHTML'>"
p184
sS'ON'
p185
S'True'
p186
sS'OL'
p187
S"<class 'gluon.html.OL'>"
p188
sS'TEXTAREA'
p189
S"<class 'gluon.html.TEXTAREA'>"
p190
sS'MENU'
p191
S"<class 'gluon.html.MENU'>"
p192
sS'IS_IMAGE'
p193
S"<class 'gluon.validators.IS_IMAGE'>"
p194
sS'cms'
p195
S'<applications.cms.modules.plugin_cms.Cms instance>'
p196
sS'EM'
p197
S"<class 'gluon.html.EM'>"
p198
sS'CODE'
p199
S"<class 'gluon.html.CODE'>"
p200
sS'HTTP'
p201
S"<class 'gluon.http.HTTP'>"
p202
sS'HR'
p203
S"<class 'gluon.html.HR'>"
p204
sS'IS_DATETIME'
p205
S"<class 'gluon.validators.IS_DATETIME'>"
p206
sS'STYLE'
p207
S"<class 'gluon.html.STYLE'>"
p208
sS'LABEL'
p209
S"<class 'gluon.html.LABEL'>"
p210
sS'CLEANUP'
p211
S"<class 'gluon.validators.CLEANUP'>"
p212
sS'SELECT'
p213
S"<class 'gluon.html.SELECT'>"
p214
sS'Portlet'
p215
S'<class applications.cms.modules.plugin_portlet.Portlet>'
p216
sS'CENTER'
p217
S"<class 'gluon.html.CENTER'>"
p218
sS'Auth'
p219
S"<class 'gluon.tools.Auth'>"
p220
sS'current'
p221
S'<thread._local object>'
p222
sS'IS_EQUAL_TO'
p223
S"<class 'gluon.validators.IS_EQUAL_TO'>"
p224
sS'HTML'
p225
S"<class 'gluon.html.HTML'>"
p226
sS'template'
p227
S"'default'"
p228
sS'SQLFORM'
p229
S"<class 'gluon.sqlhtml.SQLFORM'>"
p230
sS'LOAD'
p231
S'<function LOAD>'
p232
sS'redirect'
p233
S'<function redirect>'
p234
sS'FIELDSET'
p235
S"<class 'gluon.html.FIELDSET'>"
p236
sS'is_page'
p237
S"'index'"
p238
sS'__builtins__'
p239
S"{'ArithmeticError': <type 'exceptions.ArithmeticError'>, 'AssertionError': <type 'exceptions.AssertionError'>, 'AttributeError': <type 'exceptions.AttributeError'>, 'BaseException': <type 'exceptions.BaseException'>, 'BufferError': <type 'exceptions.BufferError'>, 'BytesWarning': <type 'exceptions.BytesWarning'>, 'DeprecationWarning': <type 'exceptions.DeprecationWarning'>, 'EOFError': <type 'exceptions.EOFError'>, 'Ellipsis': Ellipsis, 'EnvironmentError': <type 'exceptions.EnvironmentError'>, ...}"
p240
sS'static_default'
p241
S"'site/ghephang/template/default'"
p242
sS'embed64'
p243
S'<function embed64>'
p244
sS'IS_LIST_OF'
p245
S"<class 'gluon.validators.IS_LIST_OF'>"
p246
sS'INPUT'
p247
S"<class 'gluon.html.INPUT'>"
p248
sS'EMBED'
p249
S"<class 'gluon.html.EMBED'>"
p250
sS'Configsite'
p251
S'<class applications.cms.modules.plugin_config.Configsite>'
p252
sS'H2'
p253
S"<class 'gluon.html.H2'>"
p254
sS'H3'
p255
S"<class 'gluon.html.H3'>"
p256
sS'AppConfig'
p257
S'<function AppConfig>'
p258
sS'link_naso'
p259
S"'https://banhang.bahadi.vn/app'"
p260
sS'H6'
p261
S"<class 'gluon.html.H6'>"
p262
sS'H4'
p263
S"<class 'gluon.html.H4'>"
p264
sS'H5'
p265
S"<class 'gluon.html.H5'>"
p266
sS'UL'
p267
S"<class 'gluon.html.UL'>"
p268
sS'IS_UPPER'
p269
S"<class 'gluon.validators.IS_UPPER'>"
p270
sS'xmlescape'
p271
S'<function xmlescape>'
p272
sS'domain_naso'
p273
S"'https://banhang.bahadi.vn/app'"
p274
sS'IS_TIME'
p275
S"<class 'gluon.validators.IS_TIME'>"
p276
sS'os'
p277
S"<module 'os' from 'C:\\Python27\\lib\\os.pyc'>"
p278
sS'OPTION'
p279
S"<class 'gluon.html.OPTION'>"
p280
sS'TITLE'
p281
S"<class 'gluon.html.TITLE'>"
p282
sS'CRYPT'
p283
S"<class 'gluon.validators.CRYPT'>"
p284
sS'IS_EMPTY_OR'
p285
S"<class 'gluon.validators.IS_EMPTY_OR'>"
p286
sS'MARKMIN'
p287
S"<class 'gluon.html.MARKMIN'>"
p288
sS'__name__'
p289
S"'__restricted__'"
p290
sS'IS_DATE'
p291
S"<class 'gluon.validators.IS_DATE'>"
p292
sS'STRONG'
p293
S"<class 'gluon.html.STRONG'>"
p294
sS'COL'
p295
S"<class 'gluon.html.COL'>"
p296
sS'service'
p297
S'<gluon.tools.Service object>'
p298
sS'SCRIPT'
p299
S"<class 'gluon.html.SCRIPT'>"
p300
sS'page_home'
p301
S"'trang-chu'"
p302
sS'ProcessAuth'
p303
S"<class 'applications.cms.modules.plugin_auth.ProcessAuth'>"
p304
sS'TABLE'
p305
S"<class 'gluon.html.TABLE'>"
p306
sS'IS_IPV4'
p307
S"<class 'gluon.validators.IS_IPV4'>"
p308
sS'IS_LENGTH'
p309
S"<class 'gluon.validators.IS_LENGTH'>"
p310
sS'IS_IPV6'
p311
S"<class 'gluon.validators.IS_IPV6'>"
p312
sS'XML'
p313
S"<class 'gluon.html.XML'>"
p314
sS'B'
S"<class 'gluon.html.B'>"
p315
sS'IMG'
p316
S"<class 'gluon.html.IMG'>"
p317
sS'SQLTABLE'
p318
S"<class 'gluon.sqlhtml.SQLTABLE'>"
p319
sS'IS_MATCH'
p320
S"<class 'gluon.validators.IS_MATCH'>"
p321
sS'IS_ALPHANUMERIC'
p322
S"<class 'gluon.validators.IS_ALPHANUMERIC'>"
p323
sS'static_view'
p324
S"'site/ghephang/default'"
p325
sS'Cms'
p326
S'<class applications.cms.modules.plugin_cms.Cms>'
p327
sS'SPAN'
p328
S"<class 'gluon.html.SPAN'>"
p329
sS'IS_JSON'
p330
S"<class 'gluon.validators.IS_JSON'>"
p331
sS'IS_IPADDRESS'
p332
S"<class 'gluon.validators.IS_IPADDRESS'>"
p333
sS'IS_SLUG'
p334
S"<class 'gluon.validators.IS_SLUG'>"
p335
sS'BEAUTIFY'
p336
S"<class 'gluon.html.BEAUTIFY'>"
p337
sS'META'
p338
S"<class 'gluon.html.META'>"
p339
sS'BUTTON'
p340
S"<class 'gluon.html.BUTTON'>"
p341
sS'H1'
p342
S"<class 'gluon.html.H1'>"
p343
sS'site_name'
p344
S"'ghephang'"
p345
sS'IS_EMAIL'
p346
S"<class 'gluon.validators.IS_EMAIL'>"
p347
sS'IS_NOT_EMPTY'
p348
S"<class 'gluon.validators.IS_NOT_EMPTY'>"
p349
sS'IS_FLOAT_IN_RANGE'
p350
S"<class 'gluon.validators.IS_FLOAT_IN_RANGE'>"
p351
sS'TBODY'
p352
S"<class 'gluon.html.TBODY'>"
p353
sS'CAT'
p354
S"<class 'gluon.html.CAT'>"
p355
sS'Field'
p356
S"<class 'pydal.objects.Field'>"
p357
sS'IS_LIST_OF_EMAILS'
p358
S"<class 'gluon.validators.IS_LIST_OF_EMAILS'>"
p359
sS'DIV'
p360
S"<class 'gluon.html.DIV'>"
p361
sS'LEGEND'
p362
S"<class 'gluon.html.LEGEND'>"
p363
sS'COLGROUP'
p364
S"<class 'gluon.html.COLGROUP'>"
p365
sS'DAL'
p366
S"<class 'pydal.base.DAL'>"
p367
sS'ASSIGNJS'
p368
S'<function ASSIGNJS>'
p369
sS'TR'
p370
S"<class 'gluon.html.TR'>"
p371
sS'LI'
p372
S"<class 'gluon.html.LI'>"
p373
sS'TH'
p374
S"<class 'gluon.html.TH'>"
p375
sS'site_default'
p376
S"'site/ghephang'"
p377
sS'TD'
p378
S"<class 'gluon.html.TD'>"
p379
sS'IS_URL'
p380
S"<class 'gluon.validators.IS_URL'>"
p381
sS'A'
S"<class 'gluon.html.A'>"
p382
sS'HEAD'
p383
S"<class 'gluon.html.HEAD'>"
p384
sS'portlet'
p385
S'<applications.cms.modules.plugin_portlet.Portlet instance>'
p386
sS'IS_DATETIME_IN_RANGE'
p387
S"<class 'gluon.validators.IS_DATETIME_IN_RANGE'>"
p388
sS'FORM'
p389
S"<class 'gluon.html.FORM'>"
p390
sS'setting_config'
p391
S'<function setting_config>'
p392
sS'I'
S"<class 'gluon.html.I'>"
p393
sS'IS_NOT_IN_DB'
p394
S"<class 'gluon.validators.IS_NOT_IN_DB'>"
p395
sg123
S"<Storage {'body': <cStringIO.StringO object at 0... 'view': 'site/ghephang/default/trang_chu.html'}>"
p396
sS'THEAD'
p397
S"<class 'gluon.html.THEAD'>"
p398
sS'ANY_OF'
p399
S"<class 'gluon.validators.ANY_OF'>"
p400
sS'IS_NULL_OR'
p401
S"<class 'gluon.validators.IS_EMPTY_OR'>"
p402
sS'api_naso'
p403
S"'https://website:gkajhsafplafgalsda@banhang.bahadi.vn/app'"
p404
sg56
S"<Storage {'_vars': None, 'function': 'folder', '...wnloads\\\\bahadi\\\\9026-py2\\\\applications\\\\cms\\\\'}>"
p405
sS'IS_EXPR'
p406
S"<class 'gluon.validators.IS_EXPR'>"
p407
sS'T'
S'<gluon.languages.translator object>'
p408
sS'IS_IN_SET'
p409
S"<class 'gluon.validators.IS_IN_SET'>"
p410
sS'IS_UPLOAD_FILENAME'
p411
S"<class 'gluon.validators.IS_UPLOAD_FILENAME'>"
p412
sS'cStringIO'
p413
S"<module 'cStringIO' (built-in)>"
p414
sS'TT'
p415
S"<class 'gluon.html.TT'>"
p416
sS'IS_DECIMAL_IN_RANGE'
p417
S"<class 'gluon.validators.IS_DECIMAL_IN_RANGE'>"
p418
sssS'traceback'
p419
S'Traceback (most recent call last):\n  File "C:\\Users\\F6\\Downloads\\bahadi\\9026-py2\\gluon\\restricted.py", line 227, in restricted\n    exec ccode in environment\n  File "C:\\Users\\F6\\Downloads\\bahadi\\9026-py2\\applications\\cms\\views\\site/ghephang/default/trang_chu.html", line 87, in <module>\n    <img src="https://play-lh.googleusercontent.com/aV4fFPxstjawLSez3UpWr7-vcd2ZmL8uXGJ7EEfkM62OYFa3ZRp7yhzASoKquq4wIs4" >\nNameError: name \'data\' is not defined\n'
p420
s.